	.file	"main.cpp"
	.text
	.section	.text._ZN3tbb10interface98internal9flag_task7executeEv,"axG",@progbits,_ZN3tbb10interface98internal9flag_task7executeEv,comdat
	.align 2
	.p2align 4,,15
	.weak	_ZN3tbb10interface98internal9flag_task7executeEv
	.type	_ZN3tbb10interface98internal9flag_task7executeEv, @function
_ZN3tbb10interface98internal9flag_task7executeEv:
.LFB5023:
	.cfi_startproc
	xorl	%eax, %eax
	ret
	.cfi_endproc
.LFE5023:
	.size	_ZN3tbb10interface98internal9flag_task7executeEv, .-_ZN3tbb10interface98internal9flag_task7executeEv
	.section	.text._ZN3tbb17concurrent_vectorINS_8internal6paddedINS_10interface68internal11ets_elementI17thread_local_varsEELm128EEENS_23cache_aligned_allocatorIS8_EEE13destroy_arrayEPvm,"axG",@progbits,_ZN3tbb17concurrent_vectorINS_8internal6paddedINS_10interface68internal11ets_elementI17thread_local_varsEELm128EEENS_23cache_aligned_allocatorIS8_EEE13destroy_arrayEPvm,comdat
	.align 2
	.p2align 4,,15
	.weak	_ZN3tbb17concurrent_vectorINS_8internal6paddedINS_10interface68internal11ets_elementI17thread_local_varsEELm128EEENS_23cache_aligned_allocatorIS8_EEE13destroy_arrayEPvm
	.type	_ZN3tbb17concurrent_vectorINS_8internal6paddedINS_10interface68internal11ets_elementI17thread_local_varsEELm128EEENS_23cache_aligned_allocatorIS8_EEE13destroy_arrayEPvm, @function
_ZN3tbb17concurrent_vectorINS_8internal6paddedINS_10interface68internal11ets_elementI17thread_local_varsEELm128EEENS_23cache_aligned_allocatorIS8_EEE13destroy_arrayEPvm:
.LFB6192:
	.cfi_startproc
	rep ret
	.cfi_endproc
.LFE6192:
	.size	_ZN3tbb17concurrent_vectorINS_8internal6paddedINS_10interface68internal11ets_elementI17thread_local_varsEELm128EEENS_23cache_aligned_allocatorIS8_EEE13destroy_arrayEPvm, .-_ZN3tbb17concurrent_vectorINS_8internal6paddedINS_10interface68internal11ets_elementI17thread_local_varsEELm128EEENS_23cache_aligned_allocatorIS8_EEE13destroy_arrayEPvm
	.section	.text._ZN3tbb10interface98internal9start_forINS_13blocked_rangeIN9__gnu_cxx17__normal_iteratorIP14tear_down_taskSt6vectorIS6_SaIS6_EEEEEENS_8internal26parallel_for_each_body_forI7invokerIS6_ESB_EEKNS_16auto_partitionerEED2Ev,"axG",@progbits,_ZN3tbb10interface98internal9start_forINS_13blocked_rangeIN9__gnu_cxx17__normal_iteratorIP14tear_down_taskSt6vectorIS6_SaIS6_EEEEEENS_8internal26parallel_for_each_body_forI7invokerIS6_ESB_EEKNS_16auto_partitionerEED5Ev,comdat
	.align 2
	.p2align 4,,15
	.weak	_ZN3tbb10interface98internal9start_forINS_13blocked_rangeIN9__gnu_cxx17__normal_iteratorIP14tear_down_taskSt6vectorIS6_SaIS6_EEEEEENS_8internal26parallel_for_each_body_forI7invokerIS6_ESB_EEKNS_16auto_partitionerEED2Ev
	.type	_ZN3tbb10interface98internal9start_forINS_13blocked_rangeIN9__gnu_cxx17__normal_iteratorIP14tear_down_taskSt6vectorIS6_SaIS6_EEEEEENS_8internal26parallel_for_each_body_forI7invokerIS6_ESB_EEKNS_16auto_partitionerEED2Ev, @function
_ZN3tbb10interface98internal9start_forINS_13blocked_rangeIN9__gnu_cxx17__normal_iteratorIP14tear_down_taskSt6vectorIS6_SaIS6_EEEEEENS_8internal26parallel_for_each_body_forI7invokerIS6_ESB_EEKNS_16auto_partitionerEED2Ev:
.LFB6604:
	.cfi_startproc
	rep ret
	.cfi_endproc
.LFE6604:
	.size	_ZN3tbb10interface98internal9start_forINS_13blocked_rangeIN9__gnu_cxx17__normal_iteratorIP14tear_down_taskSt6vectorIS6_SaIS6_EEEEEENS_8internal26parallel_for_each_body_forI7invokerIS6_ESB_EEKNS_16auto_partitionerEED2Ev, .-_ZN3tbb10interface98internal9start_forINS_13blocked_rangeIN9__gnu_cxx17__normal_iteratorIP14tear_down_taskSt6vectorIS6_SaIS6_EEEEEENS_8internal26parallel_for_each_body_forI7invokerIS6_ESB_EEKNS_16auto_partitionerEED2Ev
	.weak	_ZN3tbb10interface98internal9start_forINS_13blocked_rangeIN9__gnu_cxx17__normal_iteratorIP14tear_down_taskSt6vectorIS6_SaIS6_EEEEEENS_8internal26parallel_for_each_body_forI7invokerIS6_ESB_EEKNS_16auto_partitionerEED1Ev
	.set	_ZN3tbb10interface98internal9start_forINS_13blocked_rangeIN9__gnu_cxx17__normal_iteratorIP14tear_down_taskSt6vectorIS6_SaIS6_EEEEEENS_8internal26parallel_for_each_body_forI7invokerIS6_ESB_EEKNS_16auto_partitionerEED1Ev,_ZN3tbb10interface98internal9start_forINS_13blocked_rangeIN9__gnu_cxx17__normal_iteratorIP14tear_down_taskSt6vectorIS6_SaIS6_EEEEEENS_8internal26parallel_for_each_body_forI7invokerIS6_ESB_EEKNS_16auto_partitionerEED2Ev
	.section	.text._ZN3tbb10interface98internal9start_forINS_13blocked_rangeIN9__gnu_cxx17__normal_iteratorIP11access_taskSt6vectorIS6_SaIS6_EEEEEENS_8internal26parallel_for_each_body_forI7invokerIS6_ESB_EEKNS_16auto_partitionerEED2Ev,"axG",@progbits,_ZN3tbb10interface98internal9start_forINS_13blocked_rangeIN9__gnu_cxx17__normal_iteratorIP11access_taskSt6vectorIS6_SaIS6_EEEEEENS_8internal26parallel_for_each_body_forI7invokerIS6_ESB_EEKNS_16auto_partitionerEED5Ev,comdat
	.align 2
	.p2align 4,,15
	.weak	_ZN3tbb10interface98internal9start_forINS_13blocked_rangeIN9__gnu_cxx17__normal_iteratorIP11access_taskSt6vectorIS6_SaIS6_EEEEEENS_8internal26parallel_for_each_body_forI7invokerIS6_ESB_EEKNS_16auto_partitionerEED2Ev
	.type	_ZN3tbb10interface98internal9start_forINS_13blocked_rangeIN9__gnu_cxx17__normal_iteratorIP11access_taskSt6vectorIS6_SaIS6_EEEEEENS_8internal26parallel_for_each_body_forI7invokerIS6_ESB_EEKNS_16auto_partitionerEED2Ev, @function
_ZN3tbb10interface98internal9start_forINS_13blocked_rangeIN9__gnu_cxx17__normal_iteratorIP11access_taskSt6vectorIS6_SaIS6_EEEEEENS_8internal26parallel_for_each_body_forI7invokerIS6_ESB_EEKNS_16auto_partitionerEED2Ev:
.LFB6608:
	.cfi_startproc
	rep ret
	.cfi_endproc
.LFE6608:
	.size	_ZN3tbb10interface98internal9start_forINS_13blocked_rangeIN9__gnu_cxx17__normal_iteratorIP11access_taskSt6vectorIS6_SaIS6_EEEEEENS_8internal26parallel_for_each_body_forI7invokerIS6_ESB_EEKNS_16auto_partitionerEED2Ev, .-_ZN3tbb10interface98internal9start_forINS_13blocked_rangeIN9__gnu_cxx17__normal_iteratorIP11access_taskSt6vectorIS6_SaIS6_EEEEEENS_8internal26parallel_for_each_body_forI7invokerIS6_ESB_EEKNS_16auto_partitionerEED2Ev
	.weak	_ZN3tbb10interface98internal9start_forINS_13blocked_rangeIN9__gnu_cxx17__normal_iteratorIP11access_taskSt6vectorIS6_SaIS6_EEEEEENS_8internal26parallel_for_each_body_forI7invokerIS6_ESB_EEKNS_16auto_partitionerEED1Ev
	.set	_ZN3tbb10interface98internal9start_forINS_13blocked_rangeIN9__gnu_cxx17__normal_iteratorIP11access_taskSt6vectorIS6_SaIS6_EEEEEENS_8internal26parallel_for_each_body_forI7invokerIS6_ESB_EEKNS_16auto_partitionerEED1Ev,_ZN3tbb10interface98internal9start_forINS_13blocked_rangeIN9__gnu_cxx17__normal_iteratorIP11access_taskSt6vectorIS6_SaIS6_EEEEEENS_8internal26parallel_for_each_body_forI7invokerIS6_ESB_EEKNS_16auto_partitionerEED2Ev
	.section	.text._ZN3tbb10interface98internal9start_forINS_13blocked_rangeIN9__gnu_cxx17__normal_iteratorIP9init_taskSt6vectorIS6_SaIS6_EEEEEENS_8internal26parallel_for_each_body_forI7invokerIS6_ESB_EEKNS_16auto_partitionerEED2Ev,"axG",@progbits,_ZN3tbb10interface98internal9start_forINS_13blocked_rangeIN9__gnu_cxx17__normal_iteratorIP9init_taskSt6vectorIS6_SaIS6_EEEEEENS_8internal26parallel_for_each_body_forI7invokerIS6_ESB_EEKNS_16auto_partitionerEED5Ev,comdat
	.align 2
	.p2align 4,,15
	.weak	_ZN3tbb10interface98internal9start_forINS_13blocked_rangeIN9__gnu_cxx17__normal_iteratorIP9init_taskSt6vectorIS6_SaIS6_EEEEEENS_8internal26parallel_for_each_body_forI7invokerIS6_ESB_EEKNS_16auto_partitionerEED2Ev
	.type	_ZN3tbb10interface98internal9start_forINS_13blocked_rangeIN9__gnu_cxx17__normal_iteratorIP9init_taskSt6vectorIS6_SaIS6_EEEEEENS_8internal26parallel_for_each_body_forI7invokerIS6_ESB_EEKNS_16auto_partitionerEED2Ev, @function
_ZN3tbb10interface98internal9start_forINS_13blocked_rangeIN9__gnu_cxx17__normal_iteratorIP9init_taskSt6vectorIS6_SaIS6_EEEEEENS_8internal26parallel_for_each_body_forI7invokerIS6_ESB_EEKNS_16auto_partitionerEED2Ev:
.LFB6612:
	.cfi_startproc
	rep ret
	.cfi_endproc
.LFE6612:
	.size	_ZN3tbb10interface98internal9start_forINS_13blocked_rangeIN9__gnu_cxx17__normal_iteratorIP9init_taskSt6vectorIS6_SaIS6_EEEEEENS_8internal26parallel_for_each_body_forI7invokerIS6_ESB_EEKNS_16auto_partitionerEED2Ev, .-_ZN3tbb10interface98internal9start_forINS_13blocked_rangeIN9__gnu_cxx17__normal_iteratorIP9init_taskSt6vectorIS6_SaIS6_EEEEEENS_8internal26parallel_for_each_body_forI7invokerIS6_ESB_EEKNS_16auto_partitionerEED2Ev
	.weak	_ZN3tbb10interface98internal9start_forINS_13blocked_rangeIN9__gnu_cxx17__normal_iteratorIP9init_taskSt6vectorIS6_SaIS6_EEEEEENS_8internal26parallel_for_each_body_forI7invokerIS6_ESB_EEKNS_16auto_partitionerEED1Ev
	.set	_ZN3tbb10interface98internal9start_forINS_13blocked_rangeIN9__gnu_cxx17__normal_iteratorIP9init_taskSt6vectorIS6_SaIS6_EEEEEENS_8internal26parallel_for_each_body_forI7invokerIS6_ESB_EEKNS_16auto_partitionerEED1Ev,_ZN3tbb10interface98internal9start_forINS_13blocked_rangeIN9__gnu_cxx17__normal_iteratorIP9init_taskSt6vectorIS6_SaIS6_EEEEEENS_8internal26parallel_for_each_body_forI7invokerIS6_ESB_EEKNS_16auto_partitionerEED2Ev
	.section	.text._ZN3tbb10interface68internal13callback_leafI17thread_local_varsNS1_17construct_by_argsIS3_JjEEEED2Ev,"axG",@progbits,_ZN3tbb10interface68internal13callback_leafI17thread_local_varsNS1_17construct_by_argsIS3_JjEEEED5Ev,comdat
	.align 2
	.p2align 4,,15
	.weak	_ZN3tbb10interface68internal13callback_leafI17thread_local_varsNS1_17construct_by_argsIS3_JjEEEED2Ev
	.type	_ZN3tbb10interface68internal13callback_leafI17thread_local_varsNS1_17construct_by_argsIS3_JjEEEED2Ev, @function
_ZN3tbb10interface68internal13callback_leafI17thread_local_varsNS1_17construct_by_argsIS3_JjEEEED2Ev:
.LFB6616:
	.cfi_startproc
	rep ret
	.cfi_endproc
.LFE6616:
	.size	_ZN3tbb10interface68internal13callback_leafI17thread_local_varsNS1_17construct_by_argsIS3_JjEEEED2Ev, .-_ZN3tbb10interface68internal13callback_leafI17thread_local_varsNS1_17construct_by_argsIS3_JjEEEED2Ev
	.weak	_ZN3tbb10interface68internal13callback_leafI17thread_local_varsNS1_17construct_by_argsIS3_JjEEEED1Ev
	.set	_ZN3tbb10interface68internal13callback_leafI17thread_local_varsNS1_17construct_by_argsIS3_JjEEEED1Ev,_ZN3tbb10interface68internal13callback_leafI17thread_local_varsNS1_17construct_by_argsIS3_JjEEEED2Ev
	.section	.text._ZN3tbb10interface98internal9flag_taskD2Ev,"axG",@progbits,_ZN3tbb10interface98internal9flag_taskD5Ev,comdat
	.align 2
	.p2align 4,,15
	.weak	_ZN3tbb10interface98internal9flag_taskD2Ev
	.type	_ZN3tbb10interface98internal9flag_taskD2Ev, @function
_ZN3tbb10interface98internal9flag_taskD2Ev:
.LFB6620:
	.cfi_startproc
	rep ret
	.cfi_endproc
.LFE6620:
	.size	_ZN3tbb10interface98internal9flag_taskD2Ev, .-_ZN3tbb10interface98internal9flag_taskD2Ev
	.weak	_ZN3tbb10interface98internal9flag_taskD1Ev
	.set	_ZN3tbb10interface98internal9flag_taskD1Ev,_ZN3tbb10interface98internal9flag_taskD2Ev
	.section	.text._ZN3tbb10interface98internal9start_forINS_13blocked_rangeIN9__gnu_cxx17__normal_iteratorIP14tear_down_taskSt6vectorIS6_SaIS6_EEEEEENS_8internal26parallel_for_each_body_forI7invokerIS6_ESB_EEKNS_16auto_partitionerEE13note_affinityEt,"axG",@progbits,_ZN3tbb10interface98internal9start_forINS_13blocked_rangeIN9__gnu_cxx17__normal_iteratorIP14tear_down_taskSt6vectorIS6_SaIS6_EEEEEENS_8internal26parallel_for_each_body_forI7invokerIS6_ESB_EEKNS_16auto_partitionerEE13note_affinityEt,comdat
	.align 2
	.p2align 4,,15
	.weak	_ZN3tbb10interface98internal9start_forINS_13blocked_rangeIN9__gnu_cxx17__normal_iteratorIP14tear_down_taskSt6vectorIS6_SaIS6_EEEEEENS_8internal26parallel_for_each_body_forI7invokerIS6_ESB_EEKNS_16auto_partitionerEE13note_affinityEt
	.type	_ZN3tbb10interface98internal9start_forINS_13blocked_rangeIN9__gnu_cxx17__normal_iteratorIP14tear_down_taskSt6vectorIS6_SaIS6_EEEEEENS_8internal26parallel_for_each_body_forI7invokerIS6_ESB_EEKNS_16auto_partitionerEE13note_affinityEt, @function
_ZN3tbb10interface98internal9start_forINS_13blocked_rangeIN9__gnu_cxx17__normal_iteratorIP14tear_down_taskSt6vectorIS6_SaIS6_EEEEEENS_8internal26parallel_for_each_body_forI7invokerIS6_ESB_EEKNS_16auto_partitionerEE13note_affinityEt:
.LFB6641:
	.cfi_startproc
	rep ret
	.cfi_endproc
.LFE6641:
	.size	_ZN3tbb10interface98internal9start_forINS_13blocked_rangeIN9__gnu_cxx17__normal_iteratorIP14tear_down_taskSt6vectorIS6_SaIS6_EEEEEENS_8internal26parallel_for_each_body_forI7invokerIS6_ESB_EEKNS_16auto_partitionerEE13note_affinityEt, .-_ZN3tbb10interface98internal9start_forINS_13blocked_rangeIN9__gnu_cxx17__normal_iteratorIP14tear_down_taskSt6vectorIS6_SaIS6_EEEEEENS_8internal26parallel_for_each_body_forI7invokerIS6_ESB_EEKNS_16auto_partitionerEE13note_affinityEt
	.section	.text._ZN3tbb10interface98internal9start_forINS_13blocked_rangeIN9__gnu_cxx17__normal_iteratorIP11access_taskSt6vectorIS6_SaIS6_EEEEEENS_8internal26parallel_for_each_body_forI7invokerIS6_ESB_EEKNS_16auto_partitionerEE13note_affinityEt,"axG",@progbits,_ZN3tbb10interface98internal9start_forINS_13blocked_rangeIN9__gnu_cxx17__normal_iteratorIP11access_taskSt6vectorIS6_SaIS6_EEEEEENS_8internal26parallel_for_each_body_forI7invokerIS6_ESB_EEKNS_16auto_partitionerEE13note_affinityEt,comdat
	.align 2
	.p2align 4,,15
	.weak	_ZN3tbb10interface98internal9start_forINS_13blocked_rangeIN9__gnu_cxx17__normal_iteratorIP11access_taskSt6vectorIS6_SaIS6_EEEEEENS_8internal26parallel_for_each_body_forI7invokerIS6_ESB_EEKNS_16auto_partitionerEE13note_affinityEt
	.type	_ZN3tbb10interface98internal9start_forINS_13blocked_rangeIN9__gnu_cxx17__normal_iteratorIP11access_taskSt6vectorIS6_SaIS6_EEEEEENS_8internal26parallel_for_each_body_forI7invokerIS6_ESB_EEKNS_16auto_partitionerEE13note_affinityEt, @function
_ZN3tbb10interface98internal9start_forINS_13blocked_rangeIN9__gnu_cxx17__normal_iteratorIP11access_taskSt6vectorIS6_SaIS6_EEEEEENS_8internal26parallel_for_each_body_forI7invokerIS6_ESB_EEKNS_16auto_partitionerEE13note_affinityEt:
.LFB6643:
	.cfi_startproc
	rep ret
	.cfi_endproc
.LFE6643:
	.size	_ZN3tbb10interface98internal9start_forINS_13blocked_rangeIN9__gnu_cxx17__normal_iteratorIP11access_taskSt6vectorIS6_SaIS6_EEEEEENS_8internal26parallel_for_each_body_forI7invokerIS6_ESB_EEKNS_16auto_partitionerEE13note_affinityEt, .-_ZN3tbb10interface98internal9start_forINS_13blocked_rangeIN9__gnu_cxx17__normal_iteratorIP11access_taskSt6vectorIS6_SaIS6_EEEEEENS_8internal26parallel_for_each_body_forI7invokerIS6_ESB_EEKNS_16auto_partitionerEE13note_affinityEt
	.section	.text._ZN3tbb10interface98internal9start_forINS_13blocked_rangeIN9__gnu_cxx17__normal_iteratorIP9init_taskSt6vectorIS6_SaIS6_EEEEEENS_8internal26parallel_for_each_body_forI7invokerIS6_ESB_EEKNS_16auto_partitionerEE13note_affinityEt,"axG",@progbits,_ZN3tbb10interface98internal9start_forINS_13blocked_rangeIN9__gnu_cxx17__normal_iteratorIP9init_taskSt6vectorIS6_SaIS6_EEEEEENS_8internal26parallel_for_each_body_forI7invokerIS6_ESB_EEKNS_16auto_partitionerEE13note_affinityEt,comdat
	.align 2
	.p2align 4,,15
	.weak	_ZN3tbb10interface98internal9start_forINS_13blocked_rangeIN9__gnu_cxx17__normal_iteratorIP9init_taskSt6vectorIS6_SaIS6_EEEEEENS_8internal26parallel_for_each_body_forI7invokerIS6_ESB_EEKNS_16auto_partitionerEE13note_affinityEt
	.type	_ZN3tbb10interface98internal9start_forINS_13blocked_rangeIN9__gnu_cxx17__normal_iteratorIP9init_taskSt6vectorIS6_SaIS6_EEEEEENS_8internal26parallel_for_each_body_forI7invokerIS6_ESB_EEKNS_16auto_partitionerEE13note_affinityEt, @function
_ZN3tbb10interface98internal9start_forINS_13blocked_rangeIN9__gnu_cxx17__normal_iteratorIP9init_taskSt6vectorIS6_SaIS6_EEEEEENS_8internal26parallel_for_each_body_forI7invokerIS6_ESB_EEKNS_16auto_partitionerEE13note_affinityEt:
.LFB6645:
	.cfi_startproc
	rep ret
	.cfi_endproc
.LFE6645:
	.size	_ZN3tbb10interface98internal9start_forINS_13blocked_rangeIN9__gnu_cxx17__normal_iteratorIP9init_taskSt6vectorIS6_SaIS6_EEEEEENS_8internal26parallel_for_each_body_forI7invokerIS6_ESB_EEKNS_16auto_partitionerEE13note_affinityEt, .-_ZN3tbb10interface98internal9start_forINS_13blocked_rangeIN9__gnu_cxx17__normal_iteratorIP9init_taskSt6vectorIS6_SaIS6_EEEEEENS_8internal26parallel_for_each_body_forI7invokerIS6_ESB_EEKNS_16auto_partitionerEE13note_affinityEt
	.section	.text._ZN3tbb10interface68internal13callback_leafI17thread_local_varsNS1_17construct_by_argsIS3_JjEEEE9constructEPv,"axG",@progbits,_ZN3tbb10interface68internal13callback_leafI17thread_local_varsNS1_17construct_by_argsIS3_JjEEEE9constructEPv,comdat
	.align 2
	.p2align 4,,15
	.weak	_ZN3tbb10interface68internal13callback_leafI17thread_local_varsNS1_17construct_by_argsIS3_JjEEEE9constructEPv
	.type	_ZN3tbb10interface68internal13callback_leafI17thread_local_varsNS1_17construct_by_argsIS3_JjEEEE9constructEPv, @function
_ZN3tbb10interface68internal13callback_leafI17thread_local_varsNS1_17construct_by_argsIS3_JjEEEE9constructEPv:
.LFB6648:
	.cfi_startproc
	testq	%rsi, %rsi
	je	.L12
	movl	8(%rdi), %eax
	movq	$0, 8(%rsi)
	movl	$0, 16(%rsi)
	movq	$0, 24(%rsi)
	movq	$0, 32(%rsi)
	movq	$0, 40(%rsi)
	movl	%eax, (%rsi)
.L12:
	rep ret
	.cfi_endproc
.LFE6648:
	.size	_ZN3tbb10interface68internal13callback_leafI17thread_local_varsNS1_17construct_by_argsIS3_JjEEEE9constructEPv, .-_ZN3tbb10interface68internal13callback_leafI17thread_local_varsNS1_17construct_by_argsIS3_JjEEEE9constructEPv
	.section	.text._ZN3tbb10interface98internal9flag_taskD0Ev,"axG",@progbits,_ZN3tbb10interface98internal9flag_taskD5Ev,comdat
	.align 2
	.p2align 4,,15
	.weak	_ZN3tbb10interface98internal9flag_taskD0Ev
	.type	_ZN3tbb10interface98internal9flag_taskD0Ev, @function
_ZN3tbb10interface98internal9flag_taskD0Ev:
.LFB6622:
	.cfi_startproc
	movl	$16, %esi
	jmp	_ZdlPvm@PLT
	.cfi_endproc
.LFE6622:
	.size	_ZN3tbb10interface98internal9flag_taskD0Ev, .-_ZN3tbb10interface98internal9flag_taskD0Ev
	.section	.text._ZN3tbb10interface98internal9start_forINS_13blocked_rangeIN9__gnu_cxx17__normal_iteratorIP9init_taskSt6vectorIS6_SaIS6_EEEEEENS_8internal26parallel_for_each_body_forI7invokerIS6_ESB_EEKNS_16auto_partitionerEED0Ev,"axG",@progbits,_ZN3tbb10interface98internal9start_forINS_13blocked_rangeIN9__gnu_cxx17__normal_iteratorIP9init_taskSt6vectorIS6_SaIS6_EEEEEENS_8internal26parallel_for_each_body_forI7invokerIS6_ESB_EEKNS_16auto_partitionerEED5Ev,comdat
	.align 2
	.p2align 4,,15
	.weak	_ZN3tbb10interface98internal9start_forINS_13blocked_rangeIN9__gnu_cxx17__normal_iteratorIP9init_taskSt6vectorIS6_SaIS6_EEEEEENS_8internal26parallel_for_each_body_forI7invokerIS6_ESB_EEKNS_16auto_partitionerEED0Ev
	.type	_ZN3tbb10interface98internal9start_forINS_13blocked_rangeIN9__gnu_cxx17__normal_iteratorIP9init_taskSt6vectorIS6_SaIS6_EEEEEENS_8internal26parallel_for_each_body_forI7invokerIS6_ESB_EEKNS_16auto_partitionerEED0Ev, @function
_ZN3tbb10interface98internal9start_forINS_13blocked_rangeIN9__gnu_cxx17__normal_iteratorIP9init_taskSt6vectorIS6_SaIS6_EEEEEENS_8internal26parallel_for_each_body_forI7invokerIS6_ESB_EEKNS_16auto_partitionerEED0Ev:
.LFB6614:
	.cfi_startproc
	movl	$56, %esi
	jmp	_ZdlPvm@PLT
	.cfi_endproc
.LFE6614:
	.size	_ZN3tbb10interface98internal9start_forINS_13blocked_rangeIN9__gnu_cxx17__normal_iteratorIP9init_taskSt6vectorIS6_SaIS6_EEEEEENS_8internal26parallel_for_each_body_forI7invokerIS6_ESB_EEKNS_16auto_partitionerEED0Ev, .-_ZN3tbb10interface98internal9start_forINS_13blocked_rangeIN9__gnu_cxx17__normal_iteratorIP9init_taskSt6vectorIS6_SaIS6_EEEEEENS_8internal26parallel_for_each_body_forI7invokerIS6_ESB_EEKNS_16auto_partitionerEED0Ev
	.section	.text._ZN3tbb10interface98internal9start_forINS_13blocked_rangeIN9__gnu_cxx17__normal_iteratorIP11access_taskSt6vectorIS6_SaIS6_EEEEEENS_8internal26parallel_for_each_body_forI7invokerIS6_ESB_EEKNS_16auto_partitionerEED0Ev,"axG",@progbits,_ZN3tbb10interface98internal9start_forINS_13blocked_rangeIN9__gnu_cxx17__normal_iteratorIP11access_taskSt6vectorIS6_SaIS6_EEEEEENS_8internal26parallel_for_each_body_forI7invokerIS6_ESB_EEKNS_16auto_partitionerEED5Ev,comdat
	.align 2
	.p2align 4,,15
	.weak	_ZN3tbb10interface98internal9start_forINS_13blocked_rangeIN9__gnu_cxx17__normal_iteratorIP11access_taskSt6vectorIS6_SaIS6_EEEEEENS_8internal26parallel_for_each_body_forI7invokerIS6_ESB_EEKNS_16auto_partitionerEED0Ev
	.type	_ZN3tbb10interface98internal9start_forINS_13blocked_rangeIN9__gnu_cxx17__normal_iteratorIP11access_taskSt6vectorIS6_SaIS6_EEEEEENS_8internal26parallel_for_each_body_forI7invokerIS6_ESB_EEKNS_16auto_partitionerEED0Ev, @function
_ZN3tbb10interface98internal9start_forINS_13blocked_rangeIN9__gnu_cxx17__normal_iteratorIP11access_taskSt6vectorIS6_SaIS6_EEEEEENS_8internal26parallel_for_each_body_forI7invokerIS6_ESB_EEKNS_16auto_partitionerEED0Ev:
.LFB6610:
	.cfi_startproc
	movl	$56, %esi
	jmp	_ZdlPvm@PLT
	.cfi_endproc
.LFE6610:
	.size	_ZN3tbb10interface98internal9start_forINS_13blocked_rangeIN9__gnu_cxx17__normal_iteratorIP11access_taskSt6vectorIS6_SaIS6_EEEEEENS_8internal26parallel_for_each_body_forI7invokerIS6_ESB_EEKNS_16auto_partitionerEED0Ev, .-_ZN3tbb10interface98internal9start_forINS_13blocked_rangeIN9__gnu_cxx17__normal_iteratorIP11access_taskSt6vectorIS6_SaIS6_EEEEEENS_8internal26parallel_for_each_body_forI7invokerIS6_ESB_EEKNS_16auto_partitionerEED0Ev
	.section	.text._ZN3tbb10interface98internal9start_forINS_13blocked_rangeIN9__gnu_cxx17__normal_iteratorIP14tear_down_taskSt6vectorIS6_SaIS6_EEEEEENS_8internal26parallel_for_each_body_forI7invokerIS6_ESB_EEKNS_16auto_partitionerEED0Ev,"axG",@progbits,_ZN3tbb10interface98internal9start_forINS_13blocked_rangeIN9__gnu_cxx17__normal_iteratorIP14tear_down_taskSt6vectorIS6_SaIS6_EEEEEENS_8internal26parallel_for_each_body_forI7invokerIS6_ESB_EEKNS_16auto_partitionerEED5Ev,comdat
	.align 2
	.p2align 4,,15
	.weak	_ZN3tbb10interface98internal9start_forINS_13blocked_rangeIN9__gnu_cxx17__normal_iteratorIP14tear_down_taskSt6vectorIS6_SaIS6_EEEEEENS_8internal26parallel_for_each_body_forI7invokerIS6_ESB_EEKNS_16auto_partitionerEED0Ev
	.type	_ZN3tbb10interface98internal9start_forINS_13blocked_rangeIN9__gnu_cxx17__normal_iteratorIP14tear_down_taskSt6vectorIS6_SaIS6_EEEEEENS_8internal26parallel_for_each_body_forI7invokerIS6_ESB_EEKNS_16auto_partitionerEED0Ev, @function
_ZN3tbb10interface98internal9start_forINS_13blocked_rangeIN9__gnu_cxx17__normal_iteratorIP14tear_down_taskSt6vectorIS6_SaIS6_EEEEEENS_8internal26parallel_for_each_body_forI7invokerIS6_ESB_EEKNS_16auto_partitionerEED0Ev:
.LFB6606:
	.cfi_startproc
	movl	$56, %esi
	jmp	_ZdlPvm@PLT
	.cfi_endproc
.LFE6606:
	.size	_ZN3tbb10interface98internal9start_forINS_13blocked_rangeIN9__gnu_cxx17__normal_iteratorIP14tear_down_taskSt6vectorIS6_SaIS6_EEEEEENS_8internal26parallel_for_each_body_forI7invokerIS6_ESB_EEKNS_16auto_partitionerEED0Ev, .-_ZN3tbb10interface98internal9start_forINS_13blocked_rangeIN9__gnu_cxx17__normal_iteratorIP14tear_down_taskSt6vectorIS6_SaIS6_EEEEEENS_8internal26parallel_for_each_body_forI7invokerIS6_ESB_EEKNS_16auto_partitionerEED0Ev
	.section	.text._ZN3tbb10interface68internal13callback_leafI17thread_local_varsNS1_17construct_by_argsIS3_JjEEEED0Ev,"axG",@progbits,_ZN3tbb10interface68internal13callback_leafI17thread_local_varsNS1_17construct_by_argsIS3_JjEEEED5Ev,comdat
	.align 2
	.p2align 4,,15
	.weak	_ZN3tbb10interface68internal13callback_leafI17thread_local_varsNS1_17construct_by_argsIS3_JjEEEED0Ev
	.type	_ZN3tbb10interface68internal13callback_leafI17thread_local_varsNS1_17construct_by_argsIS3_JjEEEED0Ev, @function
_ZN3tbb10interface68internal13callback_leafI17thread_local_varsNS1_17construct_by_argsIS3_JjEEEED0Ev:
.LFB6618:
	.cfi_startproc
	movl	$16, %esi
	jmp	_ZdlPvm@PLT
	.cfi_endproc
.LFE6618:
	.size	_ZN3tbb10interface68internal13callback_leafI17thread_local_varsNS1_17construct_by_argsIS3_JjEEEED0Ev, .-_ZN3tbb10interface68internal13callback_leafI17thread_local_varsNS1_17construct_by_argsIS3_JjEEEED0Ev
	.section	.text._ZN3tbb17concurrent_vectorINS_8internal6paddedINS_10interface68internal11ets_elementI17thread_local_varsEELm128EEENS_23cache_aligned_allocatorIS8_EEE18internal_allocatorERNS1_25concurrent_vector_base_v3Em,"axG",@progbits,_ZN3tbb17concurrent_vectorINS_8internal6paddedINS_10interface68internal11ets_elementI17thread_local_varsEELm128EEENS_23cache_aligned_allocatorIS8_EEE18internal_allocatorERNS1_25concurrent_vector_base_v3Em,comdat
	.p2align 4,,15
	.weak	_ZN3tbb17concurrent_vectorINS_8internal6paddedINS_10interface68internal11ets_elementI17thread_local_varsEELm128EEENS_23cache_aligned_allocatorIS8_EEE18internal_allocatorERNS1_25concurrent_vector_base_v3Em
	.type	_ZN3tbb17concurrent_vectorINS_8internal6paddedINS_10interface68internal11ets_elementI17thread_local_varsEELm128EEENS_23cache_aligned_allocatorIS8_EEE18internal_allocatorERNS1_25concurrent_vector_base_v3Em, @function
_ZN3tbb17concurrent_vectorINS_8internal6paddedINS_10interface68internal11ets_elementI17thread_local_varsEELm128EEENS_23cache_aligned_allocatorIS8_EEE18internal_allocatorERNS1_25concurrent_vector_base_v3Em:
.LFB6189:
	.cfi_startproc
	movq	%rsi, %rdi
	xorl	%edx, %edx
	movl	$128, %esi
	jmp	_ZN3tbb8internal12NFS_AllocateEmmPv@PLT
	.cfi_endproc
.LFE6189:
	.size	_ZN3tbb17concurrent_vectorINS_8internal6paddedINS_10interface68internal11ets_elementI17thread_local_varsEELm128EEENS_23cache_aligned_allocatorIS8_EEE18internal_allocatorERNS1_25concurrent_vector_base_v3Em, .-_ZN3tbb17concurrent_vectorINS_8internal6paddedINS_10interface68internal11ets_elementI17thread_local_varsEELm128EEENS_23cache_aligned_allocatorIS8_EEE18internal_allocatorERNS1_25concurrent_vector_base_v3Em
	.section	.text._ZN3tbb10interface626enumerable_thread_specificI17thread_local_varsNS_23cache_aligned_allocatorIS2_EELNS_18ets_key_usage_typeE1EE12create_arrayEm,"axG",@progbits,_ZN3tbb10interface626enumerable_thread_specificI17thread_local_varsNS_23cache_aligned_allocatorIS2_EELNS_18ets_key_usage_typeE1EE12create_arrayEm,comdat
	.align 2
	.p2align 4,,15
	.weak	_ZN3tbb10interface626enumerable_thread_specificI17thread_local_varsNS_23cache_aligned_allocatorIS2_EELNS_18ets_key_usage_typeE1EE12create_arrayEm
	.type	_ZN3tbb10interface626enumerable_thread_specificI17thread_local_varsNS_23cache_aligned_allocatorIS2_EELNS_18ets_key_usage_typeE1EE12create_arrayEm, @function
_ZN3tbb10interface626enumerable_thread_specificI17thread_local_varsNS_23cache_aligned_allocatorIS2_EELNS_18ets_key_usage_typeE1EE12create_arrayEm:
.LFB6650:
	.cfi_startproc
	leaq	7(%rsi), %rdi
	xorl	%edx, %edx
	movl	$8, %esi
	shrq	$3, %rdi
	jmp	_ZN3tbb8internal12NFS_AllocateEmmPv@PLT
	.cfi_endproc
.LFE6650:
	.size	_ZN3tbb10interface626enumerable_thread_specificI17thread_local_varsNS_23cache_aligned_allocatorIS2_EELNS_18ets_key_usage_typeE1EE12create_arrayEm, .-_ZN3tbb10interface626enumerable_thread_specificI17thread_local_varsNS_23cache_aligned_allocatorIS2_EELNS_18ets_key_usage_typeE1EE12create_arrayEm
	.section	.text._ZN3tbb10interface626enumerable_thread_specificI17thread_local_varsNS_23cache_aligned_allocatorIS2_EELNS_18ets_key_usage_typeE1EE10free_arrayEPvm,"axG",@progbits,_ZN3tbb10interface626enumerable_thread_specificI17thread_local_varsNS_23cache_aligned_allocatorIS2_EELNS_18ets_key_usage_typeE1EE10free_arrayEPvm,comdat
	.align 2
	.p2align 4,,15
	.weak	_ZN3tbb10interface626enumerable_thread_specificI17thread_local_varsNS_23cache_aligned_allocatorIS2_EELNS_18ets_key_usage_typeE1EE10free_arrayEPvm
	.type	_ZN3tbb10interface626enumerable_thread_specificI17thread_local_varsNS_23cache_aligned_allocatorIS2_EELNS_18ets_key_usage_typeE1EE10free_arrayEPvm, @function
_ZN3tbb10interface626enumerable_thread_specificI17thread_local_varsNS_23cache_aligned_allocatorIS2_EELNS_18ets_key_usage_typeE1EE10free_arrayEPvm:
.LFB6651:
	.cfi_startproc
	movq	%rsi, %rdi
	jmp	_ZN3tbb8internal8NFS_FreeEPv@PLT
	.cfi_endproc
.LFE6651:
	.size	_ZN3tbb10interface626enumerable_thread_specificI17thread_local_varsNS_23cache_aligned_allocatorIS2_EELNS_18ets_key_usage_typeE1EE10free_arrayEPvm, .-_ZN3tbb10interface626enumerable_thread_specificI17thread_local_varsNS_23cache_aligned_allocatorIS2_EELNS_18ets_key_usage_typeE1EE10free_arrayEPvm
	.section	.text._ZN3tbb17concurrent_vectorINS_8internal6paddedINS_10interface68internal11ets_elementI17thread_local_varsEELm128EEENS_23cache_aligned_allocatorIS8_EEE16initialize_arrayEPvPKvm,"axG",@progbits,_ZN3tbb17concurrent_vectorINS_8internal6paddedINS_10interface68internal11ets_elementI17thread_local_varsEELm128EEENS_23cache_aligned_allocatorIS8_EEE16initialize_arrayEPvPKvm,comdat
	.align 2
	.p2align 4,,15
	.weak	_ZN3tbb17concurrent_vectorINS_8internal6paddedINS_10interface68internal11ets_elementI17thread_local_varsEELm128EEENS_23cache_aligned_allocatorIS8_EEE16initialize_arrayEPvPKvm
	.type	_ZN3tbb17concurrent_vectorINS_8internal6paddedINS_10interface68internal11ets_elementI17thread_local_varsEELm128EEENS_23cache_aligned_allocatorIS8_EEE16initialize_arrayEPvPKvm, @function
_ZN3tbb17concurrent_vectorINS_8internal6paddedINS_10interface68internal11ets_elementI17thread_local_varsEELm128EEENS_23cache_aligned_allocatorIS8_EEE16initialize_arrayEPvPKvm:
.LFB6698:
	.cfi_startproc
	testq	%rdx, %rdx
	je	.L25
	salq	$7, %rdx
	movq	%rdi, %rsi
	xorl	%eax, %eax
	addq	%rdi, %rdx
	.p2align 4,,10
	.p2align 3
.L28:
	testq	%rsi, %rsi
	je	.L27
	movl	$16, %ecx
	movq	%rsi, %rdi
	rep stosq
.L27:
	subq	$-128, %rsi
	cmpq	%rdx, %rsi
	jne	.L28
.L25:
	rep ret
	.cfi_endproc
.LFE6698:
	.size	_ZN3tbb17concurrent_vectorINS_8internal6paddedINS_10interface68internal11ets_elementI17thread_local_varsEELm128EEENS_23cache_aligned_allocatorIS8_EEE16initialize_arrayEPvPKvm, .-_ZN3tbb17concurrent_vectorINS_8internal6paddedINS_10interface68internal11ets_elementI17thread_local_varsEELm128EEENS_23cache_aligned_allocatorIS8_EEE16initialize_arrayEPvPKvm
	.section	.text._ZNK3tbb10interface68internal13callback_leafI17thread_local_varsNS1_17construct_by_argsIS3_JjEEEE5cloneEv,"axG",@progbits,_ZNK3tbb10interface68internal13callback_leafI17thread_local_varsNS1_17construct_by_argsIS3_JjEEEE5cloneEv,comdat
	.align 2
	.p2align 4,,15
	.weak	_ZNK3tbb10interface68internal13callback_leafI17thread_local_varsNS1_17construct_by_argsIS3_JjEEEE5cloneEv
	.type	_ZNK3tbb10interface68internal13callback_leafI17thread_local_varsNS1_17construct_by_argsIS3_JjEEEE5cloneEv, @function
_ZNK3tbb10interface68internal13callback_leafI17thread_local_varsNS1_17construct_by_argsIS3_JjEEEE5cloneEv:
.LFB6646:
	.cfi_startproc
	pushq	%rbx
	.cfi_def_cfa_offset 16
	.cfi_offset 3, -16
	movq	%rdi, %rbx
	movl	$16, %edi
	call	_ZN3tbb8internal23allocate_via_handler_v3Em@PLT
	testq	%rax, %rax
	je	.L36
	movl	8(%rbx), %edx
	leaq	16+_ZTVN3tbb10interface68internal13callback_leafI17thread_local_varsNS1_17construct_by_argsIS3_JjEEEEE(%rip), %rcx
	movq	%rcx, (%rax)
	movl	%edx, 8(%rax)
.L36:
	popq	%rbx
	.cfi_def_cfa_offset 8
	ret
	.cfi_endproc
.LFE6646:
	.size	_ZNK3tbb10interface68internal13callback_leafI17thread_local_varsNS1_17construct_by_argsIS3_JjEEEE5cloneEv, .-_ZNK3tbb10interface68internal13callback_leafI17thread_local_varsNS1_17construct_by_argsIS3_JjEEEE5cloneEv
	.section	.text._ZN3tbb10interface68internal13callback_leafI17thread_local_varsNS1_17construct_by_argsIS3_JjEEEE7destroyEv,"axG",@progbits,_ZN3tbb10interface68internal13callback_leafI17thread_local_varsNS1_17construct_by_argsIS3_JjEEEE7destroyEv,comdat
	.align 2
	.p2align 4,,15
	.weak	_ZN3tbb10interface68internal13callback_leafI17thread_local_varsNS1_17construct_by_argsIS3_JjEEEE7destroyEv
	.type	_ZN3tbb10interface68internal13callback_leafI17thread_local_varsNS1_17construct_by_argsIS3_JjEEEE7destroyEv, @function
_ZN3tbb10interface68internal13callback_leafI17thread_local_varsNS1_17construct_by_argsIS3_JjEEEE7destroyEv:
.LFB6647:
	.cfi_startproc
	pushq	%rbx
	.cfi_def_cfa_offset 16
	.cfi_offset 3, -16
	movq	(%rdi), %rax
	movq	%rdi, %rbx
	call	*16(%rax)
	movq	%rbx, %rdi
	popq	%rbx
	.cfi_def_cfa_offset 8
	jmp	_ZN3tbb8internal25deallocate_via_handler_v3EPv@PLT
	.cfi_endproc
.LFE6647:
	.size	_ZN3tbb10interface68internal13callback_leafI17thread_local_varsNS1_17construct_by_argsIS3_JjEEEE7destroyEv, .-_ZN3tbb10interface68internal13callback_leafI17thread_local_varsNS1_17construct_by_argsIS3_JjEEEE7destroyEv
	.section	.text._ZN3tbb10interface626enumerable_thread_specificI17thread_local_varsNS_23cache_aligned_allocatorIS2_EELNS_18ets_key_usage_typeE1EE12create_localEv,"axG",@progbits,_ZN3tbb10interface626enumerable_thread_specificI17thread_local_varsNS_23cache_aligned_allocatorIS2_EELNS_18ets_key_usage_typeE1EE12create_localEv,comdat
	.align 2
	.p2align 4,,15
	.weak	_ZN3tbb10interface626enumerable_thread_specificI17thread_local_varsNS_23cache_aligned_allocatorIS2_EELNS_18ets_key_usage_typeE1EE12create_localEv
	.type	_ZN3tbb10interface626enumerable_thread_specificI17thread_local_varsNS_23cache_aligned_allocatorIS2_EELNS_18ets_key_usage_typeE1EE12create_localEv, @function
_ZN3tbb10interface626enumerable_thread_specificI17thread_local_varsNS_23cache_aligned_allocatorIS2_EELNS_18ets_key_usage_typeE1EE12create_localEv:
.LFB6649:
	.cfi_startproc
	pushq	%rbx
	.cfi_def_cfa_offset 16
	.cfi_offset 3, -16
	leaq	_ZN3tbb17concurrent_vectorINS_8internal6paddedINS_10interface68internal11ets_elementI17thread_local_varsEELm128EEENS_23cache_aligned_allocatorIS8_EEE16initialize_arrayEPvPKvm(%rip), %rcx
	movq	%rdi, %rbx
	xorl	%r8d, %r8d
	addq	$40, %rdi
	movl	$128, %edx
	subq	$16, %rsp
	.cfi_def_cfa_offset 32
	movl	$1, %esi
	call	_ZN3tbb8internal25concurrent_vector_base_v316internal_grow_byEmmPFvPvPKvmES4_@PLT
	movq	%rax, %rdx
	movl	$63, %ecx
	orq	$1, %rdx
	bsrq	%rdx, %rdx
	xorq	$63, %rdx
	movslq	%edx, %rdx
	subq	%rdx, %rcx
	movq	64(%rbx), %rdx
	movl	$1, %esi
	leaq	(%rdx,%rcx,8), %rdx
	movq	24(%rbx), %rdi
	salq	%cl, %rsi
	leaq	_ZN3tbb10interface68internal13callback_leafI17thread_local_varsNS1_17construct_by_argsIS3_JjEEEE9constructEPv(%rip), %rcx
	movq	(%rdx), %rdx
	andq	$-2, %rsi
	subq	%rsi, %rax
	salq	$7, %rax
	addq	%rdx, %rax
	movq	(%rdi), %rdx
	movq	32(%rdx), %rdx
	cmpq	%rcx, %rdx
	jne	.L45
	testq	%rax, %rax
	je	.L46
	movl	8(%rdi), %edx
	movq	$0, 8(%rax)
	movl	$0, 16(%rax)
	movq	$0, 24(%rax)
	movq	$0, 32(%rax)
	movq	$0, 40(%rax)
	movl	%edx, (%rax)
.L46:
	movb	$1, 48(%rax)
	addq	$16, %rsp
	.cfi_remember_state
	.cfi_def_cfa_offset 16
	popq	%rbx
	.cfi_def_cfa_offset 8
	ret
	.p2align 4,,10
	.p2align 3
.L45:
	.cfi_restore_state
	movq	%rax, 8(%rsp)
	movq	%rax, %rsi
	call	*%rdx
	movq	8(%rsp), %rax
	movb	$1, 48(%rax)
	addq	$16, %rsp
	.cfi_def_cfa_offset 16
	popq	%rbx
	.cfi_def_cfa_offset 8
	ret
	.cfi_endproc
.LFE6649:
	.size	_ZN3tbb10interface626enumerable_thread_specificI17thread_local_varsNS_23cache_aligned_allocatorIS2_EELNS_18ets_key_usage_typeE1EE12create_localEv, .-_ZN3tbb10interface626enumerable_thread_specificI17thread_local_varsNS_23cache_aligned_allocatorIS2_EELNS_18ets_key_usage_typeE1EE12create_localEv
	.section	.text._ZN3tbb10interface626enumerable_thread_specificI17thread_local_varsNS_23cache_aligned_allocatorIS2_EELNS_18ets_key_usage_typeE1EED0Ev,"axG",@progbits,_ZN3tbb10interface626enumerable_thread_specificI17thread_local_varsNS_23cache_aligned_allocatorIS2_EELNS_18ets_key_usage_typeE1EED5Ev,comdat
	.align 2
	.p2align 4,,15
	.weak	_ZN3tbb10interface626enumerable_thread_specificI17thread_local_varsNS_23cache_aligned_allocatorIS2_EELNS_18ets_key_usage_typeE1EED0Ev
	.type	_ZN3tbb10interface626enumerable_thread_specificI17thread_local_varsNS_23cache_aligned_allocatorIS2_EELNS_18ets_key_usage_typeE1EED0Ev, @function
_ZN3tbb10interface626enumerable_thread_specificI17thread_local_varsNS_23cache_aligned_allocatorIS2_EELNS_18ets_key_usage_typeE1EED0Ev:
.LFB6655:
	.cfi_startproc
	.cfi_personality 0x9b,DW.ref.__gxx_personality_v0
	.cfi_lsda 0x1b,.LLSDA6655
	pushq	%r15
	.cfi_def_cfa_offset 16
	.cfi_offset 15, -16
	pushq	%r14
	.cfi_def_cfa_offset 24
	.cfi_offset 14, -24
	leaq	16+_ZTVN3tbb10interface626enumerable_thread_specificI17thread_local_varsNS_23cache_aligned_allocatorIS2_EELNS_18ets_key_usage_typeE1EEE(%rip), %rax
	pushq	%r13
	.cfi_def_cfa_offset 32
	.cfi_offset 13, -32
	pushq	%r12
	.cfi_def_cfa_offset 40
	.cfi_offset 12, -40
	pushq	%rbp
	.cfi_def_cfa_offset 48
	.cfi_offset 6, -48
	pushq	%rbx
	.cfi_def_cfa_offset 56
	.cfi_offset 3, -56
	movq	%rdi, %rbp
	subq	$8, %rsp
	.cfi_def_cfa_offset 64
	movq	24(%rdi), %rbx
	movq	%rax, (%rdi)
	testq	%rbx, %rbx
	je	.L55
	movq	(%rbx), %rax
	leaq	_ZN3tbb10interface68internal13callback_leafI17thread_local_varsNS1_17construct_by_argsIS3_JjEEEE7destroyEv(%rip), %rcx
	movq	%rbx, %rdi
	movq	8(%rax), %rdx
	cmpq	%rcx, %rdx
	jne	.L53
	call	*16(%rax)
	movq	%rbx, %rdi
.LEHB0:
	call	_ZN3tbb8internal25deallocate_via_handler_v3EPv@PLT
.LEHE0:
	jmp	.L55
	.p2align 4,,10
	.p2align 3
.L71:
	movq	(%rdi), %rax
	movq	%rax, 8(%rbp)
	call	_ZN3tbb8internal8NFS_FreeEPv@PLT
.L55:
	movq	8(%rbp), %rdi
	testq	%rdi, %rdi
	jne	.L71
	movq	$0, 16(%rbp)
	leaq	40(%rbp), %r12
	movq	64(%rbp), %r14
	movq	48(%rbp), %r13
	leaq	_ZN3tbb17concurrent_vectorINS_8internal6paddedINS_10interface68internal11ets_elementI17thread_local_varsEELm128EEENS_23cache_aligned_allocatorIS8_EEE13destroy_arrayEPvm(%rip), %rsi
	movq	%r12, %rdi
	call	_ZN3tbb8internal25concurrent_vector_base_v314internal_clearEPFvPvmE@PLT
	cmpq	%rax, %r13
	jnb	.L62
	leaq	-8(%r14), %rdx
	leaq	(%rdx,%rax,8), %rbx
	leaq	(%rdx,%r13,8), %r15
	jmp	.L57
	.p2align 4,,10
	.p2align 3
.L58:
	subq	$8, %rbx
	cmpq	%r15, %rbx
	je	.L56
.L57:
	movq	(%rbx), %rdi
	movq	$0, (%rbx)
	cmpq	$63, %rdi
	jbe	.L58
	subq	$8, %rbx
	call	_ZN3tbb8internal8NFS_FreeEPv@PLT
	cmpq	%r15, %rbx
	jne	.L57
.L56:
	movq	(%r14), %rdi
	cmpq	$63, %rdi
	jbe	.L59
	testq	%r13, %r13
	je	.L60
	leaq	-8(%r14), %rdx
	leaq	(%rdx,%r13,8), %rax
	.p2align 4,,10
	.p2align 3
.L61:
	movq	$0, (%rax)
	subq	$8, %rax
	cmpq	%rax, %rdx
	jne	.L61
.L60:
	call	_ZN3tbb8internal8NFS_FreeEPv@PLT
.L59:
	movq	%r12, %rdi
	call	_ZN3tbb8internal25concurrent_vector_base_v3D2Ev@PLT
	addq	$8, %rsp
	.cfi_remember_state
	.cfi_def_cfa_offset 56
	movq	%rbp, %rdi
	movl	$96, %esi
	popq	%rbx
	.cfi_def_cfa_offset 48
	popq	%rbp
	.cfi_def_cfa_offset 40
	popq	%r12
	.cfi_def_cfa_offset 32
	popq	%r13
	.cfi_def_cfa_offset 24
	popq	%r14
	.cfi_def_cfa_offset 16
	popq	%r15
	.cfi_def_cfa_offset 8
	jmp	_ZdlPvm@PLT
	.p2align 4,,10
	.p2align 3
.L62:
	.cfi_restore_state
	movq	%rax, %r13
	jmp	.L56
	.p2align 4,,10
	.p2align 3
.L53:
	call	*%rdx
	jmp	.L55
	.cfi_endproc
.LFE6655:
	.globl	__gxx_personality_v0
	.section	.gcc_except_table._ZN3tbb10interface626enumerable_thread_specificI17thread_local_varsNS_23cache_aligned_allocatorIS2_EELNS_18ets_key_usage_typeE1EED0Ev,"aG",@progbits,_ZN3tbb10interface626enumerable_thread_specificI17thread_local_varsNS_23cache_aligned_allocatorIS2_EELNS_18ets_key_usage_typeE1EED5Ev,comdat
.LLSDA6655:
	.byte	0xff
	.byte	0xff
	.byte	0x1
	.uleb128 .LLSDACSE6655-.LLSDACSB6655
.LLSDACSB6655:
	.uleb128 .LEHB0-.LFB6655
	.uleb128 .LEHE0-.LEHB0
	.uleb128 0
	.uleb128 0
.LLSDACSE6655:
	.section	.text._ZN3tbb10interface626enumerable_thread_specificI17thread_local_varsNS_23cache_aligned_allocatorIS2_EELNS_18ets_key_usage_typeE1EED0Ev,"axG",@progbits,_ZN3tbb10interface626enumerable_thread_specificI17thread_local_varsNS_23cache_aligned_allocatorIS2_EELNS_18ets_key_usage_typeE1EED5Ev,comdat
	.size	_ZN3tbb10interface626enumerable_thread_specificI17thread_local_varsNS_23cache_aligned_allocatorIS2_EELNS_18ets_key_usage_typeE1EED0Ev, .-_ZN3tbb10interface626enumerable_thread_specificI17thread_local_varsNS_23cache_aligned_allocatorIS2_EELNS_18ets_key_usage_typeE1EED0Ev
	.section	.text._ZN3tbb10interface626enumerable_thread_specificI17thread_local_varsNS_23cache_aligned_allocatorIS2_EELNS_18ets_key_usage_typeE1EED2Ev,"axG",@progbits,_ZN3tbb10interface626enumerable_thread_specificI17thread_local_varsNS_23cache_aligned_allocatorIS2_EELNS_18ets_key_usage_typeE1EED5Ev,comdat
	.align 2
	.p2align 4,,15
	.weak	_ZN3tbb10interface626enumerable_thread_specificI17thread_local_varsNS_23cache_aligned_allocatorIS2_EELNS_18ets_key_usage_typeE1EED2Ev
	.type	_ZN3tbb10interface626enumerable_thread_specificI17thread_local_varsNS_23cache_aligned_allocatorIS2_EELNS_18ets_key_usage_typeE1EED2Ev, @function
_ZN3tbb10interface626enumerable_thread_specificI17thread_local_varsNS_23cache_aligned_allocatorIS2_EELNS_18ets_key_usage_typeE1EED2Ev:
.LFB6653:
	.cfi_startproc
	.cfi_personality 0x9b,DW.ref.__gxx_personality_v0
	.cfi_lsda 0x1b,.LLSDA6653
	pushq	%r14
	.cfi_def_cfa_offset 16
	.cfi_offset 14, -16
	pushq	%r13
	.cfi_def_cfa_offset 24
	.cfi_offset 13, -24
	leaq	16+_ZTVN3tbb10interface626enumerable_thread_specificI17thread_local_varsNS_23cache_aligned_allocatorIS2_EELNS_18ets_key_usage_typeE1EEE(%rip), %rax
	pushq	%r12
	.cfi_def_cfa_offset 32
	.cfi_offset 12, -32
	pushq	%rbp
	.cfi_def_cfa_offset 40
	.cfi_offset 6, -40
	pushq	%rbx
	.cfi_def_cfa_offset 48
	.cfi_offset 3, -48
	movq	24(%rdi), %rbp
	movq	%rdi, %rbx
	movq	%rax, (%rdi)
	testq	%rbp, %rbp
	je	.L76
	movq	0(%rbp), %rax
	leaq	_ZN3tbb10interface68internal13callback_leafI17thread_local_varsNS1_17construct_by_argsIS3_JjEEEE7destroyEv(%rip), %rcx
	movq	%rbp, %rdi
	movq	8(%rax), %rdx
	cmpq	%rcx, %rdx
	jne	.L74
	call	*16(%rax)
	movq	%rbp, %rdi
.LEHB1:
	call	_ZN3tbb8internal25deallocate_via_handler_v3EPv@PLT
.LEHE1:
	jmp	.L76
	.p2align 4,,10
	.p2align 3
.L92:
	movq	(%rdi), %rax
	movq	%rax, 8(%rbx)
	call	_ZN3tbb8internal8NFS_FreeEPv@PLT
.L76:
	movq	8(%rbx), %rdi
	testq	%rdi, %rdi
	jne	.L92
	movq	$0, 16(%rbx)
	leaq	40(%rbx), %rbp
	movq	64(%rbx), %r13
	movq	48(%rbx), %r12
	leaq	_ZN3tbb17concurrent_vectorINS_8internal6paddedINS_10interface68internal11ets_elementI17thread_local_varsEELm128EEENS_23cache_aligned_allocatorIS8_EEE13destroy_arrayEPvm(%rip), %rsi
	movq	%rbp, %rdi
	call	_ZN3tbb8internal25concurrent_vector_base_v314internal_clearEPFvPvmE@PLT
	cmpq	%rax, %r12
	jnb	.L83
	leaq	-8(%r13), %rdx
	leaq	(%rdx,%rax,8), %rbx
	leaq	(%rdx,%r12,8), %r14
	jmp	.L78
	.p2align 4,,10
	.p2align 3
.L79:
	subq	$8, %rbx
	cmpq	%r14, %rbx
	je	.L77
.L78:
	movq	(%rbx), %rdi
	movq	$0, (%rbx)
	cmpq	$63, %rdi
	jbe	.L79
	subq	$8, %rbx
	call	_ZN3tbb8internal8NFS_FreeEPv@PLT
	cmpq	%r14, %rbx
	jne	.L78
.L77:
	movq	0(%r13), %rdi
	cmpq	$63, %rdi
	jbe	.L80
	testq	%r12, %r12
	je	.L81
	leaq	-8(%r13), %rdx
	leaq	(%rdx,%r12,8), %rax
	.p2align 4,,10
	.p2align 3
.L82:
	movq	$0, (%rax)
	subq	$8, %rax
	cmpq	%rax, %rdx
	jne	.L82
.L81:
	call	_ZN3tbb8internal8NFS_FreeEPv@PLT
.L80:
	popq	%rbx
	.cfi_remember_state
	.cfi_def_cfa_offset 40
	movq	%rbp, %rdi
	popq	%rbp
	.cfi_def_cfa_offset 32
	popq	%r12
	.cfi_def_cfa_offset 24
	popq	%r13
	.cfi_def_cfa_offset 16
	popq	%r14
	.cfi_def_cfa_offset 8
	jmp	_ZN3tbb8internal25concurrent_vector_base_v3D2Ev@PLT
	.p2align 4,,10
	.p2align 3
.L83:
	.cfi_restore_state
	movq	%rax, %r12
	jmp	.L77
	.p2align 4,,10
	.p2align 3
.L74:
	call	*%rdx
	jmp	.L76
	.cfi_endproc
.LFE6653:
	.section	.gcc_except_table._ZN3tbb10interface626enumerable_thread_specificI17thread_local_varsNS_23cache_aligned_allocatorIS2_EELNS_18ets_key_usage_typeE1EED2Ev,"aG",@progbits,_ZN3tbb10interface626enumerable_thread_specificI17thread_local_varsNS_23cache_aligned_allocatorIS2_EELNS_18ets_key_usage_typeE1EED5Ev,comdat
.LLSDA6653:
	.byte	0xff
	.byte	0xff
	.byte	0x1
	.uleb128 .LLSDACSE6653-.LLSDACSB6653
.LLSDACSB6653:
	.uleb128 .LEHB1-.LFB6653
	.uleb128 .LEHE1-.LEHB1
	.uleb128 0
	.uleb128 0
.LLSDACSE6653:
	.section	.text._ZN3tbb10interface626enumerable_thread_specificI17thread_local_varsNS_23cache_aligned_allocatorIS2_EELNS_18ets_key_usage_typeE1EED2Ev,"axG",@progbits,_ZN3tbb10interface626enumerable_thread_specificI17thread_local_varsNS_23cache_aligned_allocatorIS2_EELNS_18ets_key_usage_typeE1EED5Ev,comdat
	.size	_ZN3tbb10interface626enumerable_thread_specificI17thread_local_varsNS_23cache_aligned_allocatorIS2_EELNS_18ets_key_usage_typeE1EED2Ev, .-_ZN3tbb10interface626enumerable_thread_specificI17thread_local_varsNS_23cache_aligned_allocatorIS2_EELNS_18ets_key_usage_typeE1EED2Ev
	.weak	_ZN3tbb10interface626enumerable_thread_specificI17thread_local_varsNS_23cache_aligned_allocatorIS2_EELNS_18ets_key_usage_typeE1EED1Ev
	.set	_ZN3tbb10interface626enumerable_thread_specificI17thread_local_varsNS_23cache_aligned_allocatorIS2_EELNS_18ets_key_usage_typeE1EED1Ev,_ZN3tbb10interface626enumerable_thread_specificI17thread_local_varsNS_23cache_aligned_allocatorIS2_EELNS_18ets_key_usage_typeE1EED2Ev
	.text
	.align 2
	.p2align 4,,15
	.type	_ZN3tbb10interface68internal8ets_baseILNS_18ets_key_usage_typeE1EE12table_lookupERb.constprop.128, @function
_ZN3tbb10interface68internal8ets_baseILNS_18ets_key_usage_typeE1EE12table_lookupERb.constprop.128:
.LFB6983:
	.cfi_startproc
	pushq	%r15
	.cfi_def_cfa_offset 16
	.cfi_offset 15, -16
	pushq	%r14
	.cfi_def_cfa_offset 24
	.cfi_offset 14, -24
	pushq	%r13
	.cfi_def_cfa_offset 32
	.cfi_offset 13, -32
	pushq	%r12
	.cfi_def_cfa_offset 40
	.cfi_offset 12, -40
	pushq	%rbp
	.cfi_def_cfa_offset 48
	.cfi_offset 6, -48
	pushq	%rbx
	.cfi_def_cfa_offset 56
	.cfi_offset 3, -56
	movq	%rdi, %rbp
	subq	$24, %rsp
	.cfi_def_cfa_offset 80
	call	_ZN3tbb8internal16thread_get_id_v3Ev@PLT
	movabsq	$-7046029254386353131, %rdx
	movq	%rax, %rbx
	imulq	%rax, %rdx
	movq	%rdx, %r12
	movq	8+local_thread_vars(%rip), %rdx
	testq	%rdx, %rdx
	je	.L94
	movl	$64, %r8d
	movq	$-1, %r9
.L103:
	movq	8(%rdx), %rdi
	movl	%r8d, %ecx
	movq	%r12, %rax
	subl	%edi, %ecx
	shrq	%cl, %rax
	addq	$1, %rax
	movq	%rax, %rcx
	salq	$4, %rcx
	addq	%rdx, %rcx
	movq	(%rcx), %rsi
	testq	%rsi, %rsi
	je	.L95
	cmpq	%rsi, %rbx
	je	.L96
	movl	%edi, %ecx
	movq	%r9, %rsi
	salq	%cl, %rsi
	movq	%rsi, %rdi
	notq	%rdi
	jmp	.L98
	.p2align 4,,10
	.p2align 3
.L102:
	cmpq	%rsi, %rbx
	je	.L96
.L98:
	andq	%rdi, %rax
	addq	$1, %rax
	movq	%rax, %rcx
	salq	$4, %rcx
	addq	%rdx, %rcx
	movq	(%rcx), %rsi
	testq	%rsi, %rsi
	jne	.L102
.L95:
	movq	(%rdx), %rdx
	testq	%rdx, %rdx
	jne	.L103
.L94:
	leaq	_ZN3tbb17concurrent_vectorINS_8internal6paddedINS_10interface68internal11ets_elementI17thread_local_varsEELm128EEENS_23cache_aligned_allocatorIS8_EEE16initialize_arrayEPvPKvm(%rip), %rcx
	leaq	40+local_thread_vars(%rip), %rdi
	movb	$0, 0(%rbp)
	xorl	%r8d, %r8d
	movl	$128, %edx
	movl	$1, %esi
	call	_ZN3tbb8internal25concurrent_vector_base_v316internal_grow_byEmmPFvPvPKvmES4_@PLT
	movq	%rax, %rdx
	movl	$63, %ecx
	orq	$1, %rdx
	bsrq	%rdx, %rdx
	xorq	$63, %rdx
	movslq	%edx, %rdx
	subq	%rdx, %rcx
	movq	64+local_thread_vars(%rip), %rdx
	movl	$1, %esi
	leaq	(%rdx,%rcx,8), %rdx
	movq	24+local_thread_vars(%rip), %rdi
	salq	%cl, %rsi
	movq	(%rdx), %rdx
	andq	$-2, %rsi
	subq	%rsi, %rax
	salq	$7, %rax
	leaq	(%rdx,%rax), %r13
	movq	(%rdi), %rax
	leaq	_ZN3tbb10interface68internal13callback_leafI17thread_local_varsNS1_17construct_by_argsIS3_JjEEEE9constructEPv(%rip), %rdx
	movq	%r13, %rbp
	movq	32(%rax), %rax
	cmpq	%rdx, %rax
	jne	.L104
	testq	%r13, %r13
	je	.L105
	movl	8(%rdi), %eax
	movq	$0, 8(%r13)
	movl	$0, 16(%r13)
	movq	$0, 24(%r13)
	movq	$0, 32(%r13)
	movq	$0, 40(%r13)
	movl	%eax, 0(%r13)
.L105:
	movb	$1, 48(%r13)
	movl	$1, %esi
	lock xaddq	%rsi, 16+local_thread_vars(%rip)
	movq	8+local_thread_vars(%rip), %r13
	addq	$1, %rsi
	testq	%r13, %r13
	je	.L112
	movq	8(%r13), %r14
	movl	$1, %edx
	movq	%rdx, %rax
	movl	%r14d, %ecx
	movl	%r14d, %r8d
	salq	%cl, %rax
	movq	%rax, %rcx
	shrq	%rcx
	cmpq	%rcx, %rsi
	jbe	.L101
	leal	-1(%r14), %ecx
	salq	%cl, %rdx
.L106:
	cmpq	%rdx, %rsi
	jbe	.L107
	movl	$1, %eax
	.p2align 4,,10
	.p2align 3
.L108:
	addq	$1, %r14
	movq	%rax, %rdx
	leal	-1(%r14), %ecx
	movl	%r14d, %r8d
	salq	%cl, %rdx
	cmpq	%rdx, %rsi
	ja	.L108
	movl	%r14d, %ecx
	salq	%cl, %rax
.L107:
	salq	$4, %rax
	xorl	%edx, %edx
	movl	$8, %esi
	leaq	23(%rax), %rdi
	movl	%r8d, 12(%rsp)
	shrq	$3, %rdi
	call	_ZN3tbb8internal12NFS_AllocateEmmPv@PLT
	movl	12(%rsp), %r8d
	movl	$16, %edx
	leaq	16(%rax), %rdi
	movq	%r14, 8(%rax)
	xorl	%esi, %esi
	movq	%rax, %r15
	movl	%r8d, %ecx
	salq	%cl, %rdx
	call	memset@PLT
	.p2align 4,,10
	.p2align 3
.L109:
	movq	%r13, %rax
	movq	%r13, (%r15)
	lock cmpxchgq	%r15, 8+local_thread_vars(%rip)
	cmpq	%rax, %r13
	je	.L101
	cmpq	%r14, 8(%rax)
	movq	%rax, %r13
	jb	.L109
	movq	%r15, %rdi
	call	_ZN3tbb8internal8NFS_FreeEPv@PLT
	jmp	.L101
	.p2align 4,,10
	.p2align 3
.L96:
	movq	8+local_thread_vars(%rip), %rax
	cmpq	%rax, %rdx
	movb	$1, 0(%rbp)
	movq	8(%rcx), %rbp
	je	.L93
.L101:
	movq	8+local_thread_vars(%rip), %rdi
	movq	8(%rdi), %rax
	movl	$64, %ecx
	movq	%r12, %rdx
	movq	$-1, %rsi
	xorl	%r8d, %r8d
	subl	%eax, %ecx
	shrq	%cl, %rdx
	movl	%eax, %ecx
	salq	%cl, %rsi
	notq	%rsi
	jmp	.L111
	.p2align 4,,10
	.p2align 3
.L110:
	andq	%rsi, %rdx
.L111:
	addq	$1, %rdx
	movq	%rdx, %rcx
	salq	$4, %rcx
	addq	%rdi, %rcx
	cmpq	$0, (%rcx)
	jne	.L110
	movq	%r8, %rax
	lock cmpxchgq	%rbx, (%rcx)
	testq	%rax, %rax
	jne	.L110
	movq	%rbp, 8(%rcx)
.L93:
	addq	$24, %rsp
	.cfi_remember_state
	.cfi_def_cfa_offset 56
	movq	%rbp, %rax
	popq	%rbx
	.cfi_def_cfa_offset 48
	popq	%rbp
	.cfi_def_cfa_offset 40
	popq	%r12
	.cfi_def_cfa_offset 32
	popq	%r13
	.cfi_def_cfa_offset 24
	popq	%r14
	.cfi_def_cfa_offset 16
	popq	%r15
	.cfi_def_cfa_offset 8
	ret
.L112:
	.cfi_restore_state
	movl	$4, %eax
	movl	$2, %r8d
	movl	$2, %edx
	movl	$2, %r14d
	jmp	.L106
.L104:
	movq	%r13, %rsi
	call	*%rax
	jmp	.L105
	.cfi_endproc
.LFE6983:
	.size	_ZN3tbb10interface68internal8ets_baseILNS_18ets_key_usage_typeE1EE12table_lookupERb.constprop.128, .-_ZN3tbb10interface68internal8ets_baseILNS_18ets_key_usage_typeE1EE12table_lookupERb.constprop.128
	.section	.text._ZN3tbb10interface98internal9start_forINS_13blocked_rangeIN9__gnu_cxx17__normal_iteratorIP14tear_down_taskSt6vectorIS6_SaIS6_EEEEEENS_8internal26parallel_for_each_body_forI7invokerIS6_ESB_EEKNS_16auto_partitionerEE7executeEv,"axG",@progbits,_ZN3tbb10interface98internal9start_forINS_13blocked_rangeIN9__gnu_cxx17__normal_iteratorIP14tear_down_taskSt6vectorIS6_SaIS6_EEEEEENS_8internal26parallel_for_each_body_forI7invokerIS6_ESB_EEKNS_16auto_partitionerEE7executeEv,comdat
	.align 2
	.p2align 4,,15
	.weak	_ZN3tbb10interface98internal9start_forINS_13blocked_rangeIN9__gnu_cxx17__normal_iteratorIP14tear_down_taskSt6vectorIS6_SaIS6_EEEEEENS_8internal26parallel_for_each_body_forI7invokerIS6_ESB_EEKNS_16auto_partitionerEE7executeEv
	.type	_ZN3tbb10interface98internal9start_forINS_13blocked_rangeIN9__gnu_cxx17__normal_iteratorIP14tear_down_taskSt6vectorIS6_SaIS6_EEEEEENS_8internal26parallel_for_each_body_forI7invokerIS6_ESB_EEKNS_16auto_partitionerEE7executeEv, @function
_ZN3tbb10interface98internal9start_forINS_13blocked_rangeIN9__gnu_cxx17__normal_iteratorIP14tear_down_taskSt6vectorIS6_SaIS6_EEEEEENS_8internal26parallel_for_each_body_forI7invokerIS6_ESB_EEKNS_16auto_partitionerEE7executeEv:
.LFB6640:
	.cfi_startproc
	.cfi_personality 0x9b,DW.ref.__gxx_personality_v0
	.cfi_lsda 0x1b,.LLSDA6640
	pushq	%r15
	.cfi_def_cfa_offset 16
	.cfi_offset 15, -16
	pushq	%r14
	.cfi_def_cfa_offset 24
	.cfi_offset 14, -24
	pushq	%r13
	.cfi_def_cfa_offset 32
	.cfi_offset 13, -32
	pushq	%r12
	.cfi_def_cfa_offset 40
	.cfi_offset 12, -40
	pushq	%rbp
	.cfi_def_cfa_offset 48
	.cfi_offset 6, -48
	pushq	%rbx
	.cfi_def_cfa_offset 56
	.cfi_offset 3, -56
	movq	%rdi, %rbx
	subq	$264, %rsp
	.cfi_def_cfa_offset 320
	movq	%fs:40, %rax
	movq	%rax, 248(%rsp)
	xorl	%eax, %eax
	cmpq	$0, 40(%rdi)
	jne	.L129
	cmpb	$0, -11(%rdi)
	movq	$1, 40(%rdi)
	js	.L203
.L130:
	movq	8(%rbx), %rax
	movq	16(%rbx), %rdx
	movq	%rax, %rcx
	subq	%rdx, %rcx
	cmpq	24(%rbx), %rcx
	ja	.L162
.L163:
	cmpq	%rdx, %rax
	je	.L158
	subq	%rdx, %rax
	leaq	31(%rsp), %r13
	xorl	%ebp, %ebp
	movq	%rax, %rbx
	.p2align 4,,10
	.p2align 3
.L142:
	movq	%r13, %rdi
	addq	$1, %rbp
.LEHB2:
	call	_ZN3tbb10interface68internal8ets_baseILNS_18ets_key_usage_typeE1EE12table_lookupERb.constprop.128
	movq	24(%rax), %rdi
	movq	%rax, %r12
	call	free@PLT
	movq	40(%r12), %rdi
	call	free@PLT
	cmpq	%rbp, %rbx
	jne	.L142
.L158:
	xorl	%eax, %eax
	movq	248(%rsp), %rbx
	xorq	%fs:40, %rbx
	jne	.L204
	addq	$264, %rsp
	.cfi_remember_state
	.cfi_def_cfa_offset 56
	popq	%rbx
	.cfi_def_cfa_offset 48
	popq	%rbp
	.cfi_def_cfa_offset 40
	popq	%r12
	.cfi_def_cfa_offset 32
	popq	%r13
	.cfi_def_cfa_offset 24
	popq	%r14
	.cfi_def_cfa_offset 16
	popq	%r15
	.cfi_def_cfa_offset 8
	ret
	.p2align 4,,10
	.p2align 3
.L203:
	.cfi_restore_state
	movq	-32(%rdi), %rax
	cmpl	$1, -24(%rax)
	jle	.L130
	movb	$1, 8(%rax)
	movzbl	52(%rdi), %edx
	leal	1(%rdx), %eax
	testb	%dl, %dl
	movl	$2, %edx
	cmove	%edx, %eax
	movb	%al, 52(%rdi)
	.p2align 4,,10
	.p2align 3
.L129:
	movq	8(%rbx), %rax
	movq	16(%rbx), %rdx
	movq	%rax, %rcx
	subq	%rdx, %rcx
	cmpq	%rcx, 24(%rbx)
	jnb	.L163
	movq	40(%rbx), %rcx
	cmpq	$1, %rcx
	jbe	.L205
.L133:
	leaq	16+_ZTVN3tbb10interface98internal9flag_taskE(%rip), %rbp
	leaq	16+_ZTVN3tbb10interface98internal9start_forINS_13blocked_rangeIN9__gnu_cxx17__normal_iteratorIP14tear_down_taskSt6vectorIS6_SaIS6_EEEEEENS_8internal26parallel_for_each_body_forI7invokerIS6_ESB_EEKNS_16auto_partitionerEEE(%rip), %r12
	jmp	.L137
	.p2align 4,,10
	.p2align 3
.L207:
	movq	40(%rbx), %rcx
	cmpq	$1, %rcx
	jbe	.L206
.L137:
	movl	$16, %esi
	movq	%rbx, %rdi
	call	_ZNK3tbb8internal27allocate_continuation_proxy8allocateEm@PLT
	movb	$1, -11(%rax)
	movq	%rbp, (%rax)
	movl	$56, %esi
	movb	$0, 8(%rax)
	movq	%rax, %rdi
	movq	%rax, -32(%rbx)
	movq	$2, -24(%rax)
	call	_ZNK3tbb8internal20allocate_child_proxy8allocateEm@PLT
	testq	%rax, %rax
	je	.L136
	movb	$1, -11(%rax)
	movq	8(%rbx), %rdx
	movq	%r12, (%rax)
	movq	%rdx, 8(%rax)
	movq	16(%rbx), %rcx
	movq	8(%rbx), %rsi
	subq	%rcx, %rsi
	movq	%rsi, %rdx
	shrq	$63, %rdx
	addq	%rsi, %rdx
	sarq	%rdx
	addq	%rcx, %rdx
	movq	%rdx, 8(%rbx)
	movq	%rdx, 16(%rax)
	movq	24(%rbx), %rdx
	movq	%rdx, 24(%rax)
	movq	32(%rbx), %rdx
	movq	%rdx, 32(%rax)
	movq	40(%rbx), %rdx
	shrq	%rdx
	movq	%rdx, 40(%rbx)
	movq	%rdx, 40(%rax)
	movl	$2, 48(%rax)
	movzbl	52(%rbx), %edx
	movb	%dl, 52(%rax)
.L136:
	movq	-40(%rax), %rdi
	leaq	-8(%rax), %rdx
	movq	%rax, %rsi
	movq	(%rdi), %rcx
	call	*(%rcx)
.LEHE2:
	movq	8(%rbx), %rax
	movq	16(%rbx), %rdx
	movq	%rax, %rcx
	subq	%rdx, %rcx
	cmpq	%rcx, 24(%rbx)
	jb	.L207
	jmp	.L163
	.p2align 4,,10
	.p2align 3
.L206:
	testq	%rcx, %rcx
	movzbl	52(%rbx), %edi
	je	.L134
	testb	%dil, %dil
	je	.L163
	subl	$1, %edi
	movq	$0, 40(%rbx)
	movb	%dil, 52(%rbx)
	jmp	.L137
.L205:
	testq	%rcx, %rcx
	movzbl	52(%rbx), %edi
	jne	.L162
.L134:
	testb	%dil, %dil
	je	.L163
	movdqu	8(%rbx), %xmm0
	leaq	48(%rsp), %rbp
	movl	$1, %r14d
	movq	24(%rbx), %rax
	movl	$65536, 32(%rsp)
	movaps	%xmm0, 48(%rsp)
	movq	%rax, 64(%rsp)
	.p2align 4,,10
	.p2align 3
.L141:
	cmpb	$7, %r14b
	ja	.L146
	movzbl	32(%rsp), %eax
	movslq	%eax, %r8
	cmpb	%dil, 35(%rsp,%r8)
	jnb	.L146
	leaq	(%rax,%rax,2), %rdx
	leaq	0(%rbp,%rdx,8), %rdx
	movq	(%rdx), %rcx
	subq	8(%rdx), %rcx
	cmpq	16(%rdx), %rcx
	ja	.L147
	jmp	.L146
	.p2align 4,,10
	.p2align 3
.L149:
	cmpb	%dil, %dl
	jnb	.L146
	leaq	(%rcx,%rcx,2), %rdx
	leaq	0(%rbp,%rdx,8), %rdx
	movq	(%rdx), %rcx
	subq	8(%rdx), %rcx
	cmpq	%rcx, 16(%rdx)
	jnb	.L146
.L147:
	addl	$1, %eax
	andl	$7, %eax
	movl	%eax, %ecx
	movb	%al, 32(%rsp)
	cltq
	leaq	(%rax,%rax,2), %rax
	leaq	0(%rbp,%rax,8), %rax
	testq	%rax, %rax
	je	.L148
	movdqu	(%rdx), %xmm0
	movups	%xmm0, (%rax)
	movq	16(%rdx), %rcx
	movq	%rcx, 16(%rax)
	movzbl	32(%rsp), %ecx
.L148:
	movzbl	%cl, %eax
	leaq	(%rax,%rax,2), %rax
	leaq	0(%rbp,%rax,8), %rax
	movq	(%rax), %rcx
	movq	%rcx, (%rdx)
	movq	8(%rax), %rsi
	movq	(%rax), %r9
	subq	%rsi, %r9
	movq	%r9, %rcx
	shrq	$63, %rcx
	addq	%r9, %rcx
	sarq	%rcx
	addq	%rsi, %rcx
	movq	%rcx, (%rax)
	movq	%rcx, 8(%rdx)
	movq	16(%rax), %rax
	movzbl	34(%rsp), %esi
	movzbl	32(%rsp), %ecx
	movq	%rax, 16(%rdx)
	movzbl	35(%rsp,%r8), %eax
	addl	$1, %esi
	cmpb	$7, %sil
	movb	%sil, 34(%rsp)
	leal	1(%rax), %edx
	movb	%dl, 35(%rsp,%r8)
	movzbl	%cl, %r8d
	movq	%r8, %rax
	movb	%dl, 35(%rsp,%r8)
	jbe	.L149
.L146:
	movq	-32(%rbx), %rax
	movzbl	8(%rax), %eax
	testb	%al, %al
	je	.L208
	movzbl	52(%rbx), %eax
	movzbl	34(%rsp), %r14d
	addl	$1, %eax
	cmpb	$1, %r14b
	movb	%al, 52(%rbx)
	ja	.L209
	movzbl	32(%rsp), %edx
	movq	%rdx, %rsi
	movb	%dl, 15(%rsp)
	leaq	(%rdx,%rdx,2), %rdx
	movzbl	%sil, %ecx
	leaq	0(%rbp,%rdx,8), %rdx
	cmpb	35(%rsp,%rcx), %al
	movq	(%rdx), %rdi
	movq	8(%rdx), %r12
	movq	%rdi, (%rsp)
	jbe	.L150
	movq	%rdi, %rax
	subq	%r12, %rax
	cmpq	%rax, 16(%rdx)
	jb	.L153
.L150:
	cmpq	%r12, (%rsp)
	je	.L154
	leaq	31(%rsp), %r13
	.p2align 4,,10
	.p2align 3
.L155:
	movq	%r13, %rdi
.LEHB3:
	call	_ZN3tbb10interface68internal8ets_baseILNS_18ets_key_usage_typeE1EE12table_lookupERb.constprop.128
	movq	24(%rax), %rdi
	movq	%rax, %r15
	addq	$1, %r12
	call	free@PLT
	movq	40(%r15), %rdi
	call	free@PLT
	cmpq	%r12, (%rsp)
	jne	.L155
.L154:
	movzbl	15(%rsp), %eax
	subl	$1, %r14d
	movb	%r14b, 34(%rsp)
	addl	$7, %eax
	andl	$7, %eax
	movb	%al, 32(%rsp)
.L153:
	testb	%r14b, %r14b
	je	.L158
	movq	-56(%rbx), %rdi
	call	_ZNK3tbb18task_group_context28is_group_execution_cancelledEv@PLT
	testb	%al, %al
	jne	.L158
	movzbl	52(%rbx), %edi
	jmp	.L141
	.p2align 4,,10
	.p2align 3
.L208:
	movzbl	32(%rsp), %eax
	movzbl	34(%rsp), %r14d
	movb	%al, 15(%rsp)
	leaq	(%rax,%rax,2), %rax
	leaq	0(%rbp,%rax,8), %rax
	movq	(%rax), %rsi
	movq	8(%rax), %r12
	movq	%rsi, (%rsp)
	jmp	.L150
	.p2align 4,,10
	.p2align 3
.L209:
	movzbl	33(%rsp), %eax
	movl	$16, %esi
	movq	%rbx, %rdi
	movq	%rax, %r12
	movzbl	35(%rsp,%rax), %r13d
	call	_ZNK3tbb8internal27allocate_continuation_proxy8allocateEm@PLT
	leaq	16+_ZTVN3tbb10interface98internal9flag_taskE(%rip), %rdi
	movb	$1, -11(%rax)
	movq	%rdi, (%rax)
	movl	$56, %esi
	movb	$0, 8(%rax)
	movq	%rax, %rdi
	movq	%rax, -32(%rbx)
	movq	$2, -24(%rax)
	call	_ZNK3tbb8internal20allocate_child_proxy8allocateEm@PLT
	testq	%rax, %rax
	je	.L152
	leaq	(%r12,%r12,2), %rdx
	movb	$1, -11(%rax)
	leaq	16+_ZTVN3tbb10interface98internal9start_forINS_13blocked_rangeIN9__gnu_cxx17__normal_iteratorIP14tear_down_taskSt6vectorIS6_SaIS6_EEEEEENS_8internal26parallel_for_each_body_forI7invokerIS6_ESB_EEKNS_16auto_partitionerEEE(%rip), %rsi
	salq	$3, %rdx
	movq	%rsi, (%rax)
	movdqu	48(%rsp,%rdx), %xmm0
	movq	64(%rsp,%rdx), %rdx
	movups	%xmm0, 8(%rax)
	movq	%rdx, 24(%rax)
	movq	32(%rbx), %rdx
	movq	%rdx, 32(%rax)
	movq	40(%rbx), %rdx
	shrq	%rdx
	movq	%rdx, 40(%rbx)
	movq	%rdx, 40(%rax)
	movl	$2, 48(%rax)
	movzbl	52(%rbx), %edx
	subl	%r13d, %edx
	movb	%dl, 52(%rax)
.L152:
	movq	-40(%rax), %rdi
	leaq	-8(%rax), %rdx
	movq	%rax, %rsi
	movq	(%rdi), %rcx
	call	*(%rcx)
.LEHE3:
	movzbl	34(%rsp), %eax
	leal	-1(%rax), %r14d
	movzbl	33(%rsp), %eax
	movb	%r14b, 34(%rsp)
	addl	$1, %eax
	andl	$7, %eax
	movb	%al, 33(%rsp)
	jmp	.L153
	.p2align 4,,10
	.p2align 3
.L162:
	movzbl	52(%rbx), %ecx
	testb	%cl, %cl
	je	.L163
	subl	$1, %ecx
	movq	$0, 40(%rbx)
	movb	%cl, 52(%rbx)
	jmp	.L133
.L204:
	call	__stack_chk_fail@PLT
.L167:
.L161:
	movzbl	34(%rsp), %edx
	testb	%dl, %dl
	je	.L160
	subl	$1, %edx
	movb	%dl, 34(%rsp)
	jmp	.L161
.L160:
	movq	%rax, %rdi
.LEHB4:
	call	_Unwind_Resume@PLT
.LEHE4:
	.cfi_endproc
.LFE6640:
	.section	.gcc_except_table._ZN3tbb10interface98internal9start_forINS_13blocked_rangeIN9__gnu_cxx17__normal_iteratorIP14tear_down_taskSt6vectorIS6_SaIS6_EEEEEENS_8internal26parallel_for_each_body_forI7invokerIS6_ESB_EEKNS_16auto_partitionerEE7executeEv,"aG",@progbits,_ZN3tbb10interface98internal9start_forINS_13blocked_rangeIN9__gnu_cxx17__normal_iteratorIP14tear_down_taskSt6vectorIS6_SaIS6_EEEEEENS_8internal26parallel_for_each_body_forI7invokerIS6_ESB_EEKNS_16auto_partitionerEE7executeEv,comdat
.LLSDA6640:
	.byte	0xff
	.byte	0xff
	.byte	0x1
	.uleb128 .LLSDACSE6640-.LLSDACSB6640
.LLSDACSB6640:
	.uleb128 .LEHB2-.LFB6640
	.uleb128 .LEHE2-.LEHB2
	.uleb128 0
	.uleb128 0
	.uleb128 .LEHB3-.LFB6640
	.uleb128 .LEHE3-.LEHB3
	.uleb128 .L167-.LFB6640
	.uleb128 0
	.uleb128 .LEHB4-.LFB6640
	.uleb128 .LEHE4-.LEHB4
	.uleb128 0
	.uleb128 0
.LLSDACSE6640:
	.section	.text._ZN3tbb10interface98internal9start_forINS_13blocked_rangeIN9__gnu_cxx17__normal_iteratorIP14tear_down_taskSt6vectorIS6_SaIS6_EEEEEENS_8internal26parallel_for_each_body_forI7invokerIS6_ESB_EEKNS_16auto_partitionerEE7executeEv,"axG",@progbits,_ZN3tbb10interface98internal9start_forINS_13blocked_rangeIN9__gnu_cxx17__normal_iteratorIP14tear_down_taskSt6vectorIS6_SaIS6_EEEEEENS_8internal26parallel_for_each_body_forI7invokerIS6_ESB_EEKNS_16auto_partitionerEE7executeEv,comdat
	.size	_ZN3tbb10interface98internal9start_forINS_13blocked_rangeIN9__gnu_cxx17__normal_iteratorIP14tear_down_taskSt6vectorIS6_SaIS6_EEEEEENS_8internal26parallel_for_each_body_forI7invokerIS6_ESB_EEKNS_16auto_partitionerEE7executeEv, .-_ZN3tbb10interface98internal9start_forINS_13blocked_rangeIN9__gnu_cxx17__normal_iteratorIP14tear_down_taskSt6vectorIS6_SaIS6_EEEEEENS_8internal26parallel_for_each_body_forI7invokerIS6_ESB_EEKNS_16auto_partitionerEE7executeEv
	.section	.rodata._ZN3tbb10interface98internal9start_forINS_13blocked_rangeIN9__gnu_cxx17__normal_iteratorIP11access_taskSt6vectorIS6_SaIS6_EEEEEENS_8internal26parallel_for_each_body_forI7invokerIS6_ESB_EEKNS_16auto_partitionerEE7executeEv.str1.1,"aMS",@progbits,1
.LC0:
	.string	"start"
.LC1:
	.string	"end"
	.section	.text._ZN3tbb10interface98internal9start_forINS_13blocked_rangeIN9__gnu_cxx17__normal_iteratorIP11access_taskSt6vectorIS6_SaIS6_EEEEEENS_8internal26parallel_for_each_body_forI7invokerIS6_ESB_EEKNS_16auto_partitionerEE7executeEv,"axG",@progbits,_ZN3tbb10interface98internal9start_forINS_13blocked_rangeIN9__gnu_cxx17__normal_iteratorIP11access_taskSt6vectorIS6_SaIS6_EEEEEENS_8internal26parallel_for_each_body_forI7invokerIS6_ESB_EEKNS_16auto_partitionerEE7executeEv,comdat
	.align 2
	.p2align 4,,15
	.weak	_ZN3tbb10interface98internal9start_forINS_13blocked_rangeIN9__gnu_cxx17__normal_iteratorIP11access_taskSt6vectorIS6_SaIS6_EEEEEENS_8internal26parallel_for_each_body_forI7invokerIS6_ESB_EEKNS_16auto_partitionerEE7executeEv
	.type	_ZN3tbb10interface98internal9start_forINS_13blocked_rangeIN9__gnu_cxx17__normal_iteratorIP11access_taskSt6vectorIS6_SaIS6_EEEEEENS_8internal26parallel_for_each_body_forI7invokerIS6_ESB_EEKNS_16auto_partitionerEE7executeEv, @function
_ZN3tbb10interface98internal9start_forINS_13blocked_rangeIN9__gnu_cxx17__normal_iteratorIP11access_taskSt6vectorIS6_SaIS6_EEEEEENS_8internal26parallel_for_each_body_forI7invokerIS6_ESB_EEKNS_16auto_partitionerEE7executeEv:
.LFB6642:
	.cfi_startproc
	.cfi_personality 0x9b,DW.ref.__gxx_personality_v0
	.cfi_lsda 0x1b,.LLSDA6642
	pushq	%r15
	.cfi_def_cfa_offset 16
	.cfi_offset 15, -16
	pushq	%r14
	.cfi_def_cfa_offset 24
	.cfi_offset 14, -24
	pushq	%r13
	.cfi_def_cfa_offset 32
	.cfi_offset 13, -32
	pushq	%r12
	.cfi_def_cfa_offset 40
	.cfi_offset 12, -40
	movq	%rdi, %r12
	pushq	%rbp
	.cfi_def_cfa_offset 48
	.cfi_offset 6, -48
	pushq	%rbx
	.cfi_def_cfa_offset 56
	.cfi_offset 3, -56
	subq	$280, %rsp
	.cfi_def_cfa_offset 336
	movq	%fs:40, %rax
	movq	%rax, 264(%rsp)
	xorl	%eax, %eax
	cmpq	$0, 40(%rdi)
	jne	.L211
	cmpb	$0, -11(%rdi)
	movq	$1, 40(%rdi)
	js	.L302
.L212:
	movq	8(%r12), %rbx
	movq	16(%r12), %rax
	movq	%rbx, %rdx
	subq	%rax, %rdx
	cmpq	24(%r12), %rdx
	ja	.L249
.L250:
	cmpq	%rax, %rbx
	je	.L245
	leaq	47(%rsp), %r13
	subq	%rax, %rbx
	xorl	%ebp, %ebp
.L226:
	movq	%r13, %rdi
.LEHB5:
	call	_ZN3tbb10interface68internal8ets_baseILNS_18ets_key_usage_typeE1EE12table_lookupERb.constprop.128
	movl	16(%rax), %r15d
	leaq	.LC0(%rip), %rdi
	movq	24(%rax), %r12
	movq	40(%rax), %r14
	call	puts@PLT
	

	testl	%r15d, %r15d
	je	.L223
	leal	-1(%r15), %eax
	movl	$73, %esi
	leaq	8(%r14,%rax,8), %rcx
	.p2align 4,,10
	.p2align 3
.L225:
	movq	%r14, %rax
	.p2align 4,,10
	.p2align 3
.L224: # inner loop
	movq	(%rax), %rdx		# heap - read offset
	addq	$8, %rax
	addq	%r12, %rdx		# buffer + offset
	cmpq	%rcx, %rax
	movq	(%rdx), %rdx		# heap - read from buffer
	jne	.L224
	subl	$1, %esi
	jne	.L225
.L223:
	leaq	.LC1(%rip), %rdi
	addq	$1, %rbp
	


	call	puts@PLT
.LEHE5:
	cmpq	%rbp, %rbx
	jne	.L226
.L245:
	xorl	%eax, %eax
	movq	264(%rsp), %rdi
	xorq	%fs:40, %rdi
	jne	.L303
	addq	$280, %rsp
	.cfi_remember_state
	.cfi_def_cfa_offset 56
	popq	%rbx
	.cfi_def_cfa_offset 48
	popq	%rbp
	.cfi_def_cfa_offset 40
	popq	%r12
	.cfi_def_cfa_offset 32
	popq	%r13
	.cfi_def_cfa_offset 24
	popq	%r14
	.cfi_def_cfa_offset 16
	popq	%r15
	.cfi_def_cfa_offset 8
	ret
.L308:
	.cfi_restore_state
	testq	%rdx, %rdx
	je	.L216
.L249:
	movzbl	52(%r12), %edx
	testb	%dl, %dl
	je	.L216
	subl	$1, %edx
	movq	$0, 40(%r12)
	movb	%dl, 52(%r12)
	jmp	.L215
	.p2align 4,,10
	.p2align 3
.L216:
	movzbl	52(%r12), %r9d
	testb	%r9b, %r9b
	je	.L250
	movq	24(%r12), %rax
	movl	$65536, 48(%rsp)
	movl	$1, %r13d
	movdqu	8(%r12), %xmm0
	movq	%rax, 80(%rsp)
	leaq	48(%rsp), %rax
	movaps	%xmm0, 64(%rsp)
	movq	%rax, 8(%rsp)
	leaq	47(%rsp), %rax
	movq	%rax, 24(%rsp)
.L222:
	cmpb	$7, %r13b
	ja	.L230
	movzbl	48(%rsp), %eax
	movslq	%eax, %rdi
	cmpb	%r9b, 51(%rsp,%rdi)
	jnb	.L230
	movq	8(%rsp), %rsi
	leaq	(%rax,%rax,2), %rdx
	leaq	16(%rsi), %r8
	leaq	(%r8,%rdx,8), %rcx
	movq	(%rcx), %rdx
	subq	8(%rcx), %rdx
	cmpq	16(%rcx), %rdx
	ja	.L231
	jmp	.L230
	.p2align 4,,10
	.p2align 3
.L233:
	cmpb	%r9b, %dl
	jnb	.L230
	leaq	(%rcx,%rcx,2), %rdx
	leaq	(%r8,%rdx,8), %rcx
	movq	(%rcx), %rdx
	subq	8(%rcx), %rdx
	cmpq	%rdx, 16(%rcx)
	jnb	.L230
.L231:
	addl	$1, %eax
	andl	$7, %eax
	movl	%eax, %edx
	movb	%al, 48(%rsp)
	cltq
	leaq	(%rax,%rax,2), %rax
	leaq	(%r8,%rax,8), %rax
	testq	%rax, %rax
	je	.L232
	movdqu	(%rcx), %xmm0
	movups	%xmm0, (%rax)
	movq	16(%rcx), %rdx
	movq	%rdx, 16(%rax)
	movzbl	48(%rsp), %edx
.L232:
	movzbl	%dl, %eax
	leaq	(%rax,%rax,2), %rax
	leaq	(%r8,%rax,8), %rax
	movq	(%rax), %rdx
	movq	%rdx, (%rcx)
	movq	(%rax), %r10
	movq	8(%rax), %rdx
	subq	%rdx, %r10
	movq	%r10, %rsi
	shrq	$63, %rsi
	addq	%r10, %rsi
	sarq	%rsi
	addq	%rsi, %rdx
	movq	%rdx, (%rax)
	movq	%rdx, 8(%rcx)
	movq	16(%rax), %rax
	movzbl	50(%rsp), %esi
	movq	%rax, 16(%rcx)
	movzbl	51(%rsp,%rdi), %eax
	movzbl	48(%rsp), %ecx
	addl	$1, %esi
	cmpb	$7, %sil
	movb	%sil, 50(%rsp)
	leal	1(%rax), %edx
	movb	%dl, 51(%rsp,%rdi)
	movzbl	%cl, %edi
	movq	%rdi, %rax
	movb	%dl, 51(%rsp,%rdi)
	jbe	.L233
.L230:
	movq	-32(%r12), %rax
	movzbl	8(%rax), %eax
	testb	%al, %al
	je	.L304
	movzbl	52(%r12), %eax
	movzbl	50(%rsp), %r13d
	addl	$1, %eax
	cmpb	$1, %r13b
	movb	%al, 52(%r12)
	ja	.L305
	movzbl	48(%rsp), %edx
	movq	8(%rsp), %rdi
	movq	%rdx, %r15
	leaq	(%rdx,%rdx,2), %rdx
	movzbl	%r15b, %ecx
	leaq	16(%rdi,%rdx,8), %rdx
	cmpb	51(%rsp,%rcx), %al
	movq	(%rdx), %rdi
	movq	8(%rdx), %r14
	movq	%rdi, (%rsp)
	jbe	.L301
	movq	%rdi, %rax
	subq	%r14, %rax
	cmpq	%rax, 16(%rdx)
	jnb	.L301
.L237:
	testb	%r13b, %r13b
	je	.L245
	movq	-56(%r12), %rdi
.LEHB6:
	call	_ZNK3tbb18task_group_context28is_group_execution_cancelledEv@PLT
	testb	%al, %al
	jne	.L245
	movzbl	52(%r12), %r9d
	jmp	.L222
	.p2align 4,,10
	.p2align 3
.L307:
	subl	$1, %esi
	jne	.L241
.L239:
	leaq	.LC1(%rip), %rdi
	call	puts@PLT
	addq	$1, %r14
.L301:
	cmpq	%r14, (%rsp)
	je	.L306
	movq	24(%rsp), %rdi
	call	_ZN3tbb10interface68internal8ets_baseILNS_18ets_key_usage_typeE1EE12table_lookupERb.constprop.128
	movq	24(%rax), %rbx
	movq	40(%rax), %rbp
	leaq	.LC0(%rip), %rdi
	movl	16(%rax), %eax
	movl	%eax, 20(%rsp)
	call	puts@PLT
	movl	20(%rsp), %eax
	testl	%eax, %eax
	je	.L239
	subl	$1, %eax
	movl	$73, %esi
	leaq	8(%rbp,%rax,8), %rcx
	.p2align 4,,10
	.p2align 3
.L241:
	movq	%rbp, %rax
	.p2align 4,,10
	.p2align 3
.L240:
	movq	(%rax), %rdx
	addq	$8, %rax
	addq	%rbx, %rdx
	cmpq	%rcx, %rax
	movq	(%rdx), %rdx
	jne	.L240
	jmp	.L307
.L306:
	leal	7(%r15), %eax
	subl	$1, %r13d
	movb	%r13b, 50(%rsp)
	andl	$7, %eax
	movb	%al, 48(%rsp)
	jmp	.L237
.L304:
	movzbl	48(%rsp), %eax
	movq	8(%rsp), %rdi
	movzbl	50(%rsp), %r13d
	movq	%rax, %r15
	leaq	(%rax,%rax,2), %rax
	leaq	16(%rdi,%rax,8), %rax
	movq	(%rax), %rdi
	movq	8(%rax), %r14
	movq	%rdi, (%rsp)
	jmp	.L301
.L305:
	movzbl	49(%rsp), %edx
	movq	8(%rsp), %rdi
	movl	$16, %esi
	leaq	(%rdx,%rdx,2), %rax
	movzbl	51(%rsp,%rdx), %ebp
	leaq	16(%rdi,%rax,8), %rbx
	movq	%r12, %rdi
	call	_ZNK3tbb8internal27allocate_continuation_proxy8allocateEm@PLT
	leaq	16+_ZTVN3tbb10interface98internal9flag_taskE(%rip), %rdi
	movb	$1, -11(%rax)
	movq	%rdi, (%rax)
	movl	$56, %esi
	movb	$0, 8(%rax)
	movq	%rax, %rdi
	movq	%rax, -32(%r12)
	movq	$2, -24(%rax)
	call	_ZNK3tbb8internal20allocate_child_proxy8allocateEm@PLT
	testq	%rax, %rax
	je	.L236
	movq	16(%rbx), %rdx
	movb	$1, -11(%rax)
	leaq	16+_ZTVN3tbb10interface98internal9start_forINS_13blocked_rangeIN9__gnu_cxx17__normal_iteratorIP11access_taskSt6vectorIS6_SaIS6_EEEEEENS_8internal26parallel_for_each_body_forI7invokerIS6_ESB_EEKNS_16auto_partitionerEEE(%rip), %rdi
	movdqu	(%rbx), %xmm0
	movq	%rdi, (%rax)
	movq	%rdx, 24(%rax)
	movq	32(%r12), %rdx
	movups	%xmm0, 8(%rax)
	movq	%rdx, 32(%rax)
	movq	40(%r12), %rdx
	shrq	%rdx
	movq	%rdx, 40(%r12)
	movq	%rdx, 40(%rax)
	movl	$2, 48(%rax)
	movzbl	52(%r12), %edx
	subl	%ebp, %edx
	movb	%dl, 52(%rax)
.L236:
	movq	-40(%rax), %rdi
	leaq	-8(%rax), %rdx
	movq	%rax, %rsi
	movq	(%rdi), %rcx
	call	*(%rcx)
.LEHE6:
	movzbl	50(%rsp), %eax
	leal	-1(%rax), %r13d
	movzbl	49(%rsp), %eax
	movb	%r13b, 50(%rsp)
	addl	$1, %eax
	andl	$7, %eax
	movb	%al, 49(%rsp)
	jmp	.L237
.L302:
	movq	-32(%rdi), %rax
	cmpl	$1, -24(%rax)
	jle	.L212
	movb	$1, 8(%rax)
	cmpb	$0, 52(%rdi)
	jne	.L213
	movb	$1, 52(%rdi)
.L213:
	addb	$1, 52(%r12)
.L211:
	movq	8(%r12), %rbx
	movq	16(%r12), %rax
	movq	%rbx, %rdx
	subq	%rax, %rdx
	cmpq	%rdx, 24(%r12)
	jnb	.L250
	movq	40(%r12), %rdx
	cmpq	$1, %rdx
	jbe	.L308
.L215:
	leaq	16+_ZTVN3tbb10interface98internal9flag_taskE(%rip), %r13
	leaq	16+_ZTVN3tbb10interface98internal9start_forINS_13blocked_rangeIN9__gnu_cxx17__normal_iteratorIP11access_taskSt6vectorIS6_SaIS6_EEEEEENS_8internal26parallel_for_each_body_forI7invokerIS6_ESB_EEKNS_16auto_partitionerEEE(%rip), %rbp
.L218:
	movl	$16, %esi
	movq	%r12, %rdi
.LEHB7:
	call	_ZNK3tbb8internal27allocate_continuation_proxy8allocateEm@PLT
	movb	$1, -11(%rax)
	movq	%r13, (%rax)
	movl	$56, %esi
	movb	$0, 8(%rax)
	movq	%rax, %rdi
	movq	%rax, -32(%r12)
	movq	$2, -24(%rax)
	call	_ZNK3tbb8internal20allocate_child_proxy8allocateEm@PLT
	testq	%rax, %rax
	je	.L217
	movb	$1, -11(%rax)
	movq	8(%r12), %rdx
	movq	%rbp, (%rax)
	movq	%rdx, 8(%rax)
	movq	16(%r12), %rdx
	movq	8(%r12), %rsi
	subq	%rdx, %rsi
	movq	%rsi, %rcx
	shrq	$63, %rcx
	addq	%rsi, %rcx
	sarq	%rcx
	addq	%rcx, %rdx
	movq	%rdx, 8(%r12)
	movq	%rdx, 16(%rax)
	movq	24(%r12), %rdx
	movq	%rdx, 24(%rax)
	movq	32(%r12), %rdx
	movq	%rdx, 32(%rax)
	movq	40(%r12), %rdx
	shrq	%rdx
	movq	%rdx, 40(%r12)
	movq	%rdx, 40(%rax)
	movl	$2, 48(%rax)
	movzbl	52(%r12), %edx
	movb	%dl, 52(%rax)
.L217:
	movq	-40(%rax), %rdi
	leaq	-8(%rax), %rdx
	movq	%rax, %rsi
	movq	(%rdi), %rcx
	call	*(%rcx)
	movq	8(%r12), %rbx
	movq	16(%r12), %rax
	movq	%rbx, %rdx
	subq	%rax, %rdx
	cmpq	%rdx, 24(%r12)
	jnb	.L250
	movq	40(%r12), %rcx
	cmpq	$1, %rcx
	ja	.L218
	testq	%rcx, %rcx
	movzbl	52(%r12), %edx
	je	.L216
	testb	%dl, %dl
	je	.L216
	subl	$1, %edx
	movq	$0, 40(%r12)
	movb	%dl, 52(%r12)
	jmp	.L218
.L253:
.L248:
	movzbl	50(%rsp), %edx
	testb	%dl, %dl
	je	.L247
	subl	$1, %edx
	movb	%dl, 50(%rsp)
	jmp	.L248
.L303:
	call	__stack_chk_fail@PLT
.L247:
	movq	%rax, %rdi
	call	_Unwind_Resume@PLT
.LEHE7:
	.cfi_endproc
.LFE6642:
	.section	.gcc_except_table._ZN3tbb10interface98internal9start_forINS_13blocked_rangeIN9__gnu_cxx17__normal_iteratorIP11access_taskSt6vectorIS6_SaIS6_EEEEEENS_8internal26parallel_for_each_body_forI7invokerIS6_ESB_EEKNS_16auto_partitionerEE7executeEv,"aG",@progbits,_ZN3tbb10interface98internal9start_forINS_13blocked_rangeIN9__gnu_cxx17__normal_iteratorIP11access_taskSt6vectorIS6_SaIS6_EEEEEENS_8internal26parallel_for_each_body_forI7invokerIS6_ESB_EEKNS_16auto_partitionerEE7executeEv,comdat
.LLSDA6642:
	.byte	0xff
	.byte	0xff
	.byte	0x1
	.uleb128 .LLSDACSE6642-.LLSDACSB6642
.LLSDACSB6642:
	.uleb128 .LEHB5-.LFB6642
	.uleb128 .LEHE5-.LEHB5
	.uleb128 0
	.uleb128 0
	.uleb128 .LEHB6-.LFB6642
	.uleb128 .LEHE6-.LEHB6
	.uleb128 .L253-.LFB6642
	.uleb128 0
	.uleb128 .LEHB7-.LFB6642
	.uleb128 .LEHE7-.LEHB7
	.uleb128 0
	.uleb128 0
.LLSDACSE6642:
	.section	.text._ZN3tbb10interface98internal9start_forINS_13blocked_rangeIN9__gnu_cxx17__normal_iteratorIP11access_taskSt6vectorIS6_SaIS6_EEEEEENS_8internal26parallel_for_each_body_forI7invokerIS6_ESB_EEKNS_16auto_partitionerEE7executeEv,"axG",@progbits,_ZN3tbb10interface98internal9start_forINS_13blocked_rangeIN9__gnu_cxx17__normal_iteratorIP11access_taskSt6vectorIS6_SaIS6_EEEEEENS_8internal26parallel_for_each_body_forI7invokerIS6_ESB_EEKNS_16auto_partitionerEE7executeEv,comdat
	.size	_ZN3tbb10interface98internal9start_forINS_13blocked_rangeIN9__gnu_cxx17__normal_iteratorIP11access_taskSt6vectorIS6_SaIS6_EEEEEENS_8internal26parallel_for_each_body_forI7invokerIS6_ESB_EEKNS_16auto_partitionerEE7executeEv, .-_ZN3tbb10interface98internal9start_forINS_13blocked_rangeIN9__gnu_cxx17__normal_iteratorIP11access_taskSt6vectorIS6_SaIS6_EEEEEENS_8internal26parallel_for_each_body_forI7invokerIS6_ESB_EEKNS_16auto_partitionerEE7executeEv
	.section	.text._ZNSt23mersenne_twister_engineImLm32ELm624ELm397ELm31ELm2567483615ELm11ELm4294967295ELm7ELm2636928640ELm15ELm4022730752ELm18ELm1812433253EEclEv,"axG",@progbits,_ZNSt23mersenne_twister_engineImLm32ELm624ELm397ELm31ELm2567483615ELm11ELm4294967295ELm7ELm2636928640ELm15ELm4022730752ELm18ELm1812433253EEclEv,comdat
	.align 2
	.p2align 4,,15
	.weak	_ZNSt23mersenne_twister_engineImLm32ELm624ELm397ELm31ELm2567483615ELm11ELm4294967295ELm7ELm2636928640ELm15ELm4022730752ELm18ELm1812433253EEclEv
	.type	_ZNSt23mersenne_twister_engineImLm32ELm624ELm397ELm31ELm2567483615ELm11ELm4294967295ELm7ELm2636928640ELm15ELm4022730752ELm18ELm1812433253EEclEv, @function
_ZNSt23mersenne_twister_engineImLm32ELm624ELm397ELm31ELm2567483615ELm11ELm4294967295ELm7ELm2636928640ELm15ELm4022730752ELm18ELm1812433253EEclEv:
.LFB6202:
	.cfi_startproc
	movq	4992(%rdi), %rax
	cmpq	$623, %rax
	leaq	1(%rax), %rdx
	ja	.L324
.L311:
	movq	(%rdi,%rax,8), %rax
	movq	%rdx, 4992(%rdi)
	movq	%rax, %rcx
	shrq	$11, %rcx
	movl	%ecx, %edx
	xorq	%rax, %rdx
	movq	%rdx, %rax
	salq	$7, %rax
	andl	$2636928640, %eax
	xorq	%rax, %rdx
	movq	%rdx, %rax
	salq	$15, %rax
	andl	$4022730752, %eax
	xorq	%rdx, %rax
	movq	%rax, %rdx
	shrq	$18, %rdx
	xorq	%rdx, %rax
	ret
	.p2align 4,,10
	.p2align 3
.L324:
	movq	(%rdi), %r8
	leaq	1816(%rdi), %r9
	movq	%rdi, %rax
	movq	%rdi, %rdx
	movl	$2567483615, %r10d
	.p2align 4,,10
	.p2align 3
.L312:
	movq	%r8, %rcx
	movq	8(%rdx), %r8
	andq	$-2147483648, %rcx
	movq	%r8, %rsi
	andl	$2147483647, %esi
	orq	%rcx, %rsi
	movq	%rsi, %rcx
	shrq	%rcx
	xorq	3176(%rdx), %rcx
	andl	$1, %esi
	je	.L313
	xorq	%r10, %rcx
	addq	$8, %rdx
	movq	%rcx, -8(%rdx)
	cmpq	%rdx, %r9
	jne	.L312
.L314:
	movq	1816(%rdi), %rsi
	leaq	3168(%rdi), %r8
	movl	$2567483615, %r9d
	.p2align 4,,10
	.p2align 3
.L316:
	andq	$-2147483648, %rsi
	movq	%rsi, %rdx
	movq	1824(%rax), %rsi
	movq	%rsi, %rcx
	andl	$2147483647, %ecx
	orq	%rdx, %rcx
	movq	%rcx, %rdx
	shrq	%rdx
	xorq	(%rax), %rdx
	andl	$1, %ecx
	je	.L317
	xorq	%r9, %rdx
	addq	$8, %rax
	movq	%rdx, 1808(%rax)
	cmpq	%rax, %r8
	jne	.L316
.L318:
	movq	4984(%rdi), %rax
	movq	(%rdi), %rdx
	andq	$-2147483648, %rax
	andl	$2147483647, %edx
	orq	%rdx, %rax
	movq	%rax, %rdx
	shrq	%rdx
	xorq	3168(%rdi), %rdx
	testb	$1, %al
	je	.L320
	movl	$2567483615, %eax
	xorq	%rax, %rdx
.L320:
	movq	%rdx, 4984(%rdi)
	xorl	%eax, %eax
	movl	$1, %edx
	jmp	.L311
	.p2align 4,,10
	.p2align 3
.L317:
	movq	%rdx, 1816(%rax)
	addq	$8, %rax
	cmpq	%r8, %rax
	jne	.L316
	jmp	.L318
	.p2align 4,,10
	.p2align 3
.L313:
	movq	%rcx, (%rdx)
	addq	$8, %rdx
	cmpq	%r9, %rdx
	jne	.L312
	jmp	.L314
	.cfi_endproc
.LFE6202:
	.size	_ZNSt23mersenne_twister_engineImLm32ELm624ELm397ELm31ELm2567483615ELm11ELm4294967295ELm7ELm2636928640ELm15ELm4022730752ELm18ELm1812433253EEclEv, .-_ZNSt23mersenne_twister_engineImLm32ELm624ELm397ELm31ELm2567483615ELm11ELm4294967295ELm7ELm2636928640ELm15ELm4022730752ELm18ELm1812433253EEclEv
	.section	.text._ZNSt24uniform_int_distributionIjEclISt23mersenne_twister_engineImLm32ELm624ELm397ELm31ELm2567483615ELm11ELm4294967295ELm7ELm2636928640ELm15ELm4022730752ELm18ELm1812433253EEEEjRT_RKNS0_10param_typeE,"axG",@progbits,_ZNSt24uniform_int_distributionIjEclISt23mersenne_twister_engineImLm32ELm624ELm397ELm31ELm2567483615ELm11ELm4294967295ELm7ELm2636928640ELm15ELm4022730752ELm18ELm1812433253EEEEjRT_RKNS0_10param_typeE,comdat
	.align 2
	.p2align 4,,15
	.weak	_ZNSt24uniform_int_distributionIjEclISt23mersenne_twister_engineImLm32ELm624ELm397ELm31ELm2567483615ELm11ELm4294967295ELm7ELm2636928640ELm15ELm4022730752ELm18ELm1812433253EEEEjRT_RKNS0_10param_typeE
	.type	_ZNSt24uniform_int_distributionIjEclISt23mersenne_twister_engineImLm32ELm624ELm397ELm31ELm2567483615ELm11ELm4294967295ELm7ELm2636928640ELm15ELm4022730752ELm18ELm1812433253EEEEjRT_RKNS0_10param_typeE, @function
_ZNSt24uniform_int_distributionIjEclISt23mersenne_twister_engineImLm32ELm624ELm397ELm31ELm2567483615ELm11ELm4294967295ELm7ELm2636928640ELm15ELm4022730752ELm18ELm1812433253EEEEjRT_RKNS0_10param_typeE:
.LFB5854:
	.cfi_startproc
	pushq	%r13
	.cfi_def_cfa_offset 16
	.cfi_offset 13, -16
	pushq	%r12
	.cfi_def_cfa_offset 24
	.cfi_offset 12, -24
	movq	%rdx, %r12
	pushq	%rbp
	.cfi_def_cfa_offset 32
	.cfi_offset 6, -32
	pushq	%rbx
	.cfi_def_cfa_offset 40
	.cfi_offset 3, -40
	movq	%rsi, %rbp
	subq	$8, %rsp
	.cfi_def_cfa_offset 48
	movl	(%rdx), %eax
	movl	4(%rdx), %r13d
	subq	%rax, %r13
	movl	$4294967294, %eax
	cmpq	%rax, %r13
	ja	.L326
	leaq	1(%r13), %rbx
	addq	$1, %rax
	xorl	%edx, %edx
	divq	%rbx
	imulq	%rax, %rbx
	movq	%rax, %r13
	.p2align 4,,10
	.p2align 3
.L327:
	movq	%rbp, %rdi
	call	_ZNSt23mersenne_twister_engineImLm32ELm624ELm397ELm31ELm2567483615ELm11ELm4294967295ELm7ELm2636928640ELm15ELm4022730752ELm18ELm1812433253EEclEv
	cmpq	%rax, %rbx
	jbe	.L327
	xorl	%edx, %edx
	divq	%r13
.L328:
	addl	(%r12), %eax
	addq	$8, %rsp
	.cfi_remember_state
	.cfi_def_cfa_offset 40
	popq	%rbx
	.cfi_def_cfa_offset 32
	popq	%rbp
	.cfi_def_cfa_offset 24
	popq	%r12
	.cfi_def_cfa_offset 16
	popq	%r13
	.cfi_def_cfa_offset 8
	ret
	.p2align 4,,10
	.p2align 3
.L326:
	.cfi_restore_state
	movl	$4294967295, %eax
	cmpq	%rax, %r13
	jne	.L333
	movq	%rsi, %rdi
	call	_ZNSt23mersenne_twister_engineImLm32ELm624ELm397ELm31ELm2567483615ELm11ELm4294967295ELm7ELm2636928640ELm15ELm4022730752ELm18ELm1812433253EEclEv
	addl	(%r12), %eax
	addq	$8, %rsp
	.cfi_remember_state
	.cfi_def_cfa_offset 40
	popq	%rbx
	.cfi_def_cfa_offset 32
	popq	%rbp
	.cfi_def_cfa_offset 24
	popq	%r12
	.cfi_def_cfa_offset 16
	popq	%r13
	.cfi_def_cfa_offset 8
	ret
	.p2align 4,,10
	.p2align 3
.L340:
	.cfi_restore_state
	testq	%rdx, %rdx
	je	.L328
.L333:
	movq	%rbp, %rdi
	call	_ZNSt23mersenne_twister_engineImLm32ELm624ELm397ELm31ELm2567483615ELm11ELm4294967295ELm7ELm2636928640ELm15ELm4022730752ELm18ELm1812433253EEclEv
	movq	%rbp, %rdi
	movq	%rax, %rbx
	call	_ZNSt23mersenne_twister_engineImLm32ELm624ELm397ELm31ELm2567483615ELm11ELm4294967295ELm7ELm2636928640ELm15ELm4022730752ELm18ELm1812433253EEclEv
	movq	%rbx, %rdx
	salq	$32, %rdx
	addq	%rdx, %rax
	setc	%dl
	cmpq	%rax, %r13
	movzbl	%dl, %edx
	jnb	.L340
	jmp	.L333
	.cfi_endproc
.LFE5854:
	.size	_ZNSt24uniform_int_distributionIjEclISt23mersenne_twister_engineImLm32ELm624ELm397ELm31ELm2567483615ELm11ELm4294967295ELm7ELm2636928640ELm15ELm4022730752ELm18ELm1812433253EEEEjRT_RKNS0_10param_typeE, .-_ZNSt24uniform_int_distributionIjEclISt23mersenne_twister_engineImLm32ELm624ELm397ELm31ELm2567483615ELm11ELm4294967295ELm7ELm2636928640ELm15ELm4022730752ELm18ELm1812433253EEEEjRT_RKNS0_10param_typeE
	.section	.rodata._ZN9init_taskclEv.str1.8,"aMS",@progbits,1
	.align 8
.LC2:
	.string	"Error in pinning thread to core id "
	.section	.rodata._ZN9init_taskclEv.str1.1,"aMS",@progbits,1
.LC3:
	.string	" aborting..."
	.section	.rodata._ZN9init_taskclEv.str1.8
	.align 8
.LC4:
	.string	"Failure in allocating huge buffer, aborting"
	.align 8
.LC5:
	.string	"Failure in allocating dst huge buffer, aborting"
	.align 8
.LC6:
	.string	"Failure in allocating offsets buffer, aborting"
	.section	.text._ZN9init_taskclEv,"axG",@progbits,_ZN9init_taskclEv,comdat
	.align 2
	.p2align 4,,15
	.weak	_ZN9init_taskclEv
	.type	_ZN9init_taskclEv, @function
_ZN9init_taskclEv:
.LFB5207:
	.cfi_startproc
	pushq	%r15
	.cfi_def_cfa_offset 16
	.cfi_offset 15, -16
	pushq	%r14
	.cfi_def_cfa_offset 24
	.cfi_offset 14, -24
	pushq	%r13
	.cfi_def_cfa_offset 32
	.cfi_offset 13, -32
	pushq	%r12
	.cfi_def_cfa_offset 40
	.cfi_offset 12, -40
	movq	%rdi, %r12
	pushq	%rbp
	.cfi_def_cfa_offset 48
	.cfi_offset 6, -48
	pushq	%rbx
	.cfi_def_cfa_offset 56
	.cfi_offset 3, -56
	subq	$264, %rsp
	.cfi_def_cfa_offset 320
	leaq	111(%rsp), %rdi
	movq	%fs:40, %rax
	movq	%rax, 248(%rsp)
	xorl	%eax, %eax
	call	_ZN3tbb10interface68internal8ets_baseILNS_18ets_key_usage_typeE1EE12table_lookupERb.constprop.128
	movl	(%r12), %esi
	leaq	112(%rsp), %rdx
	movq	%rax, %rbp
	movl	$16, %ecx
	movq	%rdx, %rdi
	movl	%esi, (%rax)
	xorl	%eax, %eax
	rep stosq
	movl	%esi, %eax
	cmpq	$1023, %rax
	ja	.L342
	shrq	$6, %rax
	movl	$1, %edi
	movl	%esi, %ecx
	salq	%cl, %rdi
	orq	%rdi, (%rdx,%rax,8)
.L342:
	xorl	%edi, %edi
	movl	$128, %esi
	call	sched_setaffinity@PLT
	testl	%eax, %eax
	jne	.L411
	movq	8(%r12), %rbx
	movl	16(%r12), %eax
	movl	$4096, %edi
	movq	%rbx, 8(%rbp)
	movl	%eax, 16(%rbp)
	movq	%rbx, %rsi
	call	aligned_alloc@PLT
	testq	%rax, %rax
	movq	%rax, %r13
	movq	%rax, 24(%rbp)
	je	.L412
	movq	%rbx, %rsi
	movl	$4096, %edi
	call	aligned_alloc@PLT
	testq	%rax, %rax
	movq	%rax, 32(%rbp)
	je	.L413
	movq	%rbx, %rdx
	movl	$204, %esi
	movq	%r13, %rdi
	call	memset@PLT
	movq	8(%rbp), %rdx
	movq	32(%rbp), %rdi
	movl	$51, %esi
	call	memset@PLT
	movl	16(%r12), %esi
	movl	$4096, %edi
	salq	$3, %rsi
	call	aligned_alloc@PLT
	testq	%rax, %rax
	movq	%rax, 40(%rbp)
	je	.L414
	movl	$5000, %edi
	call	_Znwm@PLT
	movq	%rax, %rbx
	movl	(%r12), %eax
	movl	$1, %edx
	movq	%rax, (%rbx)
	movq	%rax, %rcx
	.p2align 4,,10
	.p2align 3
.L347:
	movq	%rcx, %rax
	shrq	$30, %rax
	xorq	%rcx, %rax
	imulq	$1812433253, %rax, %rax
	leal	(%rax,%rdx), %ecx
	movq	%rcx, (%rbx,%rdx,8)
	addq	$1, %rdx
	cmpq	$624, %rdx
	jne	.L347
	movq	8(%r12), %r14
	movl	20(%r12), %edx
	movq	$624, 4992(%rbx)
	movl	16(%r12), %r13d
	movq	40(%rbp), %rbp
	movq	%r14, %rax
	movq	%r14, %r15
	shrq	$6, %rax
	shrq	$10, %r15
	movl	%eax, %edi
	movl	%eax, %esi
	shrl	$10, %edi
	cmpl	$1, %edx
	movl	%edi, 72(%rsp)
	je	.L349
	jb	.L350
	cmpl	$2, %edx
	je	.L351
	cmpl	$3, %edx
	jne	.L341
	testl	%r13d, %r13d
	je	.L341
	leal	-1(%r13), %edx
	pxor	%xmm6, %xmm6
	movsd	.LC8(%rip), %xmm7
	xorl	%r12d, %r12d
	leaq	1(%rdx), %rsi
	movl	$-858993459, %edx
	mull	%edx
	movq	%r14, %rax
	movsd	%xmm6, 8(%rsp)
	movsd	.LC9(%rip), %xmm4
	movq	%rsi, 88(%rsp)
	movsd	%xmm7, 16(%rsp)
	shrl	$3, %edx
	movsd	%xmm4, 24(%rsp)
	movl	%edx, 80(%rsp)
	movabsq	$-3689348814741910323, %rdx
	mulq	%rdx
	movsd	.LC10(%rip), %xmm5
	movsd	.LC11(%rip), %xmm6
	movsd	.LC12(%rip), %xmm7
	movsd	.LC13(%rip), %xmm4
	shrq	$3, %rdx
	movsd	%xmm5, (%rsp)
	movsd	%xmm6, 48(%rsp)
	movl	%edx, 84(%rsp)
	movsd	%xmm7, 56(%rsp)
	movsd	%xmm4, 64(%rsp)
	.p2align 4,,10
	.p2align 3
.L388:
	movl	%r12d, 76(%rsp)
	.p2align 4,,10
	.p2align 3
.L404:
	movq	%rbx, %rdi
	call	_ZNSt23mersenne_twister_engineImLm32ELm624ELm397ELm31ELm2567483615ELm11ELm4294967295ELm7ELm2636928640ELm15ELm4022730752ELm18ELm1812433253EEclEv
	testq	%rax, %rax
	js	.L373
	pxor	%xmm0, %xmm0
	cvtsi2sdq	%rax, %xmm0
.L374:
	addsd	8(%rsp), %xmm0
	movq	%rbx, %rdi
	movsd	%xmm0, 32(%rsp)
	call	_ZNSt23mersenne_twister_engineImLm32ELm624ELm397ELm31ELm2567483615ELm11ELm4294967295ELm7ELm2636928640ELm15ELm4022730752ELm18ELm1812433253EEclEv
	testq	%rax, %rax
	js	.L375
	pxor	%xmm0, %xmm0
	cvtsi2sdq	%rax, %xmm0
.L376:
	mulsd	16(%rsp), %xmm0
	addsd	32(%rsp), %xmm0
	mulsd	24(%rsp), %xmm0
	ucomisd	(%rsp), %xmm0
	jnb	.L415
.L377:
	addsd	%xmm0, %xmm0
	movq	%rbx, %rdi
	subsd	(%rsp), %xmm0
	movsd	%xmm0, 32(%rsp)
	call	_ZNSt23mersenne_twister_engineImLm32ELm624ELm397ELm31ELm2567483615ELm11ELm4294967295ELm7ELm2636928640ELm15ELm4022730752ELm18ELm1812433253EEclEv
	testq	%rax, %rax
	js	.L379
	pxor	%xmm0, %xmm0
	cvtsi2sdq	%rax, %xmm0
.L380:
	addsd	8(%rsp), %xmm0
	movq	%rbx, %rdi
	movsd	%xmm0, 40(%rsp)
	call	_ZNSt23mersenne_twister_engineImLm32ELm624ELm397ELm31ELm2567483615ELm11ELm4294967295ELm7ELm2636928640ELm15ELm4022730752ELm18ELm1812433253EEclEv
	testq	%rax, %rax
	js	.L381
	pxor	%xmm0, %xmm0
	cvtsi2sdq	%rax, %xmm0
.L382:
	mulsd	16(%rsp), %xmm0
	addsd	40(%rsp), %xmm0
	mulsd	24(%rsp), %xmm0
	ucomisd	(%rsp), %xmm0
	jnb	.L416
.L383:
	addsd	%xmm0, %xmm0
	movsd	(%rsp), %xmm4
	movsd	32(%rsp), %xmm2
	mulsd	%xmm2, %xmm2
	movapd	%xmm0, %xmm1
	subsd	%xmm4, %xmm1
	movapd	%xmm1, %xmm0
	mulsd	%xmm1, %xmm0
	addsd	%xmm0, %xmm2
	ucomisd	%xmm4, %xmm2
	ja	.L404
	ucomisd	8(%rsp), %xmm2
	jp	.L395
	je	.L404
.L395:
	movapd	%xmm2, %xmm0
	movsd	%xmm1, 40(%rsp)
	movsd	%xmm2, 32(%rsp)
	call	log@PLT
	mulsd	48(%rsp), %xmm0
	movsd	32(%rsp), %xmm2
	movsd	8(%rsp), %xmm6
	movsd	40(%rsp), %xmm1
	divsd	%xmm2, %xmm0
	ucomisd	%xmm0, %xmm6
	sqrtsd	%xmm0, %xmm2
	ja	.L417
.L387:
	mulsd	%xmm2, %xmm1
	movsd	56(%rsp), %xmm0
	mulsd	%xmm1, %xmm0
	addsd	64(%rsp), %xmm0
	call	round@PLT
	cvttsd2siq	%xmm0, %rcx
	xorl	%edx, %edx
	movl	%r13d, %eax
	divl	72(%rsp)
	movl	76(%rsp), %eax
	sall	$6, %edx
	andl	$1023, %ecx
	imull	%r15d, %ecx
	addl	%edx, %ecx
	xorl	%edx, %edx
	divl	80(%rsp)
	xorl	%edx, %edx
	imull	84(%rsp), %eax
	addq	%rcx, %rax
	divq	%r14
	movq	%rdx, 0(%rbp,%r12,8)
	addq	$1, %r12
	cmpq	%r12, 88(%rsp)
	jne	.L388
	.p2align 4,,10
	.p2align 3
.L341:
	movq	248(%rsp), %rax
	xorq	%fs:40, %rax
	jne	.L418
	addq	$264, %rsp
	.cfi_remember_state
	.cfi_def_cfa_offset 56
	popq	%rbx
	.cfi_def_cfa_offset 48
	popq	%rbp
	.cfi_def_cfa_offset 40
	popq	%r12
	.cfi_def_cfa_offset 32
	popq	%r13
	.cfi_def_cfa_offset 24
	popq	%r14
	.cfi_def_cfa_offset 16
	popq	%r15
	.cfi_def_cfa_offset 8
	ret
.L351:
	.cfi_restore_state
	testl	%r13d, %r13d
	je	.L341
	pxor	%xmm4, %xmm4
	leal	-1(%r13), %eax
	movsd	.LC13(%rip), %xmm5
	leaq	8(%rbp,%rax,8), %r12
	movsd	%xmm4, 8(%rsp)
	movsd	.LC8(%rip), %xmm4
	movsd	%xmm5, 64(%rsp)
	movsd	%xmm4, 16(%rsp)
	movsd	.LC9(%rip), %xmm4
	movsd	%xmm4, 24(%rsp)
	movsd	.LC10(%rip), %xmm4
	movsd	%xmm4, (%rsp)
	movsd	.LC11(%rip), %xmm4
	movsd	%xmm4, 48(%rsp)
	movsd	.LC12(%rip), %xmm4
	movsd	%xmm4, 56(%rsp)
	.p2align 4,,10
	.p2align 3
.L403:
	movq	%rbx, %rdi
	call	_ZNSt23mersenne_twister_engineImLm32ELm624ELm397ELm31ELm2567483615ELm11ELm4294967295ELm7ELm2636928640ELm15ELm4022730752ELm18ELm1812433253EEclEv
	testq	%rax, %rax
	js	.L357
.L422:
	pxor	%xmm0, %xmm0
	cvtsi2sdq	%rax, %xmm0
.L358:
	addsd	8(%rsp), %xmm0
	movq	%rbx, %rdi
	movsd	%xmm0, 32(%rsp)
	call	_ZNSt23mersenne_twister_engineImLm32ELm624ELm397ELm31ELm2567483615ELm11ELm4294967295ELm7ELm2636928640ELm15ELm4022730752ELm18ELm1812433253EEclEv
	testq	%rax, %rax
	js	.L359
	pxor	%xmm0, %xmm0
	cvtsi2sdq	%rax, %xmm0
.L360:
	mulsd	16(%rsp), %xmm0
	addsd	32(%rsp), %xmm0
	mulsd	24(%rsp), %xmm0
	ucomisd	(%rsp), %xmm0
	jnb	.L419
.L361:
	addsd	%xmm0, %xmm0
	movq	%rbx, %rdi
	subsd	(%rsp), %xmm0
	movsd	%xmm0, 32(%rsp)
	call	_ZNSt23mersenne_twister_engineImLm32ELm624ELm397ELm31ELm2567483615ELm11ELm4294967295ELm7ELm2636928640ELm15ELm4022730752ELm18ELm1812433253EEclEv
	testq	%rax, %rax
	js	.L363
	pxor	%xmm0, %xmm0
	cvtsi2sdq	%rax, %xmm0
.L364:
	addsd	8(%rsp), %xmm0
	movq	%rbx, %rdi
	movsd	%xmm0, 40(%rsp)
	call	_ZNSt23mersenne_twister_engineImLm32ELm624ELm397ELm31ELm2567483615ELm11ELm4294967295ELm7ELm2636928640ELm15ELm4022730752ELm18ELm1812433253EEclEv
	testq	%rax, %rax
	js	.L365
	pxor	%xmm0, %xmm0
	cvtsi2sdq	%rax, %xmm0
.L366:
	mulsd	16(%rsp), %xmm0
	addsd	40(%rsp), %xmm0
	mulsd	24(%rsp), %xmm0
	ucomisd	(%rsp), %xmm0
	jnb	.L420
.L367:
	addsd	%xmm0, %xmm0
	movsd	(%rsp), %xmm3
	movsd	32(%rsp), %xmm2
	mulsd	%xmm2, %xmm2
	movapd	%xmm0, %xmm1
	subsd	%xmm3, %xmm1
	movapd	%xmm1, %xmm0
	mulsd	%xmm1, %xmm0
	addsd	%xmm0, %xmm2
	ucomisd	%xmm3, %xmm2
	ja	.L403
	ucomisd	8(%rsp), %xmm2
	jp	.L392
	je	.L403
.L392:
	movapd	%xmm2, %xmm0
	movsd	%xmm1, 40(%rsp)
	movsd	%xmm2, 32(%rsp)
	call	log@PLT
	mulsd	48(%rsp), %xmm0
	movsd	32(%rsp), %xmm2
	movsd	8(%rsp), %xmm4
	movsd	40(%rsp), %xmm1
	divsd	%xmm2, %xmm0
	ucomisd	%xmm0, %xmm4
	sqrtsd	%xmm0, %xmm2
	ja	.L421
.L371:
	mulsd	%xmm2, %xmm1
	addq	$8, %rbp
	movsd	56(%rsp), %xmm0
	mulsd	%xmm1, %xmm0
	addsd	64(%rsp), %xmm0
	call	round@PLT
	cvttsd2siq	%xmm0, %rcx
	xorl	%edx, %edx
	movl	%r13d, %eax
	divl	72(%rsp)
	sall	$6, %edx
	andl	$1023, %ecx
	imull	%r15d, %ecx
	leal	(%rcx,%rdx), %eax
	movq	%rax, -8(%rbp)
	cmpq	%rbp, %r12
	je	.L341
	movq	%rbx, %rdi
	call	_ZNSt23mersenne_twister_engineImLm32ELm624ELm397ELm31ELm2567483615ELm11ELm4294967295ELm7ELm2636928640ELm15ELm4022730752ELm18ELm1812433253EEclEv
	testq	%rax, %rax
	jns	.L422
	.p2align 4,,10
	.p2align 3
.L357:
	movq	%rax, %rdx
	pxor	%xmm0, %xmm0
	shrq	%rdx
	andl	$1, %eax
	orq	%rax, %rdx
	cvtsi2sdq	%rdx, %xmm0
	addsd	%xmm0, %xmm0
	jmp	.L358
.L350:
	testl	%r13d, %r13d
	je	.L341
	leal	-1(%r13), %edi
	xorl	%ecx, %ecx
	addq	$1, %rdi
	.p2align 4,,10
	.p2align 3
.L355:
	movl	%ecx, %eax
	xorl	%edx, %edx
	divl	%esi
	sall	$6, %edx
	movl	%edx, %eax
	movq	%rax, 0(%rbp,%rcx,8)
	addq	$1, %rcx
	cmpq	%rcx, %rdi
	jne	.L355
	jmp	.L341
.L349:
	testl	%r13d, %r13d
	je	.L341
	leal	-1(%r13), %eax
	leaq	8(%rbp,%rax,8), %r12
	.p2align 4,,10
	.p2align 3
.L356:
	movq	%rbx, %rdi
	movl	%esi, (%rsp)
	addq	$8, %rbp
	call	_ZNSt23mersenne_twister_engineImLm32ELm624ELm397ELm31ELm2567483615ELm11ELm4294967295ELm7ELm2636928640ELm15ELm4022730752ELm18ELm1812433253EEclEv
	movl	(%rsp), %esi
	xorl	%edx, %edx
	divl	%esi
	sall	$6, %edx
	movl	%edx, %eax
	movq	%rax, -8(%rbp)
	cmpq	%rbp, %r12
	jne	.L356
	jmp	.L341
	.p2align 4,,10
	.p2align 3
.L381:
	movq	%rax, %rdx
	pxor	%xmm0, %xmm0
	shrq	%rdx
	andl	$1, %eax
	orq	%rax, %rdx
	cvtsi2sdq	%rdx, %xmm0
	addsd	%xmm0, %xmm0
	jmp	.L382
	.p2align 4,,10
	.p2align 3
.L379:
	movq	%rax, %rdx
	pxor	%xmm0, %xmm0
	shrq	%rdx
	andl	$1, %eax
	orq	%rax, %rdx
	cvtsi2sdq	%rdx, %xmm0
	addsd	%xmm0, %xmm0
	jmp	.L380
	.p2align 4,,10
	.p2align 3
.L375:
	movq	%rax, %rdx
	pxor	%xmm0, %xmm0
	shrq	%rdx
	andl	$1, %eax
	orq	%rax, %rdx
	cvtsi2sdq	%rdx, %xmm0
	addsd	%xmm0, %xmm0
	jmp	.L376
	.p2align 4,,10
	.p2align 3
.L373:
	movq	%rax, %rdx
	pxor	%xmm0, %xmm0
	shrq	%rdx
	andl	$1, %eax
	orq	%rax, %rdx
	cvtsi2sdq	%rdx, %xmm0
	addsd	%xmm0, %xmm0
	jmp	.L374
	.p2align 4,,10
	.p2align 3
.L359:
	movq	%rax, %rdx
	pxor	%xmm0, %xmm0
	shrq	%rdx
	andl	$1, %eax
	orq	%rax, %rdx
	cvtsi2sdq	%rdx, %xmm0
	addsd	%xmm0, %xmm0
	jmp	.L360
	.p2align 4,,10
	.p2align 3
.L365:
	movq	%rax, %rdx
	pxor	%xmm0, %xmm0
	shrq	%rdx
	andl	$1, %eax
	orq	%rax, %rdx
	cvtsi2sdq	%rdx, %xmm0
	addsd	%xmm0, %xmm0
	jmp	.L366
	.p2align 4,,10
	.p2align 3
.L363:
	movq	%rax, %rdx
	pxor	%xmm0, %xmm0
	shrq	%rdx
	andl	$1, %eax
	orq	%rax, %rdx
	cvtsi2sdq	%rdx, %xmm0
	addsd	%xmm0, %xmm0
	jmp	.L364
	.p2align 4,,10
	.p2align 3
.L419:
	pxor	%xmm1, %xmm1
	movsd	(%rsp), %xmm0
	call	nextafter@PLT
	jmp	.L361
	.p2align 4,,10
	.p2align 3
.L416:
	pxor	%xmm1, %xmm1
	movsd	(%rsp), %xmm0
	call	nextafter@PLT
	jmp	.L383
	.p2align 4,,10
	.p2align 3
.L415:
	pxor	%xmm1, %xmm1
	movsd	(%rsp), %xmm0
	call	nextafter@PLT
	jmp	.L377
	.p2align 4,,10
	.p2align 3
.L420:
	pxor	%xmm1, %xmm1
	movsd	(%rsp), %xmm0
	call	nextafter@PLT
	jmp	.L367
.L421:
	movsd	%xmm2, 40(%rsp)
	movsd	%xmm1, 32(%rsp)
	call	sqrt@PLT
	movsd	40(%rsp), %xmm2
	movsd	32(%rsp), %xmm1
	jmp	.L371
.L417:
	movsd	%xmm2, 40(%rsp)
	movsd	%xmm1, 32(%rsp)
	call	sqrt@PLT
	movsd	40(%rsp), %xmm2
	movsd	32(%rsp), %xmm1
	jmp	.L387
.L418:
	call	__stack_chk_fail@PLT
.L414:
	leaq	.LC6(%rip), %rsi
	movl	$46, %edx
.L409:
	leaq	_ZSt4cout(%rip), %rdi
	call	_ZSt16__ostream_insertIcSt11char_traitsIcEERSt13basic_ostreamIT_T0_ES6_PKS3_l@PLT
	leaq	_ZSt4cout(%rip), %rdi
	call	_ZSt4endlIcSt11char_traitsIcEERSt13basic_ostreamIT_T0_ES6_@PLT
	orl	$-1, %edi
	call	exit@PLT
.L413:
	movl	$47, %edx
	leaq	.LC5(%rip), %rsi
	jmp	.L409
.L412:
	movl	$43, %edx
	leaq	.LC4(%rip), %rsi
	jmp	.L409
.L411:
	leaq	.LC2(%rip), %rsi
	leaq	_ZSt4cout(%rip), %rdi
	movl	$35, %edx
	call	_ZSt16__ostream_insertIcSt11char_traitsIcEERSt13basic_ostreamIT_T0_ES6_PKS3_l@PLT
	movl	(%r12), %esi
	leaq	_ZSt4cout(%rip), %rdi
	call	_ZNSo9_M_insertImEERSoT_@PLT
	leaq	.LC3(%rip), %rsi
	movq	%rax, %rbx
	movl	$12, %edx
	movq	%rax, %rdi
	call	_ZSt16__ostream_insertIcSt11char_traitsIcEERSt13basic_ostreamIT_T0_ES6_PKS3_l@PLT
	movq	%rbx, %rdi
	call	_ZSt4endlIcSt11char_traitsIcEERSt13basic_ostreamIT_T0_ES6_@PLT
	orl	$-1, %edi
	call	exit@PLT
	.cfi_endproc
.LFE5207:
	.size	_ZN9init_taskclEv, .-_ZN9init_taskclEv
	.section	.text._ZN3tbb10interface98internal9start_forINS_13blocked_rangeIN9__gnu_cxx17__normal_iteratorIP9init_taskSt6vectorIS6_SaIS6_EEEEEENS_8internal26parallel_for_each_body_forI7invokerIS6_ESB_EEKNS_16auto_partitionerEE7executeEv,"axG",@progbits,_ZN3tbb10interface98internal9start_forINS_13blocked_rangeIN9__gnu_cxx17__normal_iteratorIP9init_taskSt6vectorIS6_SaIS6_EEEEEENS_8internal26parallel_for_each_body_forI7invokerIS6_ESB_EEKNS_16auto_partitionerEE7executeEv,comdat
	.align 2
	.p2align 4,,15
	.weak	_ZN3tbb10interface98internal9start_forINS_13blocked_rangeIN9__gnu_cxx17__normal_iteratorIP9init_taskSt6vectorIS6_SaIS6_EEEEEENS_8internal26parallel_for_each_body_forI7invokerIS6_ESB_EEKNS_16auto_partitionerEE7executeEv
	.type	_ZN3tbb10interface98internal9start_forINS_13blocked_rangeIN9__gnu_cxx17__normal_iteratorIP9init_taskSt6vectorIS6_SaIS6_EEEEEENS_8internal26parallel_for_each_body_forI7invokerIS6_ESB_EEKNS_16auto_partitionerEE7executeEv, @function
_ZN3tbb10interface98internal9start_forINS_13blocked_rangeIN9__gnu_cxx17__normal_iteratorIP9init_taskSt6vectorIS6_SaIS6_EEEEEENS_8internal26parallel_for_each_body_forI7invokerIS6_ESB_EEKNS_16auto_partitionerEE7executeEv:
.LFB6644:
	.cfi_startproc
	.cfi_personality 0x9b,DW.ref.__gxx_personality_v0
	.cfi_lsda 0x1b,.LLSDA6644
	pushq	%r15
	.cfi_def_cfa_offset 16
	.cfi_offset 15, -16
	pushq	%r14
	.cfi_def_cfa_offset 24
	.cfi_offset 14, -24
	pushq	%r13
	.cfi_def_cfa_offset 32
	.cfi_offset 13, -32
	pushq	%r12
	.cfi_def_cfa_offset 40
	.cfi_offset 12, -40
	pushq	%rbp
	.cfi_def_cfa_offset 48
	.cfi_offset 6, -48
	pushq	%rbx
	.cfi_def_cfa_offset 56
	.cfi_offset 3, -56
	movq	%rdi, %rbx
	subq	$248, %rsp
	.cfi_def_cfa_offset 304
	movq	%fs:40, %rax
	movq	%rax, 232(%rsp)
	xorl	%eax, %eax
	cmpq	$0, 40(%rdi)
	jne	.L424
	cmpb	$0, -11(%rdi)
	movq	$1, 40(%rdi)
	js	.L498
.L425:
	movq	8(%rbx), %rcx
	movq	16(%rbx), %rdx
	movabsq	$-6148914691236517205, %rsi
	movq	%rcx, %rax
	subq	%rdx, %rax
	sarq	$3, %rax
	imulq	%rsi, %rax
	cmpq	24(%rbx), %rax
	ja	.L457
.L458:
	cmpq	%rdx, %rcx
	je	.L453
	leaq	24(%rdx), %rbp
	movq	%rdx, %rbx
	subq	%rbp, %rcx
	andq	$-8, %rcx
	addq	%rcx, %rbp
	.p2align 4,,10
	.p2align 3
.L437:
	movq	%rbx, %rdi
	addq	$24, %rbx
.LEHB8:
	call	_ZN9init_taskclEv
	cmpq	%rbp, %rbx
	jne	.L437
.L453:
	xorl	%eax, %eax
	movq	232(%rsp), %rsi
	xorq	%fs:40, %rsi
	jne	.L499
	addq	$248, %rsp
	.cfi_remember_state
	.cfi_def_cfa_offset 56
	popq	%rbx
	.cfi_def_cfa_offset 48
	popq	%rbp
	.cfi_def_cfa_offset 40
	popq	%r12
	.cfi_def_cfa_offset 32
	popq	%r13
	.cfi_def_cfa_offset 24
	popq	%r14
	.cfi_def_cfa_offset 16
	popq	%r15
	.cfi_def_cfa_offset 8
	ret
	.p2align 4,,10
	.p2align 3
.L498:
	.cfi_restore_state
	movq	-32(%rdi), %rax
	cmpl	$1, -24(%rax)
	jle	.L425
	movb	$1, 8(%rax)
	movzbl	52(%rdi), %edx
	leal	1(%rdx), %eax
	testb	%dl, %dl
	movl	$2, %edx
	cmove	%edx, %eax
	movb	%al, 52(%rdi)
	.p2align 4,,10
	.p2align 3
.L424:
	movq	8(%rbx), %rcx
	movq	16(%rbx), %rdx
	movabsq	$-6148914691236517205, %rsi
	movq	%rcx, %rax
	subq	%rdx, %rax
	sarq	$3, %rax
	imulq	%rsi, %rax
	cmpq	%rax, 24(%rbx)
	jnb	.L458
	movq	40(%rbx), %rax
	cmpq	$1, %rax
	jbe	.L500
.L428:
	leaq	16+_ZTVN3tbb10interface98internal9flag_taskE(%rip), %r12
	leaq	16+_ZTVN3tbb10interface98internal9start_forINS_13blocked_rangeIN9__gnu_cxx17__normal_iteratorIP9init_taskSt6vectorIS6_SaIS6_EEEEEENS_8internal26parallel_for_each_body_forI7invokerIS6_ESB_EEKNS_16auto_partitionerEEE(%rip), %r13
	movabsq	$-6148914691236517205, %rbp
	jmp	.L432
	.p2align 4,,10
	.p2align 3
.L502:
	movq	40(%rbx), %rax
	cmpq	$1, %rax
	jbe	.L501
.L432:
	movl	$16, %esi
	movq	%rbx, %rdi
	call	_ZNK3tbb8internal27allocate_continuation_proxy8allocateEm@PLT
	movb	$1, -11(%rax)
	movq	%r12, (%rax)
	movl	$56, %esi
	movb	$0, 8(%rax)
	movq	%rax, %rdi
	movq	%rax, -32(%rbx)
	movq	$2, -24(%rax)
	call	_ZNK3tbb8internal20allocate_child_proxy8allocateEm@PLT
	testq	%rax, %rax
	je	.L431
	movb	$1, -11(%rax)
	movq	8(%rbx), %rdx
	movq	%r13, (%rax)
	movq	%rdx, 8(%rax)
	movq	16(%rbx), %rsi
	movq	8(%rbx), %rdx
	subq	%rsi, %rdx
	sarq	$3, %rdx
	imulq	%rbp, %rdx
	movq	%rdx, %rcx
	shrq	$63, %rcx
	addq	%rcx, %rdx
	sarq	%rdx
	leaq	(%rdx,%rdx,2), %rdx
	leaq	(%rsi,%rdx,8), %rdx
	movq	%rdx, 8(%rbx)
	movq	%rdx, 16(%rax)
	movq	24(%rbx), %rdx
	movq	%rdx, 24(%rax)
	movq	32(%rbx), %rdx
	movq	%rdx, 32(%rax)
	movq	40(%rbx), %rdx
	shrq	%rdx
	movq	%rdx, 40(%rbx)
	movq	%rdx, 40(%rax)
	movl	$2, 48(%rax)
	movzbl	52(%rbx), %edx
	movb	%dl, 52(%rax)
.L431:
	movq	-40(%rax), %rdi
	leaq	-8(%rax), %rdx
	movq	%rax, %rsi
	movq	(%rdi), %rcx
	call	*(%rcx)
.LEHE8:
	movq	8(%rbx), %rcx
	movq	16(%rbx), %rdx
	movq	%rcx, %rax
	subq	%rdx, %rax
	sarq	$3, %rax
	imulq	%rbp, %rax
	cmpq	%rax, 24(%rbx)
	jb	.L502
	jmp	.L458
	.p2align 4,,10
	.p2align 3
.L501:
	testq	%rax, %rax
	movzbl	52(%rbx), %esi
	je	.L429
	testb	%sil, %sil
	je	.L458
	subl	$1, %esi
	movq	$0, 40(%rbx)
	movb	%sil, 52(%rbx)
	jmp	.L432
.L500:
	testq	%rax, %rax
	movzbl	52(%rbx), %esi
	jne	.L457
.L429:
	testb	%sil, %sil
	je	.L458
	movdqu	8(%rbx), %xmm0
	leaq	32(%rsp), %rbp
	movl	$1, %r14d
	movq	24(%rbx), %rax
	movl	$65536, 16(%rsp)
	movabsq	$-6148914691236517205, %r13
	movaps	%xmm0, 32(%rsp)
	movq	%rax, 48(%rsp)
	.p2align 4,,10
	.p2align 3
.L436:
	cmpb	$7, %r14b
	ja	.L441
	movzbl	16(%rsp), %eax
	movslq	%eax, %rdi
	cmpb	%sil, 19(%rsp,%rdi)
	jnb	.L441
	leaq	(%rax,%rax,2), %rdx
	leaq	0(%rbp,%rdx,8), %rdx
	movq	(%rdx), %rcx
	subq	8(%rdx), %rcx
	sarq	$3, %rcx
	imulq	%r13, %rcx
	cmpq	16(%rdx), %rcx
	ja	.L442
	jmp	.L441
	.p2align 4,,10
	.p2align 3
.L444:
	cmpb	%sil, %dl
	jnb	.L441
	leaq	(%rcx,%rcx,2), %rdx
	leaq	0(%rbp,%rdx,8), %rdx
	movq	(%rdx), %rcx
	subq	8(%rdx), %rcx
	sarq	$3, %rcx
	imulq	%r13, %rcx
	cmpq	%rcx, 16(%rdx)
	jnb	.L441
.L442:
	addl	$1, %eax
	andl	$7, %eax
	movl	%eax, %ecx
	movb	%al, 16(%rsp)
	cltq
	leaq	(%rax,%rax,2), %rax
	leaq	0(%rbp,%rax,8), %rax
	testq	%rax, %rax
	je	.L443
	movdqu	(%rdx), %xmm0
	movups	%xmm0, (%rax)
	movq	16(%rdx), %rcx
	movq	%rcx, 16(%rax)
	movzbl	16(%rsp), %ecx
.L443:
	movzbl	%cl, %eax
	leaq	(%rax,%rax,2), %rax
	leaq	0(%rbp,%rax,8), %r8
	movq	(%r8), %rax
	movq	%rax, (%rdx)
	movq	(%r8), %rax
	movq	8(%r8), %r9
	subq	%r9, %rax
	sarq	$3, %rax
	imulq	%r13, %rax
	movq	%rax, %rcx
	shrq	$63, %rcx
	addq	%rcx, %rax
	sarq	%rax
	leaq	(%rax,%rax,2), %rax
	leaq	(%r9,%rax,8), %rax
	movq	%rax, (%r8)
	movq	%rax, 8(%rdx)
	movq	16(%r8), %rax
	movzbl	18(%rsp), %r10d
	movzbl	16(%rsp), %ecx
	movq	%rax, 16(%rdx)
	movzbl	19(%rsp,%rdi), %eax
	leal	1(%r10), %r8d
	cmpb	$7, %r8b
	movb	%r8b, 18(%rsp)
	leal	1(%rax), %edx
	movb	%dl, 19(%rsp,%rdi)
	movzbl	%cl, %edi
	movq	%rdi, %rax
	movb	%dl, 19(%rsp,%rdi)
	jbe	.L444
.L441:
	movq	-32(%rbx), %rax
	movzbl	8(%rax), %eax
	testb	%al, %al
	je	.L503
	movzbl	52(%rbx), %eax
	movzbl	18(%rsp), %r14d
	addl	$1, %eax
	cmpb	$1, %r14b
	movb	%al, 52(%rbx)
	ja	.L504
	movzbl	16(%rsp), %edx
	movq	%rdx, %rsi
	movb	%dl, 15(%rsp)
	leaq	(%rdx,%rdx,2), %rdx
	movzbl	%sil, %ecx
	cmpb	19(%rsp,%rcx), %al
	leaq	0(%rbp,%rdx,8), %rdx
	movq	(%rdx), %r15
	movq	8(%rdx), %r12
	jbe	.L445
	movq	%r15, %rax
	subq	%r12, %rax
	sarq	$3, %rax
	imulq	%r13, %rax
	cmpq	%rax, 16(%rdx)
	jb	.L448
.L445:
	cmpq	%r15, %r12
	je	.L449
	.p2align 4,,10
	.p2align 3
.L450:
	movq	%r12, %rdi
.LEHB9:
	call	_ZN9init_taskclEv
	addq	$24, %r12
	cmpq	%r12, %r15
	jne	.L450
.L449:
	movzbl	15(%rsp), %eax
	subl	$1, %r14d
	movb	%r14b, 18(%rsp)
	addl	$7, %eax
	andl	$7, %eax
	movb	%al, 16(%rsp)
.L448:
	testb	%r14b, %r14b
	je	.L453
	movq	-56(%rbx), %rdi
	call	_ZNK3tbb18task_group_context28is_group_execution_cancelledEv@PLT
	testb	%al, %al
	jne	.L453
	movzbl	52(%rbx), %esi
	jmp	.L436
	.p2align 4,,10
	.p2align 3
.L503:
	movzbl	16(%rsp), %eax
	movzbl	18(%rsp), %r14d
	movb	%al, 15(%rsp)
	leaq	(%rax,%rax,2), %rax
	leaq	0(%rbp,%rax,8), %rax
	movq	8(%rax), %r12
	movq	(%rax), %r15
	jmp	.L445
	.p2align 4,,10
	.p2align 3
.L504:
	movzbl	17(%rsp), %eax
	movl	$16, %esi
	movq	%rbx, %rdi
	movq	%rax, %r12
	movzbl	19(%rsp,%rax), %r14d
	call	_ZNK3tbb8internal27allocate_continuation_proxy8allocateEm@PLT
	leaq	16+_ZTVN3tbb10interface98internal9flag_taskE(%rip), %rsi
	movb	$1, -11(%rax)
	movq	%rsi, (%rax)
	movl	$56, %esi
	movb	$0, 8(%rax)
	movq	%rax, %rdi
	movq	%rax, -32(%rbx)
	movq	$2, -24(%rax)
	call	_ZNK3tbb8internal20allocate_child_proxy8allocateEm@PLT
	testq	%rax, %rax
	je	.L447
	leaq	(%r12,%r12,2), %rdx
	movb	$1, -11(%rax)
	leaq	16+_ZTVN3tbb10interface98internal9start_forINS_13blocked_rangeIN9__gnu_cxx17__normal_iteratorIP9init_taskSt6vectorIS6_SaIS6_EEEEEENS_8internal26parallel_for_each_body_forI7invokerIS6_ESB_EEKNS_16auto_partitionerEEE(%rip), %rsi
	salq	$3, %rdx
	movq	%rsi, (%rax)
	movdqu	32(%rsp,%rdx), %xmm0
	movq	48(%rsp,%rdx), %rdx
	movups	%xmm0, 8(%rax)
	movq	%rdx, 24(%rax)
	movq	32(%rbx), %rdx
	movq	%rdx, 32(%rax)
	movq	40(%rbx), %rdx
	shrq	%rdx
	movq	%rdx, 40(%rbx)
	movq	%rdx, 40(%rax)
	movl	$2, 48(%rax)
	movzbl	52(%rbx), %edx
	subl	%r14d, %edx
	movb	%dl, 52(%rax)
.L447:
	movq	-40(%rax), %rdi
	leaq	-8(%rax), %rdx
	movq	%rax, %rsi
	movq	(%rdi), %rcx
	call	*(%rcx)
.LEHE9:
	movzbl	18(%rsp), %eax
	leal	-1(%rax), %r14d
	movzbl	17(%rsp), %eax
	movb	%r14b, 18(%rsp)
	addl	$1, %eax
	andl	$7, %eax
	movb	%al, 17(%rsp)
	jmp	.L448
	.p2align 4,,10
	.p2align 3
.L457:
	movzbl	52(%rbx), %eax
	testb	%al, %al
	je	.L458
	subl	$1, %eax
	movq	$0, 40(%rbx)
	movb	%al, 52(%rbx)
	jmp	.L428
.L499:
	call	__stack_chk_fail@PLT
.L462:
.L456:
	movzbl	18(%rsp), %edx
	testb	%dl, %dl
	je	.L455
	subl	$1, %edx
	movb	%dl, 18(%rsp)
	jmp	.L456
.L455:
	movq	%rax, %rdi
.LEHB10:
	call	_Unwind_Resume@PLT
.LEHE10:
	.cfi_endproc
.LFE6644:
	.section	.gcc_except_table._ZN3tbb10interface98internal9start_forINS_13blocked_rangeIN9__gnu_cxx17__normal_iteratorIP9init_taskSt6vectorIS6_SaIS6_EEEEEENS_8internal26parallel_for_each_body_forI7invokerIS6_ESB_EEKNS_16auto_partitionerEE7executeEv,"aG",@progbits,_ZN3tbb10interface98internal9start_forINS_13blocked_rangeIN9__gnu_cxx17__normal_iteratorIP9init_taskSt6vectorIS6_SaIS6_EEEEEENS_8internal26parallel_for_each_body_forI7invokerIS6_ESB_EEKNS_16auto_partitionerEE7executeEv,comdat
.LLSDA6644:
	.byte	0xff
	.byte	0xff
	.byte	0x1
	.uleb128 .LLSDACSE6644-.LLSDACSB6644
.LLSDACSB6644:
	.uleb128 .LEHB8-.LFB6644
	.uleb128 .LEHE8-.LEHB8
	.uleb128 0
	.uleb128 0
	.uleb128 .LEHB9-.LFB6644
	.uleb128 .LEHE9-.LEHB9
	.uleb128 .L462-.LFB6644
	.uleb128 0
	.uleb128 .LEHB10-.LFB6644
	.uleb128 .LEHE10-.LEHB10
	.uleb128 0
	.uleb128 0
.LLSDACSE6644:
	.section	.text._ZN3tbb10interface98internal9start_forINS_13blocked_rangeIN9__gnu_cxx17__normal_iteratorIP9init_taskSt6vectorIS6_SaIS6_EEEEEENS_8internal26parallel_for_each_body_forI7invokerIS6_ESB_EEKNS_16auto_partitionerEE7executeEv,"axG",@progbits,_ZN3tbb10interface98internal9start_forINS_13blocked_rangeIN9__gnu_cxx17__normal_iteratorIP9init_taskSt6vectorIS6_SaIS6_EEEEEENS_8internal26parallel_for_each_body_forI7invokerIS6_ESB_EEKNS_16auto_partitionerEE7executeEv,comdat
	.size	_ZN3tbb10interface98internal9start_forINS_13blocked_rangeIN9__gnu_cxx17__normal_iteratorIP9init_taskSt6vectorIS6_SaIS6_EEEEEENS_8internal26parallel_for_each_body_forI7invokerIS6_ESB_EEKNS_16auto_partitionerEE7executeEv, .-_ZN3tbb10interface98internal9start_forINS_13blocked_rangeIN9__gnu_cxx17__normal_iteratorIP9init_taskSt6vectorIS6_SaIS6_EEEEEENS_8internal26parallel_for_each_body_forI7invokerIS6_ESB_EEKNS_16auto_partitionerEE7executeEv
	.section	.text._ZNSt6vectorI9init_taskSaIS0_EE17_M_realloc_insertIJS0_EEEvN9__gnu_cxx17__normal_iteratorIPS0_S2_EEDpOT_,"axG",@progbits,_ZNSt6vectorI9init_taskSaIS0_EE17_M_realloc_insertIJS0_EEEvN9__gnu_cxx17__normal_iteratorIPS0_S2_EEDpOT_,comdat
	.align 2
	.p2align 4,,15
	.weak	_ZNSt6vectorI9init_taskSaIS0_EE17_M_realloc_insertIJS0_EEEvN9__gnu_cxx17__normal_iteratorIPS0_S2_EEDpOT_
	.type	_ZNSt6vectorI9init_taskSaIS0_EE17_M_realloc_insertIJS0_EEEvN9__gnu_cxx17__normal_iteratorIPS0_S2_EEDpOT_, @function
_ZNSt6vectorI9init_taskSaIS0_EE17_M_realloc_insertIJS0_EEEvN9__gnu_cxx17__normal_iteratorIPS0_S2_EEDpOT_:
.LFB6238:
	.cfi_startproc
	pushq	%r15
	.cfi_def_cfa_offset 16
	.cfi_offset 15, -16
	pushq	%r14
	.cfi_def_cfa_offset 24
	.cfi_offset 14, -24
	movq	%rdx, %r15
	pushq	%r13
	.cfi_def_cfa_offset 32
	.cfi_offset 13, -32
	pushq	%r12
	.cfi_def_cfa_offset 40
	.cfi_offset 12, -40
	movabsq	$-6148914691236517205, %rdx
	pushq	%rbp
	.cfi_def_cfa_offset 48
	.cfi_offset 6, -48
	pushq	%rbx
	.cfi_def_cfa_offset 56
	.cfi_offset 3, -56
	movq	%rdi, %rbp
	movq	%rsi, %rbx
	movq	%rsi, %r14
	subq	$8, %rsp
	.cfi_def_cfa_offset 64
	movq	8(%rbp), %rax
	movq	(%rdi), %rdi
	movq	%rax, %rcx
	subq	%rdi, %rbx
	subq	%rdi, %rcx
	sarq	$3, %rcx
	imulq	%rdx, %rcx
	testq	%rcx, %rcx
	je	.L521
	leaq	(%rcx,%rcx), %rdx
	movq	$-16, %r13
	cmpq	%rdx, %rcx
	jbe	.L537
.L507:
	movq	%r13, %rdi
	call	_Znwm@PLT
	movq	0(%rbp), %rdi
	movq	%rax, %r12
	movq	8(%rbp), %rax
	leaq	24(%r12), %rcx
	addq	%r12, %r13
.L508:
	addq	%r12, %rbx
	je	.L509
	movdqu	(%r15), %xmm0
	movq	16(%r15), %rdx
	movups	%xmm0, (%rbx)
	movq	%rdx, 16(%rbx)
.L509:
	cmpq	%rdi, %r14
	je	.L510
	leaq	24(%rdi), %rdx
	movq	%r14, %rbx
	movq	%rdi, %r8
	subq	%rdx, %rbx
	movq	%rbx, %rdx
	shrq	$3, %rdx
	leaq	24(%r12,%rdx,8), %rcx
	movq	%r12, %rdx
	.p2align 4,,10
	.p2align 3
.L512:
	testq	%rdx, %rdx
	je	.L538
.L514:
	movdqu	(%r8), %xmm0
	addq	$24, %rdx
	addq	$24, %r8
	movups	%xmm0, -24(%rdx)
	movq	-8(%r8), %r9
	movq	%r9, -8(%rdx)
	cmpq	%rdx, %rcx
	jne	.L512
.L513:
	addq	$24, %rcx
.L510:
	cmpq	%rax, %r14
	je	.L526
	leaq	24(%r14), %rdx
	movq	%r14, %rsi
	subq	%rdx, %rax
	movq	%rax, %rdx
	shrq	$3, %rdx
	leaq	24(%rcx,%rdx,8), %rbx
	.p2align 4,,10
	.p2align 3
.L517:
	testq	%rcx, %rcx
	je	.L539
.L519:
	movq	16(%rsi), %rdx
	addq	$24, %rcx
	addq	$24, %rsi
	movdqu	-24(%rsi), %xmm0
	movq	%rdx, -8(%rcx)
	movups	%xmm0, -24(%rcx)
	cmpq	%rbx, %rcx
	jne	.L517
.L515:
	testq	%rdi, %rdi
	je	.L520
	call	_ZdlPv@PLT
.L520:
	movq	%r12, 0(%rbp)
	movq	%rbx, 8(%rbp)
	movq	%r13, 16(%rbp)
	addq	$8, %rsp
	.cfi_remember_state
	.cfi_def_cfa_offset 56
	popq	%rbx
	.cfi_def_cfa_offset 48
	popq	%rbp
	.cfi_def_cfa_offset 40
	popq	%r12
	.cfi_def_cfa_offset 32
	popq	%r13
	.cfi_def_cfa_offset 24
	popq	%r14
	.cfi_def_cfa_offset 16
	popq	%r15
	.cfi_def_cfa_offset 8
	ret
	.p2align 4,,10
	.p2align 3
.L521:
	.cfi_restore_state
	movl	$1, %edx
.L506:
	leaq	(%rdx,%rdx,2), %r13
	salq	$3, %r13
	jmp	.L507
	.p2align 4,,10
	.p2align 3
.L537:
	movabsq	$768614336404564650, %rcx
	cmpq	%rcx, %rdx
	ja	.L507
	testq	%rdx, %rdx
	jne	.L506
	movl	$24, %ecx
	xorl	%r13d, %r13d
	xorl	%r12d, %r12d
	jmp	.L508
	.p2align 4,,10
	.p2align 3
.L526:
	movq	%rcx, %rbx
	jmp	.L515
.L538:
	addq	$24, %r8
	cmpq	$24, %rcx
	je	.L513
	movl	$24, %edx
	jmp	.L514
.L539:
	addq	$24, %rsi
	cmpq	$24, %rbx
	je	.L515
	movl	$24, %ecx
	jmp	.L519
	.cfi_endproc
.LFE6238:
	.size	_ZNSt6vectorI9init_taskSaIS0_EE17_M_realloc_insertIJS0_EEEvN9__gnu_cxx17__normal_iteratorIPS0_S2_EEDpOT_, .-_ZNSt6vectorI9init_taskSaIS0_EE17_M_realloc_insertIJS0_EEEvN9__gnu_cxx17__normal_iteratorIPS0_S2_EEDpOT_
	.section	.text._ZN3tbb10interface98internal9start_forINS_13blocked_rangeIN9__gnu_cxx17__normal_iteratorIP9init_taskSt6vectorIS6_SaIS6_EEEEEENS_8internal26parallel_for_each_body_forI7invokerIS6_ESB_EEKNS_16auto_partitionerEE3runERKSC_RKSH_RSJ_,"axG",@progbits,_ZN3tbb10interface98internal9start_forINS_13blocked_rangeIN9__gnu_cxx17__normal_iteratorIP9init_taskSt6vectorIS6_SaIS6_EEEEEENS_8internal26parallel_for_each_body_forI7invokerIS6_ESB_EEKNS_16auto_partitionerEE3runERKSC_RKSH_RSJ_,comdat
	.p2align 4,,15
	.weak	_ZN3tbb10interface98internal9start_forINS_13blocked_rangeIN9__gnu_cxx17__normal_iteratorIP9init_taskSt6vectorIS6_SaIS6_EEEEEENS_8internal26parallel_for_each_body_forI7invokerIS6_ESB_EEKNS_16auto_partitionerEE3runERKSC_RKSH_RSJ_
	.type	_ZN3tbb10interface98internal9start_forINS_13blocked_rangeIN9__gnu_cxx17__normal_iteratorIP9init_taskSt6vectorIS6_SaIS6_EEEEEENS_8internal26parallel_for_each_body_forI7invokerIS6_ESB_EEKNS_16auto_partitionerEE3runERKSC_RKSH_RSJ_, @function
_ZN3tbb10interface98internal9start_forINS_13blocked_rangeIN9__gnu_cxx17__normal_iteratorIP9init_taskSt6vectorIS6_SaIS6_EEEEEENS_8internal26parallel_for_each_body_forI7invokerIS6_ESB_EEKNS_16auto_partitionerEE3runERKSC_RKSH_RSJ_:
.LFB6398:
	.cfi_startproc
	.cfi_personality 0x9b,DW.ref.__gxx_personality_v0
	.cfi_lsda 0x1b,.LLSDA6398
	pushq	%r14
	.cfi_def_cfa_offset 16
	.cfi_offset 14, -16
	pushq	%r13
	.cfi_def_cfa_offset 24
	.cfi_offset 13, -24
	pushq	%r12
	.cfi_def_cfa_offset 32
	.cfi_offset 12, -32
	pushq	%rbp
	.cfi_def_cfa_offset 40
	.cfi_offset 6, -40
	pushq	%rbx
	.cfi_def_cfa_offset 48
	.cfi_offset 3, -48
	subq	$288, %rsp
	.cfi_def_cfa_offset 336
	movq	%fs:40, %rax
	movq	%rax, 280(%rsp)
	xorl	%eax, %eax
	movq	(%rdi), %rax
	cmpq	%rax, 8(%rdi)
	jb	.L548
.L540:
	movq	280(%rsp), %rax
	xorq	%fs:40, %rax
	jne	.L549
	addq	$288, %rsp
	.cfi_remember_state
	.cfi_def_cfa_offset 48
	popq	%rbx
	.cfi_def_cfa_offset 40
	popq	%rbp
	.cfi_def_cfa_offset 32
	popq	%r12
	.cfi_def_cfa_offset 24
	popq	%r13
	.cfi_def_cfa_offset 16
	popq	%r14
	.cfi_def_cfa_offset 8
	ret
	.p2align 4,,10
	.p2align 3
.L548:
	.cfi_restore_state
	leaq	16(%rsp), %r12
	leaq	8(%rsp), %r14
	movq	%rdi, %rbp
	movq	%rsi, %r13
	movl	$1, 16(%rsp)
	movq	$65538, 144(%rsp)
	movq	%r12, %rdi
.LEHB11:
	call	_ZN3tbb18task_group_context4initEv@PLT
.LEHE11:
	movl	$56, %esi
	movq	%r14, %rdi
	movq	%r12, 8(%rsp)
.LEHB12:
	call	_ZNK3tbb8internal32allocate_root_with_context_proxy8allocateEm@PLT
.LEHE12:
	movb	$1, -11(%rax)
	movq	%rax, %rbx
	leaq	16+_ZTVN3tbb10interface98internal9start_forINS_13blocked_rangeIN9__gnu_cxx17__normal_iteratorIP9init_taskSt6vectorIS6_SaIS6_EEEEEENS_8internal26parallel_for_each_body_forI7invokerIS6_ESB_EEKNS_16auto_partitionerEEE(%rip), %rax
	movdqu	0(%rbp), %xmm0
	movq	%rax, (%rbx)
	movups	%xmm0, 8(%rbx)
	movq	16(%rbp), %rax
	movq	%rax, 24(%rbx)
	movq	0(%r13), %rax
	movq	%rax, 32(%rbx)
.LEHB13:
	call	_ZN3tbb8internal36get_initial_auto_partitioner_divisorEv@PLT
.LEHE13:
	movq	-40(%rbx), %rdi
	shrq	$2, %rax
	movb	$5, 52(%rbx)
	addq	%rax, %rax
	movl	$0, 48(%rbx)
	leaq	-8(%rbx), %rdx
	movq	%rax, 40(%rbx)
	movq	%rbx, %rsi
	movq	(%rdi), %rax
.LEHB14:
	call	*16(%rax)
.LEHE14:
	movq	%r12, %rdi
	call	_ZN3tbb18task_group_contextD1Ev@PLT
	jmp	.L540
.L549:
	call	__stack_chk_fail@PLT
.L546:
	movq	%rax, %rbp
.L543:
	movq	%r12, %rdi
	call	_ZN3tbb18task_group_contextD1Ev@PLT
	movq	%rbp, %rdi
.LEHB15:
	call	_Unwind_Resume@PLT
.LEHE15:
.L545:
	movq	%rbx, %rsi
	movq	%r14, %rdi
	movq	%rax, %rbp
	call	_ZNK3tbb8internal32allocate_root_with_context_proxy4freeERNS_4taskE@PLT
	jmp	.L543
	.cfi_endproc
.LFE6398:
	.section	.gcc_except_table._ZN3tbb10interface98internal9start_forINS_13blocked_rangeIN9__gnu_cxx17__normal_iteratorIP9init_taskSt6vectorIS6_SaIS6_EEEEEENS_8internal26parallel_for_each_body_forI7invokerIS6_ESB_EEKNS_16auto_partitionerEE3runERKSC_RKSH_RSJ_,"aG",@progbits,_ZN3tbb10interface98internal9start_forINS_13blocked_rangeIN9__gnu_cxx17__normal_iteratorIP9init_taskSt6vectorIS6_SaIS6_EEEEEENS_8internal26parallel_for_each_body_forI7invokerIS6_ESB_EEKNS_16auto_partitionerEE3runERKSC_RKSH_RSJ_,comdat
.LLSDA6398:
	.byte	0xff
	.byte	0xff
	.byte	0x1
	.uleb128 .LLSDACSE6398-.LLSDACSB6398
.LLSDACSB6398:
	.uleb128 .LEHB11-.LFB6398
	.uleb128 .LEHE11-.LEHB11
	.uleb128 0
	.uleb128 0
	.uleb128 .LEHB12-.LFB6398
	.uleb128 .LEHE12-.LEHB12
	.uleb128 .L546-.LFB6398
	.uleb128 0
	.uleb128 .LEHB13-.LFB6398
	.uleb128 .LEHE13-.LEHB13
	.uleb128 .L545-.LFB6398
	.uleb128 0
	.uleb128 .LEHB14-.LFB6398
	.uleb128 .LEHE14-.LEHB14
	.uleb128 .L546-.LFB6398
	.uleb128 0
	.uleb128 .LEHB15-.LFB6398
	.uleb128 .LEHE15-.LEHB15
	.uleb128 0
	.uleb128 0
.LLSDACSE6398:
	.section	.text._ZN3tbb10interface98internal9start_forINS_13blocked_rangeIN9__gnu_cxx17__normal_iteratorIP9init_taskSt6vectorIS6_SaIS6_EEEEEENS_8internal26parallel_for_each_body_forI7invokerIS6_ESB_EEKNS_16auto_partitionerEE3runERKSC_RKSH_RSJ_,"axG",@progbits,_ZN3tbb10interface98internal9start_forINS_13blocked_rangeIN9__gnu_cxx17__normal_iteratorIP9init_taskSt6vectorIS6_SaIS6_EEEEEENS_8internal26parallel_for_each_body_forI7invokerIS6_ESB_EEKNS_16auto_partitionerEE3runERKSC_RKSH_RSJ_,comdat
	.size	_ZN3tbb10interface98internal9start_forINS_13blocked_rangeIN9__gnu_cxx17__normal_iteratorIP9init_taskSt6vectorIS6_SaIS6_EEEEEENS_8internal26parallel_for_each_body_forI7invokerIS6_ESB_EEKNS_16auto_partitionerEE3runERKSC_RKSH_RSJ_, .-_ZN3tbb10interface98internal9start_forINS_13blocked_rangeIN9__gnu_cxx17__normal_iteratorIP9init_taskSt6vectorIS6_SaIS6_EEEEEENS_8internal26parallel_for_each_body_forI7invokerIS6_ESB_EEKNS_16auto_partitionerEE3runERKSC_RKSH_RSJ_
	.section	.text._ZN3tbb10interface98internal9start_forINS_13blocked_rangeIN9__gnu_cxx17__normal_iteratorIP11access_taskSt6vectorIS6_SaIS6_EEEEEENS_8internal26parallel_for_each_body_forI7invokerIS6_ESB_EEKNS_16auto_partitionerEE3runERKSC_RKSH_RSJ_,"axG",@progbits,_ZN3tbb10interface98internal9start_forINS_13blocked_rangeIN9__gnu_cxx17__normal_iteratorIP11access_taskSt6vectorIS6_SaIS6_EEEEEENS_8internal26parallel_for_each_body_forI7invokerIS6_ESB_EEKNS_16auto_partitionerEE3runERKSC_RKSH_RSJ_,comdat
	.p2align 4,,15
	.weak	_ZN3tbb10interface98internal9start_forINS_13blocked_rangeIN9__gnu_cxx17__normal_iteratorIP11access_taskSt6vectorIS6_SaIS6_EEEEEENS_8internal26parallel_for_each_body_forI7invokerIS6_ESB_EEKNS_16auto_partitionerEE3runERKSC_RKSH_RSJ_
	.type	_ZN3tbb10interface98internal9start_forINS_13blocked_rangeIN9__gnu_cxx17__normal_iteratorIP11access_taskSt6vectorIS6_SaIS6_EEEEEENS_8internal26parallel_for_each_body_forI7invokerIS6_ESB_EEKNS_16auto_partitionerEE3runERKSC_RKSH_RSJ_, @function
_ZN3tbb10interface98internal9start_forINS_13blocked_rangeIN9__gnu_cxx17__normal_iteratorIP11access_taskSt6vectorIS6_SaIS6_EEEEEENS_8internal26parallel_for_each_body_forI7invokerIS6_ESB_EEKNS_16auto_partitionerEE3runERKSC_RKSH_RSJ_:
.LFB6406:
	.cfi_startproc
	.cfi_personality 0x9b,DW.ref.__gxx_personality_v0
	.cfi_lsda 0x1b,.LLSDA6406
	pushq	%r14
	.cfi_def_cfa_offset 16
	.cfi_offset 14, -16
	pushq	%r13
	.cfi_def_cfa_offset 24
	.cfi_offset 13, -24
	pushq	%r12
	.cfi_def_cfa_offset 32
	.cfi_offset 12, -32
	pushq	%rbp
	.cfi_def_cfa_offset 40
	.cfi_offset 6, -40
	pushq	%rbx
	.cfi_def_cfa_offset 48
	.cfi_offset 3, -48
	subq	$288, %rsp
	.cfi_def_cfa_offset 336
	movq	%fs:40, %rax
	movq	%rax, 280(%rsp)
	xorl	%eax, %eax
	movq	(%rdi), %rax
	cmpq	%rax, 8(%rdi)
	jb	.L558
.L550:
	movq	280(%rsp), %rax
	xorq	%fs:40, %rax
	jne	.L559
	addq	$288, %rsp
	.cfi_remember_state
	.cfi_def_cfa_offset 48
	popq	%rbx
	.cfi_def_cfa_offset 40
	popq	%rbp
	.cfi_def_cfa_offset 32
	popq	%r12
	.cfi_def_cfa_offset 24
	popq	%r13
	.cfi_def_cfa_offset 16
	popq	%r14
	.cfi_def_cfa_offset 8
	ret
	.p2align 4,,10
	.p2align 3
.L558:
	.cfi_restore_state
	leaq	16(%rsp), %r12
	leaq	8(%rsp), %r14
	movq	%rdi, %rbp
	movq	%rsi, %r13
	movl	$1, 16(%rsp)
	movq	$65538, 144(%rsp)
	movq	%r12, %rdi
.LEHB16:
	call	_ZN3tbb18task_group_context4initEv@PLT
.LEHE16:
	movl	$56, %esi
	movq	%r14, %rdi
	movq	%r12, 8(%rsp)
.LEHB17:
	call	_ZNK3tbb8internal32allocate_root_with_context_proxy8allocateEm@PLT
.LEHE17:
	movb	$1, -11(%rax)
	movq	%rax, %rbx
	leaq	16+_ZTVN3tbb10interface98internal9start_forINS_13blocked_rangeIN9__gnu_cxx17__normal_iteratorIP11access_taskSt6vectorIS6_SaIS6_EEEEEENS_8internal26parallel_for_each_body_forI7invokerIS6_ESB_EEKNS_16auto_partitionerEEE(%rip), %rax
	movdqu	0(%rbp), %xmm0
	movq	%rax, (%rbx)
	movups	%xmm0, 8(%rbx)
	movq	16(%rbp), %rax
	movq	%rax, 24(%rbx)
	movq	0(%r13), %rax
	movq	%rax, 32(%rbx)
.LEHB18:
	call	_ZN3tbb8internal36get_initial_auto_partitioner_divisorEv@PLT
.LEHE18:
	movq	-40(%rbx), %rdi
	shrq	$2, %rax
	movb	$5, 52(%rbx)
	addq	%rax, %rax
	movl	$0, 48(%rbx)
	leaq	-8(%rbx), %rdx
	movq	%rax, 40(%rbx)
	movq	%rbx, %rsi
	movq	(%rdi), %rax
.LEHB19:
	call	*16(%rax)
.LEHE19:
	movq	%r12, %rdi
	call	_ZN3tbb18task_group_contextD1Ev@PLT
	jmp	.L550
.L559:
	call	__stack_chk_fail@PLT
.L556:
	movq	%rax, %rbp
.L553:
	movq	%r12, %rdi
	call	_ZN3tbb18task_group_contextD1Ev@PLT
	movq	%rbp, %rdi
.LEHB20:
	call	_Unwind_Resume@PLT
.LEHE20:
.L555:
	movq	%rbx, %rsi
	movq	%r14, %rdi
	movq	%rax, %rbp
	call	_ZNK3tbb8internal32allocate_root_with_context_proxy4freeERNS_4taskE@PLT
	jmp	.L553
	.cfi_endproc
.LFE6406:
	.section	.gcc_except_table._ZN3tbb10interface98internal9start_forINS_13blocked_rangeIN9__gnu_cxx17__normal_iteratorIP11access_taskSt6vectorIS6_SaIS6_EEEEEENS_8internal26parallel_for_each_body_forI7invokerIS6_ESB_EEKNS_16auto_partitionerEE3runERKSC_RKSH_RSJ_,"aG",@progbits,_ZN3tbb10interface98internal9start_forINS_13blocked_rangeIN9__gnu_cxx17__normal_iteratorIP11access_taskSt6vectorIS6_SaIS6_EEEEEENS_8internal26parallel_for_each_body_forI7invokerIS6_ESB_EEKNS_16auto_partitionerEE3runERKSC_RKSH_RSJ_,comdat
.LLSDA6406:
	.byte	0xff
	.byte	0xff
	.byte	0x1
	.uleb128 .LLSDACSE6406-.LLSDACSB6406
.LLSDACSB6406:
	.uleb128 .LEHB16-.LFB6406
	.uleb128 .LEHE16-.LEHB16
	.uleb128 0
	.uleb128 0
	.uleb128 .LEHB17-.LFB6406
	.uleb128 .LEHE17-.LEHB17
	.uleb128 .L556-.LFB6406
	.uleb128 0
	.uleb128 .LEHB18-.LFB6406
	.uleb128 .LEHE18-.LEHB18
	.uleb128 .L555-.LFB6406
	.uleb128 0
	.uleb128 .LEHB19-.LFB6406
	.uleb128 .LEHE19-.LEHB19
	.uleb128 .L556-.LFB6406
	.uleb128 0
	.uleb128 .LEHB20-.LFB6406
	.uleb128 .LEHE20-.LEHB20
	.uleb128 0
	.uleb128 0
.LLSDACSE6406:
	.section	.text._ZN3tbb10interface98internal9start_forINS_13blocked_rangeIN9__gnu_cxx17__normal_iteratorIP11access_taskSt6vectorIS6_SaIS6_EEEEEENS_8internal26parallel_for_each_body_forI7invokerIS6_ESB_EEKNS_16auto_partitionerEE3runERKSC_RKSH_RSJ_,"axG",@progbits,_ZN3tbb10interface98internal9start_forINS_13blocked_rangeIN9__gnu_cxx17__normal_iteratorIP11access_taskSt6vectorIS6_SaIS6_EEEEEENS_8internal26parallel_for_each_body_forI7invokerIS6_ESB_EEKNS_16auto_partitionerEE3runERKSC_RKSH_RSJ_,comdat
	.size	_ZN3tbb10interface98internal9start_forINS_13blocked_rangeIN9__gnu_cxx17__normal_iteratorIP11access_taskSt6vectorIS6_SaIS6_EEEEEENS_8internal26parallel_for_each_body_forI7invokerIS6_ESB_EEKNS_16auto_partitionerEE3runERKSC_RKSH_RSJ_, .-_ZN3tbb10interface98internal9start_forINS_13blocked_rangeIN9__gnu_cxx17__normal_iteratorIP11access_taskSt6vectorIS6_SaIS6_EEEEEENS_8internal26parallel_for_each_body_forI7invokerIS6_ESB_EEKNS_16auto_partitionerEE3runERKSC_RKSH_RSJ_
	.section	.text._ZN3tbb10interface98internal9start_forINS_13blocked_rangeIN9__gnu_cxx17__normal_iteratorIP14tear_down_taskSt6vectorIS6_SaIS6_EEEEEENS_8internal26parallel_for_each_body_forI7invokerIS6_ESB_EEKNS_16auto_partitionerEE3runERKSC_RKSH_RSJ_,"axG",@progbits,_ZN3tbb10interface98internal9start_forINS_13blocked_rangeIN9__gnu_cxx17__normal_iteratorIP14tear_down_taskSt6vectorIS6_SaIS6_EEEEEENS_8internal26parallel_for_each_body_forI7invokerIS6_ESB_EEKNS_16auto_partitionerEE3runERKSC_RKSH_RSJ_,comdat
	.p2align 4,,15
	.weak	_ZN3tbb10interface98internal9start_forINS_13blocked_rangeIN9__gnu_cxx17__normal_iteratorIP14tear_down_taskSt6vectorIS6_SaIS6_EEEEEENS_8internal26parallel_for_each_body_forI7invokerIS6_ESB_EEKNS_16auto_partitionerEE3runERKSC_RKSH_RSJ_
	.type	_ZN3tbb10interface98internal9start_forINS_13blocked_rangeIN9__gnu_cxx17__normal_iteratorIP14tear_down_taskSt6vectorIS6_SaIS6_EEEEEENS_8internal26parallel_for_each_body_forI7invokerIS6_ESB_EEKNS_16auto_partitionerEE3runERKSC_RKSH_RSJ_, @function
_ZN3tbb10interface98internal9start_forINS_13blocked_rangeIN9__gnu_cxx17__normal_iteratorIP14tear_down_taskSt6vectorIS6_SaIS6_EEEEEENS_8internal26parallel_for_each_body_forI7invokerIS6_ESB_EEKNS_16auto_partitionerEE3runERKSC_RKSH_RSJ_:
.LFB6414:
	.cfi_startproc
	.cfi_personality 0x9b,DW.ref.__gxx_personality_v0
	.cfi_lsda 0x1b,.LLSDA6414
	pushq	%r14
	.cfi_def_cfa_offset 16
	.cfi_offset 14, -16
	pushq	%r13
	.cfi_def_cfa_offset 24
	.cfi_offset 13, -24
	pushq	%r12
	.cfi_def_cfa_offset 32
	.cfi_offset 12, -32
	pushq	%rbp
	.cfi_def_cfa_offset 40
	.cfi_offset 6, -40
	pushq	%rbx
	.cfi_def_cfa_offset 48
	.cfi_offset 3, -48
	subq	$288, %rsp
	.cfi_def_cfa_offset 336
	movq	%fs:40, %rax
	movq	%rax, 280(%rsp)
	xorl	%eax, %eax
	movq	(%rdi), %rax
	cmpq	%rax, 8(%rdi)
	jb	.L568
.L560:
	movq	280(%rsp), %rax
	xorq	%fs:40, %rax
	jne	.L569
	addq	$288, %rsp
	.cfi_remember_state
	.cfi_def_cfa_offset 48
	popq	%rbx
	.cfi_def_cfa_offset 40
	popq	%rbp
	.cfi_def_cfa_offset 32
	popq	%r12
	.cfi_def_cfa_offset 24
	popq	%r13
	.cfi_def_cfa_offset 16
	popq	%r14
	.cfi_def_cfa_offset 8
	ret
	.p2align 4,,10
	.p2align 3
.L568:
	.cfi_restore_state
	leaq	16(%rsp), %r12
	leaq	8(%rsp), %r14
	movq	%rdi, %rbp
	movq	%rsi, %r13
	movl	$1, 16(%rsp)
	movq	$65538, 144(%rsp)
	movq	%r12, %rdi
.LEHB21:
	call	_ZN3tbb18task_group_context4initEv@PLT
.LEHE21:
	movl	$56, %esi
	movq	%r14, %rdi
	movq	%r12, 8(%rsp)
.LEHB22:
	call	_ZNK3tbb8internal32allocate_root_with_context_proxy8allocateEm@PLT
.LEHE22:
	movb	$1, -11(%rax)
	movq	%rax, %rbx
	leaq	16+_ZTVN3tbb10interface98internal9start_forINS_13blocked_rangeIN9__gnu_cxx17__normal_iteratorIP14tear_down_taskSt6vectorIS6_SaIS6_EEEEEENS_8internal26parallel_for_each_body_forI7invokerIS6_ESB_EEKNS_16auto_partitionerEEE(%rip), %rax
	movdqu	0(%rbp), %xmm0
	movq	%rax, (%rbx)
	movups	%xmm0, 8(%rbx)
	movq	16(%rbp), %rax
	movq	%rax, 24(%rbx)
	movq	0(%r13), %rax
	movq	%rax, 32(%rbx)
.LEHB23:
	call	_ZN3tbb8internal36get_initial_auto_partitioner_divisorEv@PLT
.LEHE23:
	movq	-40(%rbx), %rdi
	shrq	$2, %rax
	movb	$5, 52(%rbx)
	addq	%rax, %rax
	movl	$0, 48(%rbx)
	leaq	-8(%rbx), %rdx
	movq	%rax, 40(%rbx)
	movq	%rbx, %rsi
	movq	(%rdi), %rax
.LEHB24:
	call	*16(%rax)
.LEHE24:
	movq	%r12, %rdi
	call	_ZN3tbb18task_group_contextD1Ev@PLT
	jmp	.L560
.L569:
	call	__stack_chk_fail@PLT
.L566:
	movq	%rax, %rbp
.L563:
	movq	%r12, %rdi
	call	_ZN3tbb18task_group_contextD1Ev@PLT
	movq	%rbp, %rdi
.LEHB25:
	call	_Unwind_Resume@PLT
.LEHE25:
.L565:
	movq	%rbx, %rsi
	movq	%r14, %rdi
	movq	%rax, %rbp
	call	_ZNK3tbb8internal32allocate_root_with_context_proxy4freeERNS_4taskE@PLT
	jmp	.L563
	.cfi_endproc
.LFE6414:
	.section	.gcc_except_table._ZN3tbb10interface98internal9start_forINS_13blocked_rangeIN9__gnu_cxx17__normal_iteratorIP14tear_down_taskSt6vectorIS6_SaIS6_EEEEEENS_8internal26parallel_for_each_body_forI7invokerIS6_ESB_EEKNS_16auto_partitionerEE3runERKSC_RKSH_RSJ_,"aG",@progbits,_ZN3tbb10interface98internal9start_forINS_13blocked_rangeIN9__gnu_cxx17__normal_iteratorIP14tear_down_taskSt6vectorIS6_SaIS6_EEEEEENS_8internal26parallel_for_each_body_forI7invokerIS6_ESB_EEKNS_16auto_partitionerEE3runERKSC_RKSH_RSJ_,comdat
.LLSDA6414:
	.byte	0xff
	.byte	0xff
	.byte	0x1
	.uleb128 .LLSDACSE6414-.LLSDACSB6414
.LLSDACSB6414:
	.uleb128 .LEHB21-.LFB6414
	.uleb128 .LEHE21-.LEHB21
	.uleb128 0
	.uleb128 0
	.uleb128 .LEHB22-.LFB6414
	.uleb128 .LEHE22-.LEHB22
	.uleb128 .L566-.LFB6414
	.uleb128 0
	.uleb128 .LEHB23-.LFB6414
	.uleb128 .LEHE23-.LEHB23
	.uleb128 .L565-.LFB6414
	.uleb128 0
	.uleb128 .LEHB24-.LFB6414
	.uleb128 .LEHE24-.LEHB24
	.uleb128 .L566-.LFB6414
	.uleb128 0
	.uleb128 .LEHB25-.LFB6414
	.uleb128 .LEHE25-.LEHB25
	.uleb128 0
	.uleb128 0
.LLSDACSE6414:
	.section	.text._ZN3tbb10interface98internal9start_forINS_13blocked_rangeIN9__gnu_cxx17__normal_iteratorIP14tear_down_taskSt6vectorIS6_SaIS6_EEEEEENS_8internal26parallel_for_each_body_forI7invokerIS6_ESB_EEKNS_16auto_partitionerEE3runERKSC_RKSH_RSJ_,"axG",@progbits,_ZN3tbb10interface98internal9start_forINS_13blocked_rangeIN9__gnu_cxx17__normal_iteratorIP14tear_down_taskSt6vectorIS6_SaIS6_EEEEEENS_8internal26parallel_for_each_body_forI7invokerIS6_ESB_EEKNS_16auto_partitionerEE3runERKSC_RKSH_RSJ_,comdat
	.size	_ZN3tbb10interface98internal9start_forINS_13blocked_rangeIN9__gnu_cxx17__normal_iteratorIP14tear_down_taskSt6vectorIS6_SaIS6_EEEEEENS_8internal26parallel_for_each_body_forI7invokerIS6_ESB_EEKNS_16auto_partitionerEE3runERKSC_RKSH_RSJ_, .-_ZN3tbb10interface98internal9start_forINS_13blocked_rangeIN9__gnu_cxx17__normal_iteratorIP14tear_down_taskSt6vectorIS6_SaIS6_EEEEEENS_8internal26parallel_for_each_body_forI7invokerIS6_ESB_EEKNS_16auto_partitionerEE3runERKSC_RKSH_RSJ_
	.section	.rodata.str1.8,"aMS",@progbits,1
	.align 8
.LC14:
	.string	"Failure in allocating dummy buffers, aborting"
	.section	.rodata.str1.1,"aMS",@progbits,1
.LC15:
	.string	"vector::_M_realloc_insert"
	.section	.rodata.str1.8
	.align 8
.LC16:
	.string	"# Initialization done! strating test..."
	.align 8
.LC17:
	.string	"********************************************"
	.section	.rodata.str1.1
.LC19:
	.string	"# Elapsed time: "
.LC20:
	.string	" seconds"
.LC25:
	.string	"# Bandwidth: "
.LC26:
	.string	" GiB per second"
	.section	.text.startup,"ax",@progbits
	.p2align 4,,15
	.globl	main
	.type	main, @function
main:
.LFB5218:
	.cfi_startproc
	.cfi_personality 0x9b,DW.ref.__gxx_personality_v0
	.cfi_lsda 0x1b,.LLSDA5218
	pushq	%r15
	.cfi_def_cfa_offset 16
	.cfi_offset 15, -16
	pxor	%xmm0, %xmm0
	pushq	%r14
	.cfi_def_cfa_offset 24
	.cfi_offset 14, -24
	pushq	%r13
	.cfi_def_cfa_offset 32
	.cfi_offset 13, -32
	pushq	%r12
	.cfi_def_cfa_offset 40
	.cfi_offset 12, -40
	pushq	%rbp
	.cfi_def_cfa_offset 48
	.cfi_offset 6, -48
	movq	%rsi, %rbp
	pushq	%rbx
	.cfi_def_cfa_offset 56
	.cfi_offset 3, -56
	movl	%edi, %ebx
	movl	$84, %edi
	subq	$264, %rsp
	.cfi_def_cfa_offset 320
	movq	%fs:40, %rax
	movq	%rax, 248(%rsp)
	xorl	%eax, %eax
	movaps	%xmm0, 96(%rsp)
	movq	$0, 112(%rsp)
	call	sysconf@PLT
	leaq	128(%rsp), %rdx
	movq	%rbp, %rsi
	movl	%ebx, %edi
	movl	%eax, cpus_num(%rip)
.LEHB26:
	call	_Z9parse_cmdiPPcP10cmd_params@PLT
.LEHE26:
	leaq	64(%rsp), %rax
	movl	128(%rsp), %esi
	movl	$1, %edx
	movq	$0, 64(%rsp)
	movq	%rax, %rdi
	movq	%rax, 32(%rsp)
.LEHB27:
	call	_ZN3tbb19task_scheduler_init10initializeEim@PLT
.LEHE27:
	movl	128(%rsp), %eax
	movq	104(%rsp), %rsi
	leaq	224(%rsp), %r14
	testl	%eax, %eax
	je	.L576
	xorl	%ebx, %ebx
	leaq	224(%rsp), %r14
	leaq	96(%rsp), %rbp
	jmp	.L583
	.p2align 4,,10
	.p2align 3
.L700:
	testq	%rsi, %rsi
	je	.L578
	movdqa	224(%rsp), %xmm0
	movups	%xmm0, (%rsi)
	movq	240(%rsp), %rax
	movq	%rax, 16(%rsi)
.L578:
	addq	$24, %rsi
	addl	$1, %ebx
	cmpl	%ebx, 128(%rsp)
	movq	%rsi, 104(%rsp)
	jbe	.L576
.L583:
	movq	136(%rsp), %rax
	cmpq	%rsi, 112(%rsp)
	movl	%ebx, 224(%rsp)
	movq	%rax, 232(%rsp)
	movl	144(%rsp), %eax
	movl	%eax, 240(%rsp)
	movl	148(%rsp), %eax
	movl	%eax, 244(%rsp)
	jne	.L700
	movq	%r14, %rdx
	movq	%rbp, %rdi
.LEHB28:
	call	_ZNSt6vectorI9init_taskSaIS0_EE17_M_realloc_insertIJS0_EEEvN9__gnu_cxx17__normal_iteratorIPS0_S2_EEDpOT_
.LEHE28:
	addl	$1, %ebx
	cmpl	%ebx, 128(%rsp)
	movq	104(%rsp), %rsi
	ja	.L583
	.p2align 4,,10
	.p2align 3
.L576:
	movq	96(%rsp), %rax
	movq	%rsi, 160(%rsp)
	leaq	61(%rsp), %rdx
	leaq	72(%rsp), %rsi
	leaq	160(%rsp), %rdi
	movq	%r14, 72(%rsp)
	movq	$1, 176(%rsp)
	movq	%rax, 168(%rsp)
.LEHB29:
	call	_ZN3tbb10interface98internal9start_forINS_13blocked_rangeIN9__gnu_cxx17__normal_iteratorIP9init_taskSt6vectorIS6_SaIS6_EEEEEENS_8internal26parallel_for_each_body_forI7invokerIS6_ESB_EEKNS_16auto_partitionerEE3runERKSC_RKSH_RSJ_
.LEHE29:
	movl	$134217728, %edi
	call	malloc@PLT
	movl	$134217728, %edi
	movq	%rax, %rbp
	call	malloc@PLT
	testq	%rbp, %rbp
	movq	%rax, %rbx
	je	.L653
	testq	%rax, %rax
	je	.L653
	movq	%rbp, %rdi
	call	free@PLT
	movq	%rbx, %rdi
	call	free@PLT
	movl	128(%rsp), %edx
	testl	%edx, %edx
	je	.L633
	xorl	%r12d, %r12d
	xorl	%ebx, %ebx
	xorl	%r13d, %r13d
	xorl	%ebp, %ebp
	jmp	.L600
	.p2align 4,,10
	.p2align 3
.L701:
	addl	$1, %ebp
	addq	$1, %rbx
	cmpl	%edx, %ebp
	jnb	.L590
.L600:
	cmpq	%r12, %rbx
	jne	.L701
	subq	%r13, %rbx
	cmpq	$-1, %rbx
	je	.L702
	testq	%rbx, %rbx
	movl	$1, %r15d
	je	.L595
	leaq	(%rbx,%rbx), %r15
	movq	$-1, %rax
	cmpq	%r15, %rbx
	cmova	%rax, %r15
.L595:
	movq	%r15, %rdi
.LEHB30:
	call	_Znwm@PLT
.LEHE30:
	cmpq	%r13, %r12
	je	.L703
	subq	%r13, %r12
	leaq	(%rax,%r12), %rbx
.L598:
	addq	$1, %rbx
	testq	%r13, %r13
	je	.L599
	movq	%r13, %rdi
	movq	%rax, (%rsp)
	call	_ZdlPv@PLT
	movq	(%rsp), %rax
.L599:
	movl	128(%rsp), %edx
	addl	$1, %ebp
	leaq	(%rax,%r15), %r12
	movq	%rax, %r13
	cmpl	%edx, %ebp
	jb	.L600
	.p2align 4,,10
	.p2align 3
.L590:
	leaq	.LC16(%rip), %rsi
	leaq	_ZSt4cout(%rip), %rdi
	movl	$39, %edx
.LEHB31:
	call	_ZSt16__ostream_insertIcSt11char_traitsIcEERSt13basic_ostreamIT_T0_ES6_PKS3_l@PLT
.LEHE31:
	leaq	_ZSt4cout(%rip), %rdi
.LEHB32:
	call	_ZSt4endlIcSt11char_traitsIcEERSt13basic_ostreamIT_T0_ES6_@PLT
.LEHE32:
	leaq	.LC17(%rip), %rsi
	movl	$44, %edx
	movq	%rax, %rdi
	movq	%rax, %rbp
.LEHB33:
	call	_ZSt16__ostream_insertIcSt11char_traitsIcEERSt13basic_ostreamIT_T0_ES6_PKS3_l@PLT
.LEHE33:
	movq	%rbp, %rdi
.LEHB34:
	call	_ZSt4endlIcSt11char_traitsIcEERSt13basic_ostreamIT_T0_ES6_@PLT
.LEHE34:
	movq	%rbx, (%rsp)
	movq	%r14, %rsi
	xorl	%edi, %edi
	movq	(%rsp), %xmm0
	movq	%r13, (%rsp)
	movhps	(%rsp), %xmm0
	movaps	%xmm0, (%rsp)
	call	clock_gettime@PLT
	leaq	192(%rsp), %rax
	leaq	62(%rsp), %rdx
	leaq	80(%rsp), %rsi
	imulq	$1000000000, 224(%rsp), %rbx
	movdqa	(%rsp), %xmm0
	movq	%rax, %rdi
	movq	%r14, 80(%rsp)
	movq	$1, 208(%rsp)
	movaps	%xmm0, 192(%rsp)
	addq	232(%rsp), %rbx
	movq	%rax, 24(%rsp)
.LEHB35:
	call	_ZN3tbb10interface98internal9start_forINS_13blocked_rangeIN9__gnu_cxx17__normal_iteratorIP11access_taskSt6vectorIS6_SaIS6_EEEEEENS_8internal26parallel_for_each_body_forI7invokerIS6_ESB_EEKNS_16auto_partitionerEE3runERKSC_RKSH_RSJ_
.LEHE35:
	xorl	%edi, %edi
	movq	%r14, %rsi
	call	clock_gettime@PLT
	imulq	$1000000000, 224(%rsp), %rax
	pxor	%xmm0, %xmm0
	movl	128(%rsp), %edx
	addq	232(%rsp), %rax
	subq	%rbx, %rax
	testl	%edx, %edx
	cvtsi2sdq	%rax, %xmm0
	mulsd	.LC18(%rip), %xmm0
	movsd	%xmm0, (%rsp)
	je	.L636
	xorl	%r15d, %r15d
	xorl	%ebx, %ebx
	xorl	%r12d, %r12d
	xorl	%ebp, %ebp
	jmp	.L618
	.p2align 4,,10
	.p2align 3
.L704:
	addl	$1, %ebp
	addq	$1, %rbx
	cmpl	%edx, %ebp
	jnb	.L611
.L618:
	cmpq	%rbx, %r15
	jne	.L704
	movq	%r15, %rax
	subq	%r12, %rax
	cmpq	$-1, %rax
	je	.L705
	testq	%rax, %rax
	movl	$1, %r15d
	je	.L615
	leaq	(%rax,%rax), %r15
	cmpq	%r15, %rax
	movq	$-1, %rax
	cmova	%rax, %r15
.L615:
	movq	%r15, %rdi
.LEHB36:
	call	_Znwm@PLT
	cmpq	%rbx, %r12
	je	.L638
	subq	%r12, %rbx
	addq	%rax, %rbx
.L616:
	addq	$1, %rbx
	testq	%r12, %r12
	je	.L617
	movq	%r12, %rdi
	movq	%rax, 40(%rsp)
	call	_ZdlPv@PLT
	movq	40(%rsp), %rax
.L617:
	movl	128(%rsp), %edx
	addl	$1, %ebp
	addq	%rax, %r15
	movq	%rax, %r12
	cmpl	%edx, %ebp
	jb	.L618
	.p2align 4,,10
	.p2align 3
.L611:
	movq	24(%rsp), %rax
	movq	%rbx, 24(%rsp)
	leaq	63(%rsp), %rdx
	movq	24(%rsp), %xmm0
	movq	%r12, 24(%rsp)
	movhps	24(%rsp), %xmm0
	leaq	88(%rsp), %rsi
	movq	%r14, %rdi
	movq	%rax, 88(%rsp)
	movq	$1, 240(%rsp)
	movaps	%xmm0, 224(%rsp)
	call	_ZN3tbb10interface98internal9start_forINS_13blocked_rangeIN9__gnu_cxx17__normal_iteratorIP14tear_down_taskSt6vectorIS6_SaIS6_EEEEEENS_8internal26parallel_for_each_body_forI7invokerIS6_ESB_EEKNS_16auto_partitionerEE3runERKSC_RKSH_RSJ_
	leaq	.LC19(%rip), %rsi
	leaq	_ZSt4cout(%rip), %rdi
	movl	$16, %edx
	call	_ZSt16__ostream_insertIcSt11char_traitsIcEERSt13basic_ostreamIT_T0_ES6_PKS3_l@PLT
	movsd	(%rsp), %xmm0
	leaq	_ZSt4cout(%rip), %rdi
	call	_ZNSo9_M_insertIdEERSoT_@PLT
	leaq	.LC20(%rip), %rsi
	movl	$8, %edx
	movq	%rax, %rdi
	movq	%rax, %rbx
	call	_ZSt16__ostream_insertIcSt11char_traitsIcEERSt13basic_ostreamIT_T0_ES6_PKS3_l@PLT
	movq	%rbx, %rdi
	call	_ZSt4endlIcSt11char_traitsIcEERSt13basic_ostreamIT_T0_ES6_@PLT
	leaq	.LC17(%rip), %rsi
	movl	$44, %edx
	movq	%rax, %rdi
	movq	%rax, %rbx
	call	_ZSt16__ostream_insertIcSt11char_traitsIcEERSt13basic_ostreamIT_T0_ES6_PKS3_l@PLT
	movq	%rbx, %rdi
	call	_ZSt4endlIcSt11char_traitsIcEERSt13basic_ostreamIT_T0_ES6_@PLT
	movl	144(%rsp), %eax
	pxor	%xmm0, %xmm0
	pxor	%xmm1, %xmm1
	leaq	.LC25(%rip), %rsi
	leaq	_ZSt4cout(%rip), %rdi
	movl	$13, %edx
	cvtsi2sdq	%rax, %xmm0
	movl	128(%rsp), %eax
	cvtsi2sdq	%rax, %xmm1
	mulsd	%xmm1, %xmm0
	mulsd	.LC21(%rip), %xmm0
	mulsd	.LC22(%rip), %xmm0
	mulsd	.LC23(%rip), %xmm0
	divsd	(%rsp), %xmm0
	mulsd	.LC24(%rip), %xmm0
	movsd	%xmm0, (%rsp)
	call	_ZSt16__ostream_insertIcSt11char_traitsIcEERSt13basic_ostreamIT_T0_ES6_PKS3_l@PLT
	movsd	(%rsp), %xmm0
	leaq	_ZSt4cout(%rip), %rdi
	call	_ZNSo9_M_insertIdEERSoT_@PLT
	leaq	.LC26(%rip), %rsi
	movl	$15, %edx
	movq	%rax, %rdi
	movq	%rax, %rbx
	call	_ZSt16__ostream_insertIcSt11char_traitsIcEERSt13basic_ostreamIT_T0_ES6_PKS3_l@PLT
	movq	%rbx, %rdi
	call	_ZSt4endlIcSt11char_traitsIcEERSt13basic_ostreamIT_T0_ES6_@PLT
	leaq	.LC17(%rip), %rsi
	movl	$44, %edx
	movq	%rax, %rdi
	movq	%rax, %rbx
	call	_ZSt16__ostream_insertIcSt11char_traitsIcEERSt13basic_ostreamIT_T0_ES6_PKS3_l@PLT
	movq	%rbx, %rdi
	call	_ZSt4endlIcSt11char_traitsIcEERSt13basic_ostreamIT_T0_ES6_@PLT
.LEHE36:
	cmpq	$0, 64(%rsp)
	je	.L623
	movq	32(%rsp), %rdi
	call	_ZN3tbb19task_scheduler_init9terminateEv@PLT
.L623:
	testq	%r12, %r12
	je	.L624
	movq	%r12, %rdi
	call	_ZdlPv@PLT
.L624:
	testq	%r13, %r13
	je	.L625
	movq	%r13, %rdi
	call	_ZdlPv@PLT
.L625:
	movq	96(%rsp), %rdi
	testq	%rdi, %rdi
	je	.L626
	call	_ZdlPv@PLT
.L626:
	xorl	%eax, %eax
	movq	248(%rsp), %rcx
	xorq	%fs:40, %rcx
	jne	.L706
	addq	$264, %rsp
	.cfi_remember_state
	.cfi_def_cfa_offset 56
	popq	%rbx
	.cfi_def_cfa_offset 48
	popq	%rbp
	.cfi_def_cfa_offset 40
	popq	%r12
	.cfi_def_cfa_offset 32
	popq	%r13
	.cfi_def_cfa_offset 24
	popq	%r14
	.cfi_def_cfa_offset 16
	popq	%r15
	.cfi_def_cfa_offset 8
	ret
.L636:
	.cfi_restore_state
	xorl	%ebx, %ebx
	xorl	%r12d, %r12d
	jmp	.L611
.L633:
	xorl	%ebx, %ebx
	xorl	%r13d, %r13d
	jmp	.L590
.L638:
	movq	%rax, %rbx
	jmp	.L616
.L703:
	movq	%rax, %rbx
	jmp	.L598
.L705:
	leaq	.LC15(%rip), %rdi
.LEHB37:
	call	_ZSt20__throw_length_errorPKc@PLT
.LEHE37:
.L639:
.L582:
	cmpq	$0, 64(%rsp)
	je	.L628
	movq	32(%rsp), %rdi
	movq	%rax, (%rsp)
	call	_ZN3tbb19task_scheduler_init9terminateEv@PLT
	movq	(%rsp), %rax
.L628:
	testq	%r12, %r12
	movq	%rax, %rbx
	je	.L573
	movq	%r12, %rdi
	call	_ZdlPv@PLT
.L573:
	testq	%r13, %r13
	je	.L630
	movq	%r13, %rdi
	call	_ZdlPv@PLT
.L630:
	movq	96(%rsp), %rdi
	testq	%rdi, %rdi
	je	.L631
	call	_ZdlPv@PLT
.L631:
	movq	%rbx, %rdi
.LEHB38:
	call	_Unwind_Resume@PLT
.LEHE38:
.L653:
	leaq	.LC14(%rip), %rsi
	leaq	_ZSt4cout(%rip), %rdi
	movl	$45, %edx
.LEHB39:
	call	_ZSt16__ostream_insertIcSt11char_traitsIcEERSt13basic_ostreamIT_T0_ES6_PKS3_l@PLT
.LEHE39:
	leaq	_ZSt4cout(%rip), %rdi
.LEHB40:
	call	_ZSt4endlIcSt11char_traitsIcEERSt13basic_ostreamIT_T0_ES6_@PLT
.LEHE40:
	orl	$-1, %edi
	call	exit@PLT
.L702:
	leaq	.LC15(%rip), %rdi
.LEHB41:
	call	_ZSt20__throw_length_errorPKc@PLT
.LEHE41:
.L651:
.L697:
	xorl	%r12d, %r12d
	jmp	.L582
.L706:
	call	__stack_chk_fail@PLT
.L647:
.L698:
	xorl	%r12d, %r12d
	xorl	%r13d, %r13d
	jmp	.L582
.L646:
	jmp	.L698
.L641:
	jmp	.L698
.L650:
	jmp	.L698
.L640:
.L699:
	movq	%rax, %rbx
	jmp	.L630
.L645:
	jmp	.L697
.L644:
	jmp	.L697
.L643:
	jmp	.L697
.L642:
	jmp	.L697
.L648:
	jmp	.L697
.L649:
	jmp	.L697
.L652:
	jmp	.L699
	.cfi_endproc
.LFE5218:
	.section	.gcc_except_table,"a",@progbits
.LLSDA5218:
	.byte	0xff
	.byte	0xff
	.byte	0x1
	.uleb128 .LLSDACSE5218-.LLSDACSB5218
.LLSDACSB5218:
	.uleb128 .LEHB26-.LFB5218
	.uleb128 .LEHE26-.LEHB26
	.uleb128 .L652-.LFB5218
	.uleb128 0
	.uleb128 .LEHB27-.LFB5218
	.uleb128 .LEHE27-.LEHB27
	.uleb128 .L640-.LFB5218
	.uleb128 0
	.uleb128 .LEHB28-.LFB5218
	.uleb128 .LEHE28-.LEHB28
	.uleb128 .L646-.LFB5218
	.uleb128 0
	.uleb128 .LEHB29-.LFB5218
	.uleb128 .LEHE29-.LEHB29
	.uleb128 .L647-.LFB5218
	.uleb128 0
	.uleb128 .LEHB30-.LFB5218
	.uleb128 .LEHE30-.LEHB30
	.uleb128 .L648-.LFB5218
	.uleb128 0
	.uleb128 .LEHB31-.LFB5218
	.uleb128 .LEHE31-.LEHB31
	.uleb128 .L642-.LFB5218
	.uleb128 0
	.uleb128 .LEHB32-.LFB5218
	.uleb128 .LEHE32-.LEHB32
	.uleb128 .L643-.LFB5218
	.uleb128 0
	.uleb128 .LEHB33-.LFB5218
	.uleb128 .LEHE33-.LEHB33
	.uleb128 .L644-.LFB5218
	.uleb128 0
	.uleb128 .LEHB34-.LFB5218
	.uleb128 .LEHE34-.LEHB34
	.uleb128 .L645-.LFB5218
	.uleb128 0
	.uleb128 .LEHB35-.LFB5218
	.uleb128 .LEHE35-.LEHB35
	.uleb128 .L649-.LFB5218
	.uleb128 0
	.uleb128 .LEHB36-.LFB5218
	.uleb128 .LEHE36-.LEHB36
	.uleb128 .L639-.LFB5218
	.uleb128 0
	.uleb128 .LEHB37-.LFB5218
	.uleb128 .LEHE37-.LEHB37
	.uleb128 .L639-.LFB5218
	.uleb128 0
	.uleb128 .LEHB38-.LFB5218
	.uleb128 .LEHE38-.LEHB38
	.uleb128 0
	.uleb128 0
	.uleb128 .LEHB39-.LFB5218
	.uleb128 .LEHE39-.LEHB39
	.uleb128 .L650-.LFB5218
	.uleb128 0
	.uleb128 .LEHB40-.LFB5218
	.uleb128 .LEHE40-.LEHB40
	.uleb128 .L641-.LFB5218
	.uleb128 0
	.uleb128 .LEHB41-.LFB5218
	.uleb128 .LEHE41-.LEHB41
	.uleb128 .L651-.LFB5218
	.uleb128 0
.LLSDACSE5218:
	.section	.text.startup
	.size	main, .-main
	.p2align 4,,15
	.type	_GLOBAL__sub_I_cpus_num, @function
_GLOBAL__sub_I_cpus_num:
.LFB6855:
	.cfi_startproc
	leaq	_ZStL8__ioinit(%rip), %rdi
	subq	$8, %rsp
	.cfi_def_cfa_offset 16
	call	_ZNSt8ios_base4InitC1Ev@PLT
	movq	_ZNSt8ios_base4InitD1Ev@GOTPCREL(%rip), %rdi
	leaq	__dso_handle(%rip), %rdx
	leaq	_ZStL8__ioinit(%rip), %rsi
	call	__cxa_atexit@PLT
	leaq	16+_ZTVN3tbb10interface68internal8ets_baseILNS_18ets_key_usage_typeE1EEE(%rip), %rax
	movq	%rax, local_thread_vars(%rip)
	movq	$0, 8+local_thread_vars(%rip)
	leaq	16+_ZTVN3tbb10interface626enumerable_thread_specificI17thread_local_varsNS_23cache_aligned_allocatorIS2_EELNS_18ets_key_usage_typeE1EEE(%rip), %rax
	movl	$16, %edi
	movq	$0, 16+local_thread_vars(%rip)
	movq	%rax, local_thread_vars(%rip)
	call	_ZN3tbb8internal23allocate_via_handler_v3Em@PLT
	testq	%rax, %rax
	je	.L708
	leaq	16+_ZTVN3tbb10interface68internal13callback_leafI17thread_local_varsNS1_17construct_by_argsIS3_JjEEEEE(%rip), %rcx
	movl	$-1, 8(%rax)
	movq	%rcx, (%rax)
.L708:
	movq	%rax, 24+local_thread_vars(%rip)
	leaq	72+local_thread_vars(%rip), %rax
	movq	$0, 72+local_thread_vars(%rip)
	movq	$0, 80+local_thread_vars(%rip)
	movq	$0, 88+local_thread_vars(%rip)
	leaq	__dso_handle(%rip), %rdx
	movq	$0, 56+local_thread_vars(%rip)
	movq	$0, 48+local_thread_vars(%rip)
	leaq	local_thread_vars(%rip), %rsi
	movq	%rax, 64+local_thread_vars(%rip)
	leaq	_ZN3tbb17concurrent_vectorINS_8internal6paddedINS_10interface68internal11ets_elementI17thread_local_varsEELm128EEENS_23cache_aligned_allocatorIS8_EEE18internal_allocatorERNS1_25concurrent_vector_base_v3Em(%rip), %rax
	leaq	_ZN3tbb10interface626enumerable_thread_specificI17thread_local_varsNS_23cache_aligned_allocatorIS2_EELNS_18ets_key_usage_typeE1EED1Ev(%rip), %rdi
	movq	%rax, 40+local_thread_vars(%rip)
	addq	$8, %rsp
	.cfi_def_cfa_offset 8
	jmp	__cxa_atexit@PLT
	.cfi_endproc
.LFE6855:
	.size	_GLOBAL__sub_I_cpus_num, .-_GLOBAL__sub_I_cpus_num
	.section	.init_array,"aw"
	.align 8
	.quad	_GLOBAL__sub_I_cpus_num
	.weak	_ZTSN3tbb8internal9no_assignE
	.section	.rodata._ZTSN3tbb8internal9no_assignE,"aG",@progbits,_ZTSN3tbb8internal9no_assignE,comdat
	.align 16
	.type	_ZTSN3tbb8internal9no_assignE, @object
	.size	_ZTSN3tbb8internal9no_assignE, 26
_ZTSN3tbb8internal9no_assignE:
	.string	"N3tbb8internal9no_assignE"
	.weak	_ZTIN3tbb8internal9no_assignE
	.section	.data.rel.ro._ZTIN3tbb8internal9no_assignE,"awG",@progbits,_ZTIN3tbb8internal9no_assignE,comdat
	.align 8
	.type	_ZTIN3tbb8internal9no_assignE, @object
	.size	_ZTIN3tbb8internal9no_assignE, 16
_ZTIN3tbb8internal9no_assignE:
	.quad	_ZTVN10__cxxabiv117__class_type_infoE+16
	.quad	_ZTSN3tbb8internal9no_assignE
	.weak	_ZTSN3tbb8internal7no_copyE
	.section	.rodata._ZTSN3tbb8internal7no_copyE,"aG",@progbits,_ZTSN3tbb8internal7no_copyE,comdat
	.align 16
	.type	_ZTSN3tbb8internal7no_copyE, @object
	.size	_ZTSN3tbb8internal7no_copyE, 24
_ZTSN3tbb8internal7no_copyE:
	.string	"N3tbb8internal7no_copyE"
	.weak	_ZTIN3tbb8internal7no_copyE
	.section	.data.rel.ro._ZTIN3tbb8internal7no_copyE,"awG",@progbits,_ZTIN3tbb8internal7no_copyE,comdat
	.align 8
	.type	_ZTIN3tbb8internal7no_copyE, @object
	.size	_ZTIN3tbb8internal7no_copyE, 40
_ZTIN3tbb8internal7no_copyE:
	.quad	_ZTVN10__cxxabiv121__vmi_class_type_infoE+16
	.quad	_ZTSN3tbb8internal7no_copyE
	.long	0
	.long	1
	.quad	_ZTIN3tbb8internal9no_assignE
	.quad	0
	.weak	_ZTSN3tbb10interface68internal17construct_by_argsI17thread_local_varsJjEEE
	.section	.rodata._ZTSN3tbb10interface68internal17construct_by_argsI17thread_local_varsJjEEE,"aG",@progbits,_ZTSN3tbb10interface68internal17construct_by_argsI17thread_local_varsJjEEE,comdat
	.align 32
	.type	_ZTSN3tbb10interface68internal17construct_by_argsI17thread_local_varsJjEEE, @object
	.size	_ZTSN3tbb10interface68internal17construct_by_argsI17thread_local_varsJjEEE, 71
_ZTSN3tbb10interface68internal17construct_by_argsI17thread_local_varsJjEEE:
	.string	"N3tbb10interface68internal17construct_by_argsI17thread_local_varsJjEEE"
	.weak	_ZTIN3tbb10interface68internal17construct_by_argsI17thread_local_varsJjEEE
	.section	.data.rel.ro._ZTIN3tbb10interface68internal17construct_by_argsI17thread_local_varsJjEEE,"awG",@progbits,_ZTIN3tbb10interface68internal17construct_by_argsI17thread_local_varsJjEEE,comdat
	.align 8
	.type	_ZTIN3tbb10interface68internal17construct_by_argsI17thread_local_varsJjEEE, @object
	.size	_ZTIN3tbb10interface68internal17construct_by_argsI17thread_local_varsJjEEE, 24
_ZTIN3tbb10interface68internal17construct_by_argsI17thread_local_varsJjEEE:
	.quad	_ZTVN10__cxxabiv120__si_class_type_infoE+16
	.quad	_ZTSN3tbb10interface68internal17construct_by_argsI17thread_local_varsJjEEE
	.quad	_ZTIN3tbb8internal9no_assignE
	.weak	_ZTSN3tbb10interface68internal8ets_baseILNS_18ets_key_usage_typeE1EEE
	.section	.rodata._ZTSN3tbb10interface68internal8ets_baseILNS_18ets_key_usage_typeE1EEE,"aG",@progbits,_ZTSN3tbb10interface68internal8ets_baseILNS_18ets_key_usage_typeE1EEE,comdat
	.align 32
	.type	_ZTSN3tbb10interface68internal8ets_baseILNS_18ets_key_usage_typeE1EEE, @object
	.size	_ZTSN3tbb10interface68internal8ets_baseILNS_18ets_key_usage_typeE1EEE, 66
_ZTSN3tbb10interface68internal8ets_baseILNS_18ets_key_usage_typeE1EEE:
	.string	"N3tbb10interface68internal8ets_baseILNS_18ets_key_usage_typeE1EEE"
	.weak	_ZTIN3tbb10interface68internal8ets_baseILNS_18ets_key_usage_typeE1EEE
	.section	.data.rel.ro._ZTIN3tbb10interface68internal8ets_baseILNS_18ets_key_usage_typeE1EEE,"awG",@progbits,_ZTIN3tbb10interface68internal8ets_baseILNS_18ets_key_usage_typeE1EEE,comdat
	.align 8
	.type	_ZTIN3tbb10interface68internal8ets_baseILNS_18ets_key_usage_typeE1EEE, @object
	.size	_ZTIN3tbb10interface68internal8ets_baseILNS_18ets_key_usage_typeE1EEE, 40
_ZTIN3tbb10interface68internal8ets_baseILNS_18ets_key_usage_typeE1EEE:
	.quad	_ZTVN10__cxxabiv121__vmi_class_type_infoE+16
	.quad	_ZTSN3tbb10interface68internal8ets_baseILNS_18ets_key_usage_typeE1EEE
	.long	0
	.long	1
	.quad	_ZTIN3tbb8internal7no_copyE
	.quad	0
	.weak	_ZTSN3tbb10interface98internal9flag_taskE
	.section	.rodata._ZTSN3tbb10interface98internal9flag_taskE,"aG",@progbits,_ZTSN3tbb10interface98internal9flag_taskE,comdat
	.align 32
	.type	_ZTSN3tbb10interface98internal9flag_taskE, @object
	.size	_ZTSN3tbb10interface98internal9flag_taskE, 38
_ZTSN3tbb10interface98internal9flag_taskE:
	.string	"N3tbb10interface98internal9flag_taskE"
	.weak	_ZTIN3tbb10interface98internal9flag_taskE
	.section	.data.rel.ro._ZTIN3tbb10interface98internal9flag_taskE,"awG",@progbits,_ZTIN3tbb10interface98internal9flag_taskE,comdat
	.align 8
	.type	_ZTIN3tbb10interface98internal9flag_taskE, @object
	.size	_ZTIN3tbb10interface98internal9flag_taskE, 24
_ZTIN3tbb10interface98internal9flag_taskE:
	.quad	_ZTVN10__cxxabiv120__si_class_type_infoE+16
	.quad	_ZTSN3tbb10interface98internal9flag_taskE
	.quad	_ZTIN3tbb4taskE
	.weak	_ZTSN3tbb10interface626enumerable_thread_specificI17thread_local_varsNS_23cache_aligned_allocatorIS2_EELNS_18ets_key_usage_typeE1EEE
	.section	.rodata._ZTSN3tbb10interface626enumerable_thread_specificI17thread_local_varsNS_23cache_aligned_allocatorIS2_EELNS_18ets_key_usage_typeE1EEE,"aG",@progbits,_ZTSN3tbb10interface626enumerable_thread_specificI17thread_local_varsNS_23cache_aligned_allocatorIS2_EELNS_18ets_key_usage_typeE1EEE,comdat
	.align 32
	.type	_ZTSN3tbb10interface626enumerable_thread_specificI17thread_local_varsNS_23cache_aligned_allocatorIS2_EELNS_18ets_key_usage_typeE1EEE, @object
	.size	_ZTSN3tbb10interface626enumerable_thread_specificI17thread_local_varsNS_23cache_aligned_allocatorIS2_EELNS_18ets_key_usage_typeE1EEE, 129
_ZTSN3tbb10interface626enumerable_thread_specificI17thread_local_varsNS_23cache_aligned_allocatorIS2_EELNS_18ets_key_usage_typeE1EEE:
	.string	"N3tbb10interface626enumerable_thread_specificI17thread_local_varsNS_23cache_aligned_allocatorIS2_EELNS_18ets_key_usage_typeE1EEE"
	.weak	_ZTIN3tbb10interface626enumerable_thread_specificI17thread_local_varsNS_23cache_aligned_allocatorIS2_EELNS_18ets_key_usage_typeE1EEE
	.section	.data.rel.ro._ZTIN3tbb10interface626enumerable_thread_specificI17thread_local_varsNS_23cache_aligned_allocatorIS2_EELNS_18ets_key_usage_typeE1EEE,"awG",@progbits,_ZTIN3tbb10interface626enumerable_thread_specificI17thread_local_varsNS_23cache_aligned_allocatorIS2_EELNS_18ets_key_usage_typeE1EEE,comdat
	.align 8
	.type	_ZTIN3tbb10interface626enumerable_thread_specificI17thread_local_varsNS_23cache_aligned_allocatorIS2_EELNS_18ets_key_usage_typeE1EEE, @object
	.size	_ZTIN3tbb10interface626enumerable_thread_specificI17thread_local_varsNS_23cache_aligned_allocatorIS2_EELNS_18ets_key_usage_typeE1EEE, 40
_ZTIN3tbb10interface626enumerable_thread_specificI17thread_local_varsNS_23cache_aligned_allocatorIS2_EELNS_18ets_key_usage_typeE1EEE:
	.quad	_ZTVN10__cxxabiv121__vmi_class_type_infoE+16
	.quad	_ZTSN3tbb10interface626enumerable_thread_specificI17thread_local_varsNS_23cache_aligned_allocatorIS2_EELNS_18ets_key_usage_typeE1EEE
	.long	0
	.long	1
	.quad	_ZTIN3tbb10interface68internal8ets_baseILNS_18ets_key_usage_typeE1EEE
	.quad	0
	.weak	_ZTSN3tbb10interface68internal13callback_baseI17thread_local_varsEE
	.section	.rodata._ZTSN3tbb10interface68internal13callback_baseI17thread_local_varsEE,"aG",@progbits,_ZTSN3tbb10interface68internal13callback_baseI17thread_local_varsEE,comdat
	.align 32
	.type	_ZTSN3tbb10interface68internal13callback_baseI17thread_local_varsEE, @object
	.size	_ZTSN3tbb10interface68internal13callback_baseI17thread_local_varsEE, 64
_ZTSN3tbb10interface68internal13callback_baseI17thread_local_varsEE:
	.string	"N3tbb10interface68internal13callback_baseI17thread_local_varsEE"
	.weak	_ZTIN3tbb10interface68internal13callback_baseI17thread_local_varsEE
	.section	.data.rel.ro._ZTIN3tbb10interface68internal13callback_baseI17thread_local_varsEE,"awG",@progbits,_ZTIN3tbb10interface68internal13callback_baseI17thread_local_varsEE,comdat
	.align 8
	.type	_ZTIN3tbb10interface68internal13callback_baseI17thread_local_varsEE, @object
	.size	_ZTIN3tbb10interface68internal13callback_baseI17thread_local_varsEE, 16
_ZTIN3tbb10interface68internal13callback_baseI17thread_local_varsEE:
	.quad	_ZTVN10__cxxabiv117__class_type_infoE+16
	.quad	_ZTSN3tbb10interface68internal13callback_baseI17thread_local_varsEE
	.weak	_ZTSN3tbb10interface68internal13callback_leafI17thread_local_varsNS1_17construct_by_argsIS3_JjEEEEE
	.section	.rodata._ZTSN3tbb10interface68internal13callback_leafI17thread_local_varsNS1_17construct_by_argsIS3_JjEEEEE,"aG",@progbits,_ZTSN3tbb10interface68internal13callback_leafI17thread_local_varsNS1_17construct_by_argsIS3_JjEEEEE,comdat
	.align 32
	.type	_ZTSN3tbb10interface68internal13callback_leafI17thread_local_varsNS1_17construct_by_argsIS3_JjEEEEE, @object
	.size	_ZTSN3tbb10interface68internal13callback_leafI17thread_local_varsNS1_17construct_by_argsIS3_JjEEEEE, 96
_ZTSN3tbb10interface68internal13callback_leafI17thread_local_varsNS1_17construct_by_argsIS3_JjEEEEE:
	.string	"N3tbb10interface68internal13callback_leafI17thread_local_varsNS1_17construct_by_argsIS3_JjEEEEE"
	.weak	_ZTIN3tbb10interface68internal13callback_leafI17thread_local_varsNS1_17construct_by_argsIS3_JjEEEEE
	.section	.data.rel.ro._ZTIN3tbb10interface68internal13callback_leafI17thread_local_varsNS1_17construct_by_argsIS3_JjEEEEE,"awG",@progbits,_ZTIN3tbb10interface68internal13callback_leafI17thread_local_varsNS1_17construct_by_argsIS3_JjEEEEE,comdat
	.align 8
	.type	_ZTIN3tbb10interface68internal13callback_leafI17thread_local_varsNS1_17construct_by_argsIS3_JjEEEEE, @object
	.size	_ZTIN3tbb10interface68internal13callback_leafI17thread_local_varsNS1_17construct_by_argsIS3_JjEEEEE, 56
_ZTIN3tbb10interface68internal13callback_leafI17thread_local_varsNS1_17construct_by_argsIS3_JjEEEEE:
	.quad	_ZTVN10__cxxabiv121__vmi_class_type_infoE+16
	.quad	_ZTSN3tbb10interface68internal13callback_leafI17thread_local_varsNS1_17construct_by_argsIS3_JjEEEEE
	.long	0
	.long	2
	.quad	_ZTIN3tbb10interface68internal13callback_baseI17thread_local_varsEE
	.quad	2
	.quad	_ZTIN3tbb10interface68internal17construct_by_argsI17thread_local_varsJjEEE
	.quad	2048
	.weak	_ZTSN3tbb10interface98internal9start_forINS_13blocked_rangeIN9__gnu_cxx17__normal_iteratorIP9init_taskSt6vectorIS6_SaIS6_EEEEEENS_8internal26parallel_for_each_body_forI7invokerIS6_ESB_EEKNS_16auto_partitionerEEE
	.section	.rodata._ZTSN3tbb10interface98internal9start_forINS_13blocked_rangeIN9__gnu_cxx17__normal_iteratorIP9init_taskSt6vectorIS6_SaIS6_EEEEEENS_8internal26parallel_for_each_body_forI7invokerIS6_ESB_EEKNS_16auto_partitionerEEE,"aG",@progbits,_ZTSN3tbb10interface98internal9start_forINS_13blocked_rangeIN9__gnu_cxx17__normal_iteratorIP9init_taskSt6vectorIS6_SaIS6_EEEEEENS_8internal26parallel_for_each_body_forI7invokerIS6_ESB_EEKNS_16auto_partitionerEEE,comdat
	.align 32
	.type	_ZTSN3tbb10interface98internal9start_forINS_13blocked_rangeIN9__gnu_cxx17__normal_iteratorIP9init_taskSt6vectorIS6_SaIS6_EEEEEENS_8internal26parallel_for_each_body_forI7invokerIS6_ESB_EEKNS_16auto_partitionerEEE, @object
	.size	_ZTSN3tbb10interface98internal9start_forINS_13blocked_rangeIN9__gnu_cxx17__normal_iteratorIP9init_taskSt6vectorIS6_SaIS6_EEEEEENS_8internal26parallel_for_each_body_forI7invokerIS6_ESB_EEKNS_16auto_partitionerEEE, 208
_ZTSN3tbb10interface98internal9start_forINS_13blocked_rangeIN9__gnu_cxx17__normal_iteratorIP9init_taskSt6vectorIS6_SaIS6_EEEEEENS_8internal26parallel_for_each_body_forI7invokerIS6_ESB_EEKNS_16auto_partitionerEEE:
	.string	"N3tbb10interface98internal9start_forINS_13blocked_rangeIN9__gnu_cxx17__normal_iteratorIP9init_taskSt6vectorIS6_SaIS6_EEEEEENS_8internal26parallel_for_each_body_forI7invokerIS6_ESB_EEKNS_16auto_partitionerEEE"
	.weak	_ZTIN3tbb10interface98internal9start_forINS_13blocked_rangeIN9__gnu_cxx17__normal_iteratorIP9init_taskSt6vectorIS6_SaIS6_EEEEEENS_8internal26parallel_for_each_body_forI7invokerIS6_ESB_EEKNS_16auto_partitionerEEE
	.section	.data.rel.ro._ZTIN3tbb10interface98internal9start_forINS_13blocked_rangeIN9__gnu_cxx17__normal_iteratorIP9init_taskSt6vectorIS6_SaIS6_EEEEEENS_8internal26parallel_for_each_body_forI7invokerIS6_ESB_EEKNS_16auto_partitionerEEE,"awG",@progbits,_ZTIN3tbb10interface98internal9start_forINS_13blocked_rangeIN9__gnu_cxx17__normal_iteratorIP9init_taskSt6vectorIS6_SaIS6_EEEEEENS_8internal26parallel_for_each_body_forI7invokerIS6_ESB_EEKNS_16auto_partitionerEEE,comdat
	.align 8
	.type	_ZTIN3tbb10interface98internal9start_forINS_13blocked_rangeIN9__gnu_cxx17__normal_iteratorIP9init_taskSt6vectorIS6_SaIS6_EEEEEENS_8internal26parallel_for_each_body_forI7invokerIS6_ESB_EEKNS_16auto_partitionerEEE, @object
	.size	_ZTIN3tbb10interface98internal9start_forINS_13blocked_rangeIN9__gnu_cxx17__normal_iteratorIP9init_taskSt6vectorIS6_SaIS6_EEEEEENS_8internal26parallel_for_each_body_forI7invokerIS6_ESB_EEKNS_16auto_partitionerEEE, 24
_ZTIN3tbb10interface98internal9start_forINS_13blocked_rangeIN9__gnu_cxx17__normal_iteratorIP9init_taskSt6vectorIS6_SaIS6_EEEEEENS_8internal26parallel_for_each_body_forI7invokerIS6_ESB_EEKNS_16auto_partitionerEEE:
	.quad	_ZTVN10__cxxabiv120__si_class_type_infoE+16
	.quad	_ZTSN3tbb10interface98internal9start_forINS_13blocked_rangeIN9__gnu_cxx17__normal_iteratorIP9init_taskSt6vectorIS6_SaIS6_EEEEEENS_8internal26parallel_for_each_body_forI7invokerIS6_ESB_EEKNS_16auto_partitionerEEE
	.quad	_ZTIN3tbb4taskE
	.weak	_ZTSN3tbb10interface98internal9start_forINS_13blocked_rangeIN9__gnu_cxx17__normal_iteratorIP11access_taskSt6vectorIS6_SaIS6_EEEEEENS_8internal26parallel_for_each_body_forI7invokerIS6_ESB_EEKNS_16auto_partitionerEEE
	.section	.rodata._ZTSN3tbb10interface98internal9start_forINS_13blocked_rangeIN9__gnu_cxx17__normal_iteratorIP11access_taskSt6vectorIS6_SaIS6_EEEEEENS_8internal26parallel_for_each_body_forI7invokerIS6_ESB_EEKNS_16auto_partitionerEEE,"aG",@progbits,_ZTSN3tbb10interface98internal9start_forINS_13blocked_rangeIN9__gnu_cxx17__normal_iteratorIP11access_taskSt6vectorIS6_SaIS6_EEEEEENS_8internal26parallel_for_each_body_forI7invokerIS6_ESB_EEKNS_16auto_partitionerEEE,comdat
	.align 32
	.type	_ZTSN3tbb10interface98internal9start_forINS_13blocked_rangeIN9__gnu_cxx17__normal_iteratorIP11access_taskSt6vectorIS6_SaIS6_EEEEEENS_8internal26parallel_for_each_body_forI7invokerIS6_ESB_EEKNS_16auto_partitionerEEE, @object
	.size	_ZTSN3tbb10interface98internal9start_forINS_13blocked_rangeIN9__gnu_cxx17__normal_iteratorIP11access_taskSt6vectorIS6_SaIS6_EEEEEENS_8internal26parallel_for_each_body_forI7invokerIS6_ESB_EEKNS_16auto_partitionerEEE, 211
_ZTSN3tbb10interface98internal9start_forINS_13blocked_rangeIN9__gnu_cxx17__normal_iteratorIP11access_taskSt6vectorIS6_SaIS6_EEEEEENS_8internal26parallel_for_each_body_forI7invokerIS6_ESB_EEKNS_16auto_partitionerEEE:
	.string	"N3tbb10interface98internal9start_forINS_13blocked_rangeIN9__gnu_cxx17__normal_iteratorIP11access_taskSt6vectorIS6_SaIS6_EEEEEENS_8internal26parallel_for_each_body_forI7invokerIS6_ESB_EEKNS_16auto_partitionerEEE"
	.weak	_ZTIN3tbb10interface98internal9start_forINS_13blocked_rangeIN9__gnu_cxx17__normal_iteratorIP11access_taskSt6vectorIS6_SaIS6_EEEEEENS_8internal26parallel_for_each_body_forI7invokerIS6_ESB_EEKNS_16auto_partitionerEEE
	.section	.data.rel.ro._ZTIN3tbb10interface98internal9start_forINS_13blocked_rangeIN9__gnu_cxx17__normal_iteratorIP11access_taskSt6vectorIS6_SaIS6_EEEEEENS_8internal26parallel_for_each_body_forI7invokerIS6_ESB_EEKNS_16auto_partitionerEEE,"awG",@progbits,_ZTIN3tbb10interface98internal9start_forINS_13blocked_rangeIN9__gnu_cxx17__normal_iteratorIP11access_taskSt6vectorIS6_SaIS6_EEEEEENS_8internal26parallel_for_each_body_forI7invokerIS6_ESB_EEKNS_16auto_partitionerEEE,comdat
	.align 8
	.type	_ZTIN3tbb10interface98internal9start_forINS_13blocked_rangeIN9__gnu_cxx17__normal_iteratorIP11access_taskSt6vectorIS6_SaIS6_EEEEEENS_8internal26parallel_for_each_body_forI7invokerIS6_ESB_EEKNS_16auto_partitionerEEE, @object
	.size	_ZTIN3tbb10interface98internal9start_forINS_13blocked_rangeIN9__gnu_cxx17__normal_iteratorIP11access_taskSt6vectorIS6_SaIS6_EEEEEENS_8internal26parallel_for_each_body_forI7invokerIS6_ESB_EEKNS_16auto_partitionerEEE, 24
_ZTIN3tbb10interface98internal9start_forINS_13blocked_rangeIN9__gnu_cxx17__normal_iteratorIP11access_taskSt6vectorIS6_SaIS6_EEEEEENS_8internal26parallel_for_each_body_forI7invokerIS6_ESB_EEKNS_16auto_partitionerEEE:
	.quad	_ZTVN10__cxxabiv120__si_class_type_infoE+16
	.quad	_ZTSN3tbb10interface98internal9start_forINS_13blocked_rangeIN9__gnu_cxx17__normal_iteratorIP11access_taskSt6vectorIS6_SaIS6_EEEEEENS_8internal26parallel_for_each_body_forI7invokerIS6_ESB_EEKNS_16auto_partitionerEEE
	.quad	_ZTIN3tbb4taskE
	.weak	_ZTSN3tbb10interface98internal9start_forINS_13blocked_rangeIN9__gnu_cxx17__normal_iteratorIP14tear_down_taskSt6vectorIS6_SaIS6_EEEEEENS_8internal26parallel_for_each_body_forI7invokerIS6_ESB_EEKNS_16auto_partitionerEEE
	.section	.rodata._ZTSN3tbb10interface98internal9start_forINS_13blocked_rangeIN9__gnu_cxx17__normal_iteratorIP14tear_down_taskSt6vectorIS6_SaIS6_EEEEEENS_8internal26parallel_for_each_body_forI7invokerIS6_ESB_EEKNS_16auto_partitionerEEE,"aG",@progbits,_ZTSN3tbb10interface98internal9start_forINS_13blocked_rangeIN9__gnu_cxx17__normal_iteratorIP14tear_down_taskSt6vectorIS6_SaIS6_EEEEEENS_8internal26parallel_for_each_body_forI7invokerIS6_ESB_EEKNS_16auto_partitionerEEE,comdat
	.align 32
	.type	_ZTSN3tbb10interface98internal9start_forINS_13blocked_rangeIN9__gnu_cxx17__normal_iteratorIP14tear_down_taskSt6vectorIS6_SaIS6_EEEEEENS_8internal26parallel_for_each_body_forI7invokerIS6_ESB_EEKNS_16auto_partitionerEEE, @object
	.size	_ZTSN3tbb10interface98internal9start_forINS_13blocked_rangeIN9__gnu_cxx17__normal_iteratorIP14tear_down_taskSt6vectorIS6_SaIS6_EEEEEENS_8internal26parallel_for_each_body_forI7invokerIS6_ESB_EEKNS_16auto_partitionerEEE, 214
_ZTSN3tbb10interface98internal9start_forINS_13blocked_rangeIN9__gnu_cxx17__normal_iteratorIP14tear_down_taskSt6vectorIS6_SaIS6_EEEEEENS_8internal26parallel_for_each_body_forI7invokerIS6_ESB_EEKNS_16auto_partitionerEEE:
	.string	"N3tbb10interface98internal9start_forINS_13blocked_rangeIN9__gnu_cxx17__normal_iteratorIP14tear_down_taskSt6vectorIS6_SaIS6_EEEEEENS_8internal26parallel_for_each_body_forI7invokerIS6_ESB_EEKNS_16auto_partitionerEEE"
	.weak	_ZTIN3tbb10interface98internal9start_forINS_13blocked_rangeIN9__gnu_cxx17__normal_iteratorIP14tear_down_taskSt6vectorIS6_SaIS6_EEEEEENS_8internal26parallel_for_each_body_forI7invokerIS6_ESB_EEKNS_16auto_partitionerEEE
	.section	.data.rel.ro._ZTIN3tbb10interface98internal9start_forINS_13blocked_rangeIN9__gnu_cxx17__normal_iteratorIP14tear_down_taskSt6vectorIS6_SaIS6_EEEEEENS_8internal26parallel_for_each_body_forI7invokerIS6_ESB_EEKNS_16auto_partitionerEEE,"awG",@progbits,_ZTIN3tbb10interface98internal9start_forINS_13blocked_rangeIN9__gnu_cxx17__normal_iteratorIP14tear_down_taskSt6vectorIS6_SaIS6_EEEEEENS_8internal26parallel_for_each_body_forI7invokerIS6_ESB_EEKNS_16auto_partitionerEEE,comdat
	.align 8
	.type	_ZTIN3tbb10interface98internal9start_forINS_13blocked_rangeIN9__gnu_cxx17__normal_iteratorIP14tear_down_taskSt6vectorIS6_SaIS6_EEEEEENS_8internal26parallel_for_each_body_forI7invokerIS6_ESB_EEKNS_16auto_partitionerEEE, @object
	.size	_ZTIN3tbb10interface98internal9start_forINS_13blocked_rangeIN9__gnu_cxx17__normal_iteratorIP14tear_down_taskSt6vectorIS6_SaIS6_EEEEEENS_8internal26parallel_for_each_body_forI7invokerIS6_ESB_EEKNS_16auto_partitionerEEE, 24
_ZTIN3tbb10interface98internal9start_forINS_13blocked_rangeIN9__gnu_cxx17__normal_iteratorIP14tear_down_taskSt6vectorIS6_SaIS6_EEEEEENS_8internal26parallel_for_each_body_forI7invokerIS6_ESB_EEKNS_16auto_partitionerEEE:
	.quad	_ZTVN10__cxxabiv120__si_class_type_infoE+16
	.quad	_ZTSN3tbb10interface98internal9start_forINS_13blocked_rangeIN9__gnu_cxx17__normal_iteratorIP14tear_down_taskSt6vectorIS6_SaIS6_EEEEEENS_8internal26parallel_for_each_body_forI7invokerIS6_ESB_EEKNS_16auto_partitionerEEE
	.quad	_ZTIN3tbb4taskE
	.weak	_ZTVN3tbb10interface68internal8ets_baseILNS_18ets_key_usage_typeE1EEE
	.section	.data.rel.ro._ZTVN3tbb10interface68internal8ets_baseILNS_18ets_key_usage_typeE1EEE,"awG",@progbits,_ZTVN3tbb10interface68internal8ets_baseILNS_18ets_key_usage_typeE1EEE,comdat
	.align 8
	.type	_ZTVN3tbb10interface68internal8ets_baseILNS_18ets_key_usage_typeE1EEE, @object
	.size	_ZTVN3tbb10interface68internal8ets_baseILNS_18ets_key_usage_typeE1EEE, 56
_ZTVN3tbb10interface68internal8ets_baseILNS_18ets_key_usage_typeE1EEE:
	.quad	0
	.quad	_ZTIN3tbb10interface68internal8ets_baseILNS_18ets_key_usage_typeE1EEE
	.quad	__cxa_pure_virtual
	.quad	__cxa_pure_virtual
	.quad	__cxa_pure_virtual
	.quad	0
	.quad	0
	.weak	_ZTVN3tbb10interface98internal9flag_taskE
	.section	.data.rel.ro._ZTVN3tbb10interface98internal9flag_taskE,"awG",@progbits,_ZTVN3tbb10interface98internal9flag_taskE,comdat
	.align 8
	.type	_ZTVN3tbb10interface98internal9flag_taskE, @object
	.size	_ZTVN3tbb10interface98internal9flag_taskE, 48
_ZTVN3tbb10interface98internal9flag_taskE:
	.quad	0
	.quad	_ZTIN3tbb10interface98internal9flag_taskE
	.quad	_ZN3tbb10interface98internal9flag_taskD1Ev
	.quad	_ZN3tbb10interface98internal9flag_taskD0Ev
	.quad	_ZN3tbb10interface98internal9flag_task7executeEv
	.quad	_ZN3tbb4task13note_affinityEt
	.weak	_ZTVN3tbb10interface626enumerable_thread_specificI17thread_local_varsNS_23cache_aligned_allocatorIS2_EELNS_18ets_key_usage_typeE1EEE
	.section	.data.rel.ro.local._ZTVN3tbb10interface626enumerable_thread_specificI17thread_local_varsNS_23cache_aligned_allocatorIS2_EELNS_18ets_key_usage_typeE1EEE,"awG",@progbits,_ZTVN3tbb10interface626enumerable_thread_specificI17thread_local_varsNS_23cache_aligned_allocatorIS2_EELNS_18ets_key_usage_typeE1EEE,comdat
	.align 8
	.type	_ZTVN3tbb10interface626enumerable_thread_specificI17thread_local_varsNS_23cache_aligned_allocatorIS2_EELNS_18ets_key_usage_typeE1EEE, @object
	.size	_ZTVN3tbb10interface626enumerable_thread_specificI17thread_local_varsNS_23cache_aligned_allocatorIS2_EELNS_18ets_key_usage_typeE1EEE, 56
_ZTVN3tbb10interface626enumerable_thread_specificI17thread_local_varsNS_23cache_aligned_allocatorIS2_EELNS_18ets_key_usage_typeE1EEE:
	.quad	0
	.quad	_ZTIN3tbb10interface626enumerable_thread_specificI17thread_local_varsNS_23cache_aligned_allocatorIS2_EELNS_18ets_key_usage_typeE1EEE
	.quad	_ZN3tbb10interface626enumerable_thread_specificI17thread_local_varsNS_23cache_aligned_allocatorIS2_EELNS_18ets_key_usage_typeE1EE12create_localEv
	.quad	_ZN3tbb10interface626enumerable_thread_specificI17thread_local_varsNS_23cache_aligned_allocatorIS2_EELNS_18ets_key_usage_typeE1EE12create_arrayEm
	.quad	_ZN3tbb10interface626enumerable_thread_specificI17thread_local_varsNS_23cache_aligned_allocatorIS2_EELNS_18ets_key_usage_typeE1EE10free_arrayEPvm
	.quad	_ZN3tbb10interface626enumerable_thread_specificI17thread_local_varsNS_23cache_aligned_allocatorIS2_EELNS_18ets_key_usage_typeE1EED1Ev
	.quad	_ZN3tbb10interface626enumerable_thread_specificI17thread_local_varsNS_23cache_aligned_allocatorIS2_EELNS_18ets_key_usage_typeE1EED0Ev
	.weak	_ZTVN3tbb10interface68internal13callback_leafI17thread_local_varsNS1_17construct_by_argsIS3_JjEEEEE
	.section	.data.rel.ro.local._ZTVN3tbb10interface68internal13callback_leafI17thread_local_varsNS1_17construct_by_argsIS3_JjEEEEE,"awG",@progbits,_ZTVN3tbb10interface68internal13callback_leafI17thread_local_varsNS1_17construct_by_argsIS3_JjEEEEE,comdat
	.align 8
	.type	_ZTVN3tbb10interface68internal13callback_leafI17thread_local_varsNS1_17construct_by_argsIS3_JjEEEEE, @object
	.size	_ZTVN3tbb10interface68internal13callback_leafI17thread_local_varsNS1_17construct_by_argsIS3_JjEEEEE, 56
_ZTVN3tbb10interface68internal13callback_leafI17thread_local_varsNS1_17construct_by_argsIS3_JjEEEEE:
	.quad	0
	.quad	_ZTIN3tbb10interface68internal13callback_leafI17thread_local_varsNS1_17construct_by_argsIS3_JjEEEEE
	.quad	_ZNK3tbb10interface68internal13callback_leafI17thread_local_varsNS1_17construct_by_argsIS3_JjEEEE5cloneEv
	.quad	_ZN3tbb10interface68internal13callback_leafI17thread_local_varsNS1_17construct_by_argsIS3_JjEEEE7destroyEv
	.quad	_ZN3tbb10interface68internal13callback_leafI17thread_local_varsNS1_17construct_by_argsIS3_JjEEEED1Ev
	.quad	_ZN3tbb10interface68internal13callback_leafI17thread_local_varsNS1_17construct_by_argsIS3_JjEEEED0Ev
	.quad	_ZN3tbb10interface68internal13callback_leafI17thread_local_varsNS1_17construct_by_argsIS3_JjEEEE9constructEPv
	.weak	_ZTVN3tbb10interface98internal9start_forINS_13blocked_rangeIN9__gnu_cxx17__normal_iteratorIP9init_taskSt6vectorIS6_SaIS6_EEEEEENS_8internal26parallel_for_each_body_forI7invokerIS6_ESB_EEKNS_16auto_partitionerEEE
	.section	.data.rel.ro.local._ZTVN3tbb10interface98internal9start_forINS_13blocked_rangeIN9__gnu_cxx17__normal_iteratorIP9init_taskSt6vectorIS6_SaIS6_EEEEEENS_8internal26parallel_for_each_body_forI7invokerIS6_ESB_EEKNS_16auto_partitionerEEE,"awG",@progbits,_ZTVN3tbb10interface98internal9start_forINS_13blocked_rangeIN9__gnu_cxx17__normal_iteratorIP9init_taskSt6vectorIS6_SaIS6_EEEEEENS_8internal26parallel_for_each_body_forI7invokerIS6_ESB_EEKNS_16auto_partitionerEEE,comdat
	.align 8
	.type	_ZTVN3tbb10interface98internal9start_forINS_13blocked_rangeIN9__gnu_cxx17__normal_iteratorIP9init_taskSt6vectorIS6_SaIS6_EEEEEENS_8internal26parallel_for_each_body_forI7invokerIS6_ESB_EEKNS_16auto_partitionerEEE, @object
	.size	_ZTVN3tbb10interface98internal9start_forINS_13blocked_rangeIN9__gnu_cxx17__normal_iteratorIP9init_taskSt6vectorIS6_SaIS6_EEEEEENS_8internal26parallel_for_each_body_forI7invokerIS6_ESB_EEKNS_16auto_partitionerEEE, 48
_ZTVN3tbb10interface98internal9start_forINS_13blocked_rangeIN9__gnu_cxx17__normal_iteratorIP9init_taskSt6vectorIS6_SaIS6_EEEEEENS_8internal26parallel_for_each_body_forI7invokerIS6_ESB_EEKNS_16auto_partitionerEEE:
	.quad	0
	.quad	_ZTIN3tbb10interface98internal9start_forINS_13blocked_rangeIN9__gnu_cxx17__normal_iteratorIP9init_taskSt6vectorIS6_SaIS6_EEEEEENS_8internal26parallel_for_each_body_forI7invokerIS6_ESB_EEKNS_16auto_partitionerEEE
	.quad	_ZN3tbb10interface98internal9start_forINS_13blocked_rangeIN9__gnu_cxx17__normal_iteratorIP9init_taskSt6vectorIS6_SaIS6_EEEEEENS_8internal26parallel_for_each_body_forI7invokerIS6_ESB_EEKNS_16auto_partitionerEED1Ev
	.quad	_ZN3tbb10interface98internal9start_forINS_13blocked_rangeIN9__gnu_cxx17__normal_iteratorIP9init_taskSt6vectorIS6_SaIS6_EEEEEENS_8internal26parallel_for_each_body_forI7invokerIS6_ESB_EEKNS_16auto_partitionerEED0Ev
	.quad	_ZN3tbb10interface98internal9start_forINS_13blocked_rangeIN9__gnu_cxx17__normal_iteratorIP9init_taskSt6vectorIS6_SaIS6_EEEEEENS_8internal26parallel_for_each_body_forI7invokerIS6_ESB_EEKNS_16auto_partitionerEE7executeEv
	.quad	_ZN3tbb10interface98internal9start_forINS_13blocked_rangeIN9__gnu_cxx17__normal_iteratorIP9init_taskSt6vectorIS6_SaIS6_EEEEEENS_8internal26parallel_for_each_body_forI7invokerIS6_ESB_EEKNS_16auto_partitionerEE13note_affinityEt
	.weak	_ZTVN3tbb10interface98internal9start_forINS_13blocked_rangeIN9__gnu_cxx17__normal_iteratorIP11access_taskSt6vectorIS6_SaIS6_EEEEEENS_8internal26parallel_for_each_body_forI7invokerIS6_ESB_EEKNS_16auto_partitionerEEE
	.section	.data.rel.ro.local._ZTVN3tbb10interface98internal9start_forINS_13blocked_rangeIN9__gnu_cxx17__normal_iteratorIP11access_taskSt6vectorIS6_SaIS6_EEEEEENS_8internal26parallel_for_each_body_forI7invokerIS6_ESB_EEKNS_16auto_partitionerEEE,"awG",@progbits,_ZTVN3tbb10interface98internal9start_forINS_13blocked_rangeIN9__gnu_cxx17__normal_iteratorIP11access_taskSt6vectorIS6_SaIS6_EEEEEENS_8internal26parallel_for_each_body_forI7invokerIS6_ESB_EEKNS_16auto_partitionerEEE,comdat
	.align 8
	.type	_ZTVN3tbb10interface98internal9start_forINS_13blocked_rangeIN9__gnu_cxx17__normal_iteratorIP11access_taskSt6vectorIS6_SaIS6_EEEEEENS_8internal26parallel_for_each_body_forI7invokerIS6_ESB_EEKNS_16auto_partitionerEEE, @object
	.size	_ZTVN3tbb10interface98internal9start_forINS_13blocked_rangeIN9__gnu_cxx17__normal_iteratorIP11access_taskSt6vectorIS6_SaIS6_EEEEEENS_8internal26parallel_for_each_body_forI7invokerIS6_ESB_EEKNS_16auto_partitionerEEE, 48
_ZTVN3tbb10interface98internal9start_forINS_13blocked_rangeIN9__gnu_cxx17__normal_iteratorIP11access_taskSt6vectorIS6_SaIS6_EEEEEENS_8internal26parallel_for_each_body_forI7invokerIS6_ESB_EEKNS_16auto_partitionerEEE:
	.quad	0
	.quad	_ZTIN3tbb10interface98internal9start_forINS_13blocked_rangeIN9__gnu_cxx17__normal_iteratorIP11access_taskSt6vectorIS6_SaIS6_EEEEEENS_8internal26parallel_for_each_body_forI7invokerIS6_ESB_EEKNS_16auto_partitionerEEE
	.quad	_ZN3tbb10interface98internal9start_forINS_13blocked_rangeIN9__gnu_cxx17__normal_iteratorIP11access_taskSt6vectorIS6_SaIS6_EEEEEENS_8internal26parallel_for_each_body_forI7invokerIS6_ESB_EEKNS_16auto_partitionerEED1Ev
	.quad	_ZN3tbb10interface98internal9start_forINS_13blocked_rangeIN9__gnu_cxx17__normal_iteratorIP11access_taskSt6vectorIS6_SaIS6_EEEEEENS_8internal26parallel_for_each_body_forI7invokerIS6_ESB_EEKNS_16auto_partitionerEED0Ev
	.quad	_ZN3tbb10interface98internal9start_forINS_13blocked_rangeIN9__gnu_cxx17__normal_iteratorIP11access_taskSt6vectorIS6_SaIS6_EEEEEENS_8internal26parallel_for_each_body_forI7invokerIS6_ESB_EEKNS_16auto_partitionerEE7executeEv
	.quad	_ZN3tbb10interface98internal9start_forINS_13blocked_rangeIN9__gnu_cxx17__normal_iteratorIP11access_taskSt6vectorIS6_SaIS6_EEEEEENS_8internal26parallel_for_each_body_forI7invokerIS6_ESB_EEKNS_16auto_partitionerEE13note_affinityEt
	.weak	_ZTVN3tbb10interface98internal9start_forINS_13blocked_rangeIN9__gnu_cxx17__normal_iteratorIP14tear_down_taskSt6vectorIS6_SaIS6_EEEEEENS_8internal26parallel_for_each_body_forI7invokerIS6_ESB_EEKNS_16auto_partitionerEEE
	.section	.data.rel.ro.local._ZTVN3tbb10interface98internal9start_forINS_13blocked_rangeIN9__gnu_cxx17__normal_iteratorIP14tear_down_taskSt6vectorIS6_SaIS6_EEEEEENS_8internal26parallel_for_each_body_forI7invokerIS6_ESB_EEKNS_16auto_partitionerEEE,"awG",@progbits,_ZTVN3tbb10interface98internal9start_forINS_13blocked_rangeIN9__gnu_cxx17__normal_iteratorIP14tear_down_taskSt6vectorIS6_SaIS6_EEEEEENS_8internal26parallel_for_each_body_forI7invokerIS6_ESB_EEKNS_16auto_partitionerEEE,comdat
	.align 8
	.type	_ZTVN3tbb10interface98internal9start_forINS_13blocked_rangeIN9__gnu_cxx17__normal_iteratorIP14tear_down_taskSt6vectorIS6_SaIS6_EEEEEENS_8internal26parallel_for_each_body_forI7invokerIS6_ESB_EEKNS_16auto_partitionerEEE, @object
	.size	_ZTVN3tbb10interface98internal9start_forINS_13blocked_rangeIN9__gnu_cxx17__normal_iteratorIP14tear_down_taskSt6vectorIS6_SaIS6_EEEEEENS_8internal26parallel_for_each_body_forI7invokerIS6_ESB_EEKNS_16auto_partitionerEEE, 48
_ZTVN3tbb10interface98internal9start_forINS_13blocked_rangeIN9__gnu_cxx17__normal_iteratorIP14tear_down_taskSt6vectorIS6_SaIS6_EEEEEENS_8internal26parallel_for_each_body_forI7invokerIS6_ESB_EEKNS_16auto_partitionerEEE:
	.quad	0
	.quad	_ZTIN3tbb10interface98internal9start_forINS_13blocked_rangeIN9__gnu_cxx17__normal_iteratorIP14tear_down_taskSt6vectorIS6_SaIS6_EEEEEENS_8internal26parallel_for_each_body_forI7invokerIS6_ESB_EEKNS_16auto_partitionerEEE
	.quad	_ZN3tbb10interface98internal9start_forINS_13blocked_rangeIN9__gnu_cxx17__normal_iteratorIP14tear_down_taskSt6vectorIS6_SaIS6_EEEEEENS_8internal26parallel_for_each_body_forI7invokerIS6_ESB_EEKNS_16auto_partitionerEED1Ev
	.quad	_ZN3tbb10interface98internal9start_forINS_13blocked_rangeIN9__gnu_cxx17__normal_iteratorIP14tear_down_taskSt6vectorIS6_SaIS6_EEEEEENS_8internal26parallel_for_each_body_forI7invokerIS6_ESB_EEKNS_16auto_partitionerEED0Ev
	.quad	_ZN3tbb10interface98internal9start_forINS_13blocked_rangeIN9__gnu_cxx17__normal_iteratorIP14tear_down_taskSt6vectorIS6_SaIS6_EEEEEENS_8internal26parallel_for_each_body_forI7invokerIS6_ESB_EEKNS_16auto_partitionerEE7executeEv
	.quad	_ZN3tbb10interface98internal9start_forINS_13blocked_rangeIN9__gnu_cxx17__normal_iteratorIP14tear_down_taskSt6vectorIS6_SaIS6_EEEEEENS_8internal26parallel_for_each_body_forI7invokerIS6_ESB_EEKNS_16auto_partitionerEE13note_affinityEt
	.globl	local_thread_vars
	.bss
	.align 32
	.type	local_thread_vars, @object
	.size	local_thread_vars, 96
local_thread_vars:
	.zero	96
	.globl	cpus_num
	.align 4
	.type	cpus_num, @object
	.size	cpus_num, 4
cpus_num:
	.zero	4
	.local	_ZStL8__ioinit
	.comm	_ZStL8__ioinit,1,1
	.section	.rodata.cst8,"aM",@progbits,8
	.align 8
.LC8:
	.long	0
	.long	1106247680
	.align 8
.LC9:
	.long	0
	.long	1005584384
	.align 8
.LC10:
	.long	0
	.long	1072693248
	.align 8
.LC11:
	.long	0
	.long	-1073741824
	.align 8
.LC12:
	.long	0
	.long	1077870592
	.align 8
.LC13:
	.long	0
	.long	1082126336
	.align 8
.LC18:
	.long	3894859413
	.long	1041313291
	.align 8
.LC21:
	.long	0
	.long	1051721728
	.align 8
.LC22:
	.long	0
	.long	1078984704
	.align 8
.LC23:
	.long	0
	.long	1082130432
	.align 8
.LC24:
	.long	0
	.long	1062207488
	.hidden	DW.ref.__gxx_personality_v0
	.weak	DW.ref.__gxx_personality_v0
	.section	.data.rel.local.DW.ref.__gxx_personality_v0,"awG",@progbits,DW.ref.__gxx_personality_v0,comdat
	.align 8
	.type	DW.ref.__gxx_personality_v0, @object
	.size	DW.ref.__gxx_personality_v0, 8
DW.ref.__gxx_personality_v0:
	.quad	__gxx_personality_v0
	.hidden	__dso_handle
	.ident	"GCC: (Ubuntu 7.3.0-27ubuntu1~18.04) 7.3.0"
	.section	.note.GNU-stack,"",@progbits
