	.file	"main.cpp"
	.text
	.section	.text._ZnwmPv,"axG",@progbits,_ZnwmPv,comdat
	.weak	_ZnwmPv
	.type	_ZnwmPv, @function
_ZnwmPv:
.LFB38:
	.cfi_startproc
	pushq	%rbp
	.cfi_def_cfa_offset 16
	.cfi_offset 6, -16
	movq	%rsp, %rbp
	.cfi_def_cfa_register 6
	movq	%rdi, -8(%rbp)
	movq	%rsi, -16(%rbp)
	movq	-16(%rbp), %rax
	popq	%rbp
	.cfi_def_cfa 7, 8
	ret
	.cfi_endproc
.LFE38:
	.size	_ZnwmPv, .-_ZnwmPv
	.section	.text._ZdlPvS_,"axG",@progbits,_ZdlPvS_,comdat
	.weak	_ZdlPvS_
	.type	_ZdlPvS_, @function
_ZdlPvS_:
.LFB40:
	.cfi_startproc
	pushq	%rbp
	.cfi_def_cfa_offset 16
	.cfi_offset 6, -16
	movq	%rsp, %rbp
	.cfi_def_cfa_register 6
	movq	%rdi, -8(%rbp)
	movq	%rsi, -16(%rbp)
	nop
	popq	%rbp
	.cfi_def_cfa 7, 8
	ret
	.cfi_endproc
.LFE40:
	.size	_ZdlPvS_, .-_ZdlPvS_
	.section	.rodata
	.type	_ZStL19piecewise_construct, @object
	.size	_ZStL19piecewise_construct, 1
_ZStL19piecewise_construct:
	.zero	1
	.local	_ZStL8__ioinit
	.comm	_ZStL8__ioinit,1,1
	.align 8
	.type	_ZN3tbb8internalL15NFS_MaxLineSizeE, @object
	.size	_ZN3tbb8internalL15NFS_MaxLineSizeE, 8
_ZN3tbb8internalL15NFS_MaxLineSizeE:
	.quad	128
	.section	.text._ZN3tbb8internal9no_assignC2Ev,"axG",@progbits,_ZN3tbb8internal9no_assignC5Ev,comdat
	.align 2
	.weak	_ZN3tbb8internal9no_assignC2Ev
	.type	_ZN3tbb8internal9no_assignC2Ev, @function
_ZN3tbb8internal9no_assignC2Ev:
.LFB2896:
	.cfi_startproc
	pushq	%rbp
	.cfi_def_cfa_offset 16
	.cfi_offset 6, -16
	movq	%rsp, %rbp
	.cfi_def_cfa_register 6
	movq	%rdi, -8(%rbp)
	nop
	popq	%rbp
	.cfi_def_cfa 7, 8
	ret
	.cfi_endproc
.LFE2896:
	.size	_ZN3tbb8internal9no_assignC2Ev, .-_ZN3tbb8internal9no_assignC2Ev
	.weak	_ZN3tbb8internal9no_assignC1Ev
	.set	_ZN3tbb8internal9no_assignC1Ev,_ZN3tbb8internal9no_assignC2Ev
	.section	.text._ZN3tbb8internal7no_copyC2Ev,"axG",@progbits,_ZN3tbb8internal7no_copyC5Ev,comdat
	.align 2
	.weak	_ZN3tbb8internal7no_copyC2Ev
	.type	_ZN3tbb8internal7no_copyC2Ev, @function
_ZN3tbb8internal7no_copyC2Ev:
.LFB2899:
	.cfi_startproc
	pushq	%rbp
	.cfi_def_cfa_offset 16
	.cfi_offset 6, -16
	movq	%rsp, %rbp
	.cfi_def_cfa_register 6
	subq	$16, %rsp
	movq	%rdi, -8(%rbp)
	movq	-8(%rbp), %rax
	movq	%rax, %rdi
	call	_ZN3tbb8internal9no_assignC2Ev
	nop
	leave
	.cfi_def_cfa 7, 8
	ret
	.cfi_endproc
.LFE2899:
	.size	_ZN3tbb8internal7no_copyC2Ev, .-_ZN3tbb8internal7no_copyC2Ev
	.weak	_ZN3tbb8internal7no_copyC1Ev
	.set	_ZN3tbb8internal7no_copyC1Ev,_ZN3tbb8internal7no_copyC2Ev
	.section	.text._ZN3tbb18proportional_splitC2Emm,"axG",@progbits,_ZN3tbb18proportional_splitC5Emm,comdat
	.align 2
	.weak	_ZN3tbb18proportional_splitC2Emm
	.type	_ZN3tbb18proportional_splitC2Emm, @function
_ZN3tbb18proportional_splitC2Emm:
.LFB2909:
	.cfi_startproc
	pushq	%rbp
	.cfi_def_cfa_offset 16
	.cfi_offset 6, -16
	movq	%rsp, %rbp
	.cfi_def_cfa_register 6
	subq	$32, %rsp
	movq	%rdi, -8(%rbp)
	movq	%rsi, -16(%rbp)
	movq	%rdx, -24(%rbp)
	movq	-8(%rbp), %rax
	movq	%rax, %rdi
	call	_ZN3tbb8internal9no_assignC2Ev
	movq	-8(%rbp), %rax
	movq	-16(%rbp), %rdx
	movq	%rdx, (%rax)
	movq	-8(%rbp), %rax
	movq	-24(%rbp), %rdx
	movq	%rdx, 8(%rax)
	nop
	leave
	.cfi_def_cfa 7, 8
	ret
	.cfi_endproc
.LFE2909:
	.size	_ZN3tbb18proportional_splitC2Emm, .-_ZN3tbb18proportional_splitC2Emm
	.weak	_ZN3tbb18proportional_splitC1Emm
	.set	_ZN3tbb18proportional_splitC1Emm,_ZN3tbb18proportional_splitC2Emm
	.section	.text._ZNK3tbb18proportional_splitcvNS_5splitEEv,"axG",@progbits,_ZNK3tbb18proportional_splitcvNS_5splitEEv,comdat
	.align 2
	.weak	_ZNK3tbb18proportional_splitcvNS_5splitEEv
	.type	_ZNK3tbb18proportional_splitcvNS_5splitEEv, @function
_ZNK3tbb18proportional_splitcvNS_5splitEEv:
.LFB2913:
	.cfi_startproc
	pushq	%rbp
	.cfi_def_cfa_offset 16
	.cfi_offset 6, -16
	movq	%rsp, %rbp
	.cfi_def_cfa_register 6
	movq	%rdi, -8(%rbp)
	popq	%rbp
	.cfi_def_cfa 7, 8
	ret
	.cfi_endproc
.LFE2913:
	.size	_ZNK3tbb18proportional_splitcvNS_5splitEEv, .-_ZNK3tbb18proportional_splitcvNS_5splitEEv
	.section	.rodata
	.align 4
	.type	_ZN9__gnu_cxxL21__default_lock_policyE, @object
	.size	_ZN9__gnu_cxxL21__default_lock_policyE, 4
_ZN9__gnu_cxxL21__default_lock_policyE:
	.long	2
	.type	_ZStL13allocator_arg, @object
	.size	_ZStL13allocator_arg, 1
_ZStL13allocator_arg:
	.zero	1
	.type	_ZStL6ignore, @object
	.size	_ZStL6ignore, 1
_ZStL6ignore:
	.zero	1
	.section	.text._Z21__TBB_machine_cmpswp8PVvll,"axG",@progbits,_Z21__TBB_machine_cmpswp8PVvll,comdat
	.weak	_Z21__TBB_machine_cmpswp8PVvll
	.type	_Z21__TBB_machine_cmpswp8PVvll, @function
_Z21__TBB_machine_cmpswp8PVvll:
.LFB3751:
	.cfi_startproc
	pushq	%rbp
	.cfi_def_cfa_offset 16
	.cfi_offset 6, -16
	movq	%rsp, %rbp
	.cfi_def_cfa_register 6
	movq	%rdi, -8(%rbp)
	movq	%rsi, -16(%rbp)
	movq	%rdx, -24(%rbp)
	movq	-16(%rbp), %rsi
	movq	-8(%rbp), %rcx
	leaq	-24(%rbp), %rdx
	movq	(%rdx), %rax
	lock cmpxchgq	%rsi, (%rcx)
	sete	%cl
	testb	%cl, %cl
	jne	.L10
	movq	%rax, (%rdx)
.L10:
	movq	-24(%rbp), %rax
	popq	%rbp
	.cfi_def_cfa 7, 8
	ret
	.cfi_endproc
.LFE3751:
	.size	_Z21__TBB_machine_cmpswp8PVvll, .-_Z21__TBB_machine_cmpswp8PVvll
	.section	.text._Z23__TBB_machine_fetchadd8PVvl,"axG",@progbits,_Z23__TBB_machine_fetchadd8PVvl,comdat
	.weak	_Z23__TBB_machine_fetchadd8PVvl
	.type	_Z23__TBB_machine_fetchadd8PVvl, @function
_Z23__TBB_machine_fetchadd8PVvl:
.LFB3752:
	.cfi_startproc
	pushq	%rbp
	.cfi_def_cfa_offset 16
	.cfi_offset 6, -16
	movq	%rsp, %rbp
	.cfi_def_cfa_register 6
	movq	%rdi, -8(%rbp)
	movq	%rsi, -16(%rbp)
	movq	-16(%rbp), %rdx
	movq	-8(%rbp), %rax
	lock xaddq	%rdx, (%rax)
	movq	%rdx, %rax
	popq	%rbp
	.cfi_def_cfa 7, 8
	ret
	.cfi_endproc
.LFE3752:
	.size	_Z23__TBB_machine_fetchadd8PVvl, .-_Z23__TBB_machine_fetchadd8PVvl
	.section	.text._ZN3tbb8internal12gcc_builtins3clzEm,"axG",@progbits,_ZN3tbb8internal12gcc_builtins3clzEm,comdat
	.weak	_ZN3tbb8internal12gcc_builtins3clzEm
	.type	_ZN3tbb8internal12gcc_builtins3clzEm, @function
_ZN3tbb8internal12gcc_builtins3clzEm:
.LFB3755:
	.cfi_startproc
	pushq	%rbp
	.cfi_def_cfa_offset 16
	.cfi_offset 6, -16
	movq	%rsp, %rbp
	.cfi_def_cfa_register 6
	movq	%rdi, -8(%rbp)
	bsrq	-8(%rbp), %rax
	xorq	$63, %rax
	popq	%rbp
	.cfi_def_cfa 7, 8
	ret
	.cfi_endproc
.LFE3755:
	.size	_ZN3tbb8internal12gcc_builtins3clzEm, .-_ZN3tbb8internal12gcc_builtins3clzEm
	.text
	.type	_ZL16__TBB_machine_lgm, @function
_ZL16__TBB_machine_lgm:
.LFB3757:
	.cfi_startproc
	pushq	%rbp
	.cfi_def_cfa_offset 16
	.cfi_offset 6, -16
	movq	%rsp, %rbp
	.cfi_def_cfa_register 6
	subq	$16, %rsp
	movq	%rdi, -8(%rbp)
	movq	-8(%rbp), %rax
	movq	%rax, %rdi
	call	_ZN3tbb8internal12gcc_builtins3clzEm
	cltq
	movl	$63, %edx
	subq	%rax, %rdx
	movq	%rdx, %rax
	leave
	.cfi_def_cfa 7, 8
	ret
	.cfi_endproc
.LFE3757:
	.size	_ZL16__TBB_machine_lgm, .-_ZL16__TBB_machine_lgm
	.section	.text._ZN3tbb6atomicImEaSEm,"axG",@progbits,_ZN3tbb6atomicImEaSEm,comdat
	.align 2
	.weak	_ZN3tbb6atomicImEaSEm
	.type	_ZN3tbb6atomicImEaSEm, @function
_ZN3tbb6atomicImEaSEm:
.LFB3892:
	.cfi_startproc
	pushq	%rbp
	.cfi_def_cfa_offset 16
	.cfi_offset 6, -16
	movq	%rsp, %rbp
	.cfi_def_cfa_register 6
	subq	$16, %rsp
	movq	%rdi, -8(%rbp)
	movq	%rsi, -16(%rbp)
	movq	-8(%rbp), %rax
	movq	-16(%rbp), %rdx
	movq	%rdx, %rsi
	movq	%rax, %rdi
	call	_ZN3tbb8internal11atomic_implImE18store_with_releaseEm
	leave
	.cfi_def_cfa 7, 8
	ret
	.cfi_endproc
.LFE3892:
	.size	_ZN3tbb6atomicImEaSEm, .-_ZN3tbb6atomicImEaSEm
	.section	.rodata
	.align 8
	.type	_ZN3tbb8internalL16NUM_NOTIFY_TYPESE, @object
	.size	_ZN3tbb8internalL16NUM_NOTIFY_TYPESE, 8
_ZN3tbb8internalL16NUM_NOTIFY_TYPESE:
	.quad	4
	.section	.text._ZN3tbb8internal15call_itt_notifyENS0_11notify_typeEPv,"axG",@progbits,_ZN3tbb8internal15call_itt_notifyENS0_11notify_typeEPv,comdat
	.weak	_ZN3tbb8internal15call_itt_notifyENS0_11notify_typeEPv
	.type	_ZN3tbb8internal15call_itt_notifyENS0_11notify_typeEPv, @function
_ZN3tbb8internal15call_itt_notifyENS0_11notify_typeEPv:
.LFB4038:
	.cfi_startproc
	pushq	%rbp
	.cfi_def_cfa_offset 16
	.cfi_offset 6, -16
	movq	%rsp, %rbp
	.cfi_def_cfa_register 6
	movl	%edi, -4(%rbp)
	movq	%rsi, -16(%rbp)
	nop
	popq	%rbp
	.cfi_def_cfa 7, 8
	ret
	.cfi_endproc
.LFE4038:
	.size	_ZN3tbb8internal15call_itt_notifyENS0_11notify_typeEPv, .-_ZN3tbb8internal15call_itt_notifyENS0_11notify_typeEPv
	.section	.rodata
	.align 8
	.type	_ZN3tbb8internalL28vector_allocation_error_flagE, @object
	.size	_ZN3tbb8internalL28vector_allocation_error_flagE, 8
_ZN3tbb8internalL28vector_allocation_error_flagE:
	.quad	63
	.section	.text._ZN3tbb8internal25concurrent_vector_base_v315segment_value_tC2EPv,"axG",@progbits,_ZN3tbb8internal25concurrent_vector_base_v315segment_value_tC5EPv,comdat
	.align 2
	.weak	_ZN3tbb8internal25concurrent_vector_base_v315segment_value_tC2EPv
	.type	_ZN3tbb8internal25concurrent_vector_base_v315segment_value_tC2EPv, @function
_ZN3tbb8internal25concurrent_vector_base_v315segment_value_tC2EPv:
.LFB4264:
	.cfi_startproc
	pushq	%rbp
	.cfi_def_cfa_offset 16
	.cfi_offset 6, -16
	movq	%rsp, %rbp
	.cfi_def_cfa_register 6
	movq	%rdi, -8(%rbp)
	movq	%rsi, -16(%rbp)
	movq	-8(%rbp), %rax
	movq	-16(%rbp), %rdx
	movq	%rdx, (%rax)
	nop
	popq	%rbp
	.cfi_def_cfa 7, 8
	ret
	.cfi_endproc
.LFE4264:
	.size	_ZN3tbb8internal25concurrent_vector_base_v315segment_value_tC2EPv, .-_ZN3tbb8internal25concurrent_vector_base_v315segment_value_tC2EPv
	.weak	_ZN3tbb8internal25concurrent_vector_base_v315segment_value_tC1EPv
	.set	_ZN3tbb8internal25concurrent_vector_base_v315segment_value_tC1EPv,_ZN3tbb8internal25concurrent_vector_base_v315segment_value_tC2EPv
	.section	.text._ZN3tbb8internaleqERKNS0_25concurrent_vector_base_v315segment_value_tENS1_17segment_allocatedE,"axG",@progbits,_ZN3tbb8internaleqERKNS0_25concurrent_vector_base_v315segment_value_tENS1_17segment_allocatedE,comdat
	.weak	_ZN3tbb8internaleqERKNS0_25concurrent_vector_base_v315segment_value_tENS1_17segment_allocatedE
	.type	_ZN3tbb8internaleqERKNS0_25concurrent_vector_base_v315segment_value_tENS1_17segment_allocatedE, @function
_ZN3tbb8internaleqERKNS0_25concurrent_vector_base_v315segment_value_tENS1_17segment_allocatedE:
.LFB4267:
	.cfi_startproc
	pushq	%rbp
	.cfi_def_cfa_offset 16
	.cfi_offset 6, -16
	movq	%rsp, %rbp
	.cfi_def_cfa_register 6
	movq	%rdi, -8(%rbp)
	movq	-8(%rbp), %rax
	movq	(%rax), %rax
	cmpq	$63, %rax
	seta	%al
	popq	%rbp
	.cfi_def_cfa 7, 8
	ret
	.cfi_endproc
.LFE4267:
	.size	_ZN3tbb8internaleqERKNS0_25concurrent_vector_base_v315segment_value_tENS1_17segment_allocatedE, .-_ZN3tbb8internaleqERKNS0_25concurrent_vector_base_v315segment_value_tENS1_17segment_allocatedE
	.section	.text._ZN3tbb8internal25concurrent_vector_base_v39segment_tC2Ev,"axG",@progbits,_ZN3tbb8internal25concurrent_vector_base_v39segment_tC5Ev,comdat
	.align 2
	.weak	_ZN3tbb8internal25concurrent_vector_base_v39segment_tC2Ev
	.type	_ZN3tbb8internal25concurrent_vector_base_v39segment_tC2Ev, @function
_ZN3tbb8internal25concurrent_vector_base_v39segment_tC2Ev:
.LFB4273:
	.cfi_startproc
	pushq	%rbp
	.cfi_def_cfa_offset 16
	.cfi_offset 6, -16
	movq	%rsp, %rbp
	.cfi_def_cfa_register 6
	subq	$32, %rsp
	movq	%rdi, -24(%rbp)
	movq	%fs:40, %rax
	movq	%rax, -8(%rbp)
	xorl	%eax, %eax
	movq	-24(%rbp), %rax
	subq	$8, %rsp
	pushq	%rdx
	movq	%rax, %rdi
	call	_ZN3tbb8internal25concurrent_vector_base_v39segment_t5storeILNS_16memory_semanticsE3EEEvNS1_16segment_not_usedE
	addq	$16, %rsp
	nop
	movq	-8(%rbp), %rax
	xorq	%fs:40, %rax
	je	.L25
	call	__stack_chk_fail@PLT
.L25:
	leave
	.cfi_def_cfa 7, 8
	ret
	.cfi_endproc
.LFE4273:
	.size	_ZN3tbb8internal25concurrent_vector_base_v39segment_tC2Ev, .-_ZN3tbb8internal25concurrent_vector_base_v39segment_tC2Ev
	.weak	_ZN3tbb8internal25concurrent_vector_base_v39segment_tC1Ev
	.set	_ZN3tbb8internal25concurrent_vector_base_v39segment_tC1Ev,_ZN3tbb8internal25concurrent_vector_base_v39segment_tC2Ev
	.section	.text._ZN3tbb8internal25concurrent_vector_base_v3C2Ev,"axG",@progbits,_ZN3tbb8internal25concurrent_vector_base_v3C5Ev,comdat
	.align 2
	.weak	_ZN3tbb8internal25concurrent_vector_base_v3C2Ev
	.type	_ZN3tbb8internal25concurrent_vector_base_v3C2Ev, @function
_ZN3tbb8internal25concurrent_vector_base_v3C2Ev:
.LFB4285:
	.cfi_startproc
	pushq	%rbp
	.cfi_def_cfa_offset 16
	.cfi_offset 6, -16
	movq	%rsp, %rbp
	.cfi_def_cfa_register 6
	pushq	%r12
	pushq	%rbx
	subq	$16, %rsp
	.cfi_offset 12, -24
	.cfi_offset 3, -32
	movq	%rdi, -24(%rbp)
	movq	-24(%rbp), %rax
	addq	$32, %rax
	movl	$2, %ebx
	movq	%rax, %r12
.L28:
	testq	%rbx, %rbx
	js	.L27
	movq	%r12, %rdi
	call	_ZN3tbb8internal25concurrent_vector_base_v39segment_tC1Ev
	addq	$8, %r12
	subq	$1, %rbx
	jmp	.L28
.L27:
	movq	-24(%rbp), %rax
	addq	$16, %rax
	movl	$0, %esi
	movq	%rax, %rdi
	call	_ZN3tbb8internal11atomic_implImE5storeILNS_16memory_semanticsE3EEEvm
	movq	-24(%rbp), %rax
	addq	$8, %rax
	movl	$0, %esi
	movq	%rax, %rdi
	call	_ZN3tbb8internal11atomic_implImE5storeILNS_16memory_semanticsE3EEEvm
	movq	-24(%rbp), %rax
	addq	$24, %rax
	movq	-24(%rbp), %rdx
	addq	$32, %rdx
	movq	%rdx, %rsi
	movq	%rax, %rdi
	call	_ZN3tbb8internal11atomic_implIPNS0_25concurrent_vector_base_v39segment_tEE5storeILNS_16memory_semanticsE3EEEvS4_
	nop
	addq	$16, %rsp
	popq	%rbx
	popq	%r12
	popq	%rbp
	.cfi_def_cfa 7, 8
	ret
	.cfi_endproc
.LFE4285:
	.size	_ZN3tbb8internal25concurrent_vector_base_v3C2Ev, .-_ZN3tbb8internal25concurrent_vector_base_v3C2Ev
	.weak	_ZN3tbb8internal25concurrent_vector_base_v3C1Ev
	.set	_ZN3tbb8internal25concurrent_vector_base_v3C1Ev,_ZN3tbb8internal25concurrent_vector_base_v3C2Ev
	.section	.text._ZN3tbb8internal25concurrent_vector_base_v316segment_index_ofEm,"axG",@progbits,_ZN3tbb8internal25concurrent_vector_base_v316segment_index_ofEm,comdat
	.weak	_ZN3tbb8internal25concurrent_vector_base_v316segment_index_ofEm
	.type	_ZN3tbb8internal25concurrent_vector_base_v316segment_index_ofEm, @function
_ZN3tbb8internal25concurrent_vector_base_v316segment_index_ofEm:
.LFB4287:
	.cfi_startproc
	pushq	%rbp
	.cfi_def_cfa_offset 16
	.cfi_offset 6, -16
	movq	%rsp, %rbp
	.cfi_def_cfa_register 6
	subq	$16, %rsp
	movq	%rdi, -8(%rbp)
	movq	-8(%rbp), %rax
	orq	$1, %rax
	movq	%rax, %rdi
	call	_ZL16__TBB_machine_lgm
	leave
	.cfi_def_cfa 7, 8
	ret
	.cfi_endproc
.LFE4287:
	.size	_ZN3tbb8internal25concurrent_vector_base_v316segment_index_ofEm, .-_ZN3tbb8internal25concurrent_vector_base_v316segment_index_ofEm
	.section	.text._ZN3tbb8internal25concurrent_vector_base_v312segment_baseEm,"axG",@progbits,_ZN3tbb8internal25concurrent_vector_base_v312segment_baseEm,comdat
	.weak	_ZN3tbb8internal25concurrent_vector_base_v312segment_baseEm
	.type	_ZN3tbb8internal25concurrent_vector_base_v312segment_baseEm, @function
_ZN3tbb8internal25concurrent_vector_base_v312segment_baseEm:
.LFB4288:
	.cfi_startproc
	pushq	%rbp
	.cfi_def_cfa_offset 16
	.cfi_offset 6, -16
	movq	%rsp, %rbp
	.cfi_def_cfa_register 6
	movq	%rdi, -8(%rbp)
	movq	-8(%rbp), %rax
	movl	$1, %edx
	movl	%eax, %ecx
	salq	%cl, %rdx
	movq	%rdx, %rax
	andq	$-2, %rax
	popq	%rbp
	.cfi_def_cfa 7, 8
	ret
	.cfi_endproc
.LFE4288:
	.size	_ZN3tbb8internal25concurrent_vector_base_v312segment_baseEm, .-_ZN3tbb8internal25concurrent_vector_base_v312segment_baseEm
	.section	.text._ZN3tbb8internal25concurrent_vector_base_v321segment_base_index_ofERm,"axG",@progbits,_ZN3tbb8internal25concurrent_vector_base_v321segment_base_index_ofERm,comdat
	.weak	_ZN3tbb8internal25concurrent_vector_base_v321segment_base_index_ofERm
	.type	_ZN3tbb8internal25concurrent_vector_base_v321segment_base_index_ofERm, @function
_ZN3tbb8internal25concurrent_vector_base_v321segment_base_index_ofERm:
.LFB4289:
	.cfi_startproc
	pushq	%rbp
	.cfi_def_cfa_offset 16
	.cfi_offset 6, -16
	movq	%rsp, %rbp
	.cfi_def_cfa_register 6
	subq	$32, %rsp
	movq	%rdi, -24(%rbp)
	movq	-24(%rbp), %rax
	movq	(%rax), %rax
	movq	%rax, %rdi
	call	_ZN3tbb8internal25concurrent_vector_base_v316segment_index_ofEm
	movq	%rax, -8(%rbp)
	movq	-8(%rbp), %rax
	movq	%rax, %rdi
	call	_ZN3tbb8internal25concurrent_vector_base_v312segment_baseEm
	movq	%rax, %rdx
	movq	-24(%rbp), %rax
	movq	(%rax), %rax
	subq	%rdx, %rax
	movq	%rax, %rdx
	movq	-24(%rbp), %rax
	movq	%rdx, (%rax)
	movq	-8(%rbp), %rax
	leave
	.cfi_def_cfa 7, 8
	ret
	.cfi_endproc
.LFE4289:
	.size	_ZN3tbb8internal25concurrent_vector_base_v321segment_base_index_ofERm, .-_ZN3tbb8internal25concurrent_vector_base_v321segment_base_index_ofERm
	.section	.text._ZN3tbb8internal25concurrent_vector_base_v312segment_sizeEm,"axG",@progbits,_ZN3tbb8internal25concurrent_vector_base_v312segment_sizeEm,comdat
	.weak	_ZN3tbb8internal25concurrent_vector_base_v312segment_sizeEm
	.type	_ZN3tbb8internal25concurrent_vector_base_v312segment_sizeEm, @function
_ZN3tbb8internal25concurrent_vector_base_v312segment_sizeEm:
.LFB4290:
	.cfi_startproc
	pushq	%rbp
	.cfi_def_cfa_offset 16
	.cfi_offset 6, -16
	movq	%rsp, %rbp
	.cfi_def_cfa_register 6
	movq	%rdi, -8(%rbp)
	movq	-8(%rbp), %rax
	movl	$1, %edx
	movl	%eax, %ecx
	salq	%cl, %rdx
	movq	%rdx, %rax
	popq	%rbp
	.cfi_def_cfa 7, 8
	ret
	.cfi_endproc
.LFE4290:
	.size	_ZN3tbb8internal25concurrent_vector_base_v312segment_sizeEm, .-_ZN3tbb8internal25concurrent_vector_base_v312segment_sizeEm
	.section	.rodata
	.align 8
	.type	_ZN3tbb10interface58internalL15hash_multiplierE, @object
	.size	_ZN3tbb10interface58internalL15hash_multiplierE, 8
_ZN3tbb10interface58internalL15hash_multiplierE:
	.quad	-7046029254386353131
	.section	.text._ZN3tbb10tick_count10interval_tC2Ex,"axG",@progbits,_ZN3tbb10tick_count10interval_tC5Ex,comdat
	.align 2
	.weak	_ZN3tbb10tick_count10interval_tC2Ex
	.type	_ZN3tbb10tick_count10interval_tC2Ex, @function
_ZN3tbb10tick_count10interval_tC2Ex:
.LFB4435:
	.cfi_startproc
	pushq	%rbp
	.cfi_def_cfa_offset 16
	.cfi_offset 6, -16
	movq	%rsp, %rbp
	.cfi_def_cfa_register 6
	movq	%rdi, -8(%rbp)
	movq	%rsi, -16(%rbp)
	movq	-8(%rbp), %rax
	movq	-16(%rbp), %rdx
	movq	%rdx, (%rax)
	nop
	popq	%rbp
	.cfi_def_cfa 7, 8
	ret
	.cfi_endproc
.LFE4435:
	.size	_ZN3tbb10tick_count10interval_tC2Ex, .-_ZN3tbb10tick_count10interval_tC2Ex
	.weak	_ZN3tbb10tick_count10interval_tC1Ex
	.set	_ZN3tbb10tick_count10interval_tC1Ex,_ZN3tbb10tick_count10interval_tC2Ex
	.section	.text._ZN3tbb10tick_count10interval_t16ticks_per_secondEv,"axG",@progbits,_ZN3tbb10tick_count10interval_t16ticks_per_secondEv,comdat
	.weak	_ZN3tbb10tick_count10interval_t16ticks_per_secondEv
	.type	_ZN3tbb10tick_count10interval_t16ticks_per_secondEv, @function
_ZN3tbb10tick_count10interval_t16ticks_per_secondEv:
.LFB4444:
	.cfi_startproc
	pushq	%rbp
	.cfi_def_cfa_offset 16
	.cfi_offset 6, -16
	movq	%rsp, %rbp
	.cfi_def_cfa_register 6
	movl	$1000000000, %eax
	popq	%rbp
	.cfi_def_cfa 7, 8
	ret
	.cfi_endproc
.LFE4444:
	.size	_ZN3tbb10tick_count10interval_t16ticks_per_secondEv, .-_ZN3tbb10tick_count10interval_t16ticks_per_secondEv
	.section	.text._ZN3tbb10tick_countC2Ev,"axG",@progbits,_ZN3tbb10tick_countC5Ev,comdat
	.align 2
	.weak	_ZN3tbb10tick_countC2Ev
	.type	_ZN3tbb10tick_countC2Ev, @function
_ZN3tbb10tick_countC2Ev:
.LFB4446:
	.cfi_startproc
	pushq	%rbp
	.cfi_def_cfa_offset 16
	.cfi_offset 6, -16
	movq	%rsp, %rbp
	.cfi_def_cfa_register 6
	movq	%rdi, -8(%rbp)
	movq	-8(%rbp), %rax
	movq	$0, (%rax)
	nop
	popq	%rbp
	.cfi_def_cfa 7, 8
	ret
	.cfi_endproc
.LFE4446:
	.size	_ZN3tbb10tick_countC2Ev, .-_ZN3tbb10tick_countC2Ev
	.weak	_ZN3tbb10tick_countC1Ev
	.set	_ZN3tbb10tick_countC1Ev,_ZN3tbb10tick_countC2Ev
	.section	.text._ZN3tbb10tick_count10resolutionEv,"axG",@progbits,_ZN3tbb10tick_count10resolutionEv,comdat
	.weak	_ZN3tbb10tick_count10resolutionEv
	.type	_ZN3tbb10tick_count10resolutionEv, @function
_ZN3tbb10tick_count10resolutionEv:
.LFB4448:
	.cfi_startproc
	pushq	%rbp
	.cfi_def_cfa_offset 16
	.cfi_offset 6, -16
	movq	%rsp, %rbp
	.cfi_def_cfa_register 6
	call	_ZN3tbb10tick_count10interval_t16ticks_per_secondEv
	cvtsi2sdq	%rax, %xmm0
	movsd	.LC0(%rip), %xmm1
	divsd	%xmm0, %xmm1
	movapd	%xmm1, %xmm0
	popq	%rbp
	.cfi_def_cfa 7, 8
	ret
	.cfi_endproc
.LFE4448:
	.size	_ZN3tbb10tick_count10resolutionEv, .-_ZN3tbb10tick_count10resolutionEv
	.section	.text._ZN3tbb10tick_count3nowEv,"axG",@progbits,_ZN3tbb10tick_count3nowEv,comdat
	.align 2
	.weak	_ZN3tbb10tick_count3nowEv
	.type	_ZN3tbb10tick_count3nowEv, @function
_ZN3tbb10tick_count3nowEv:
.LFB4449:
	.cfi_startproc
	pushq	%rbp
	.cfi_def_cfa_offset 16
	.cfi_offset 6, -16
	movq	%rsp, %rbp
	.cfi_def_cfa_register 6
	subq	$48, %rsp
	movq	%fs:40, %rax
	movq	%rax, -8(%rbp)
	xorl	%eax, %eax
	leaq	-40(%rbp), %rax
	movq	%rax, %rdi
	call	_ZN3tbb10tick_countC1Ev
	leaq	-32(%rbp), %rax
	movq	%rax, %rsi
	movl	$0, %edi
	call	clock_gettime@PLT
	movl	%eax, -44(%rbp)
	movq	-32(%rbp), %rax
	imulq	$1000000000, %rax, %rdx
	movq	-24(%rbp), %rax
	addq	%rdx, %rax
	movq	%rax, -40(%rbp)
	movq	-40(%rbp), %rax
	movq	-8(%rbp), %rcx
	xorq	%fs:40, %rcx
	je	.L45
	call	__stack_chk_fail@PLT
.L45:
	leave
	.cfi_def_cfa 7, 8
	ret
	.cfi_endproc
.LFE4449:
	.size	_ZN3tbb10tick_count3nowEv, .-_ZN3tbb10tick_count3nowEv
	.section	.text._ZN3tbbmiERKNS_10tick_countES2_,"axG",@progbits,_ZN3tbbmiERKNS_10tick_countES2_,comdat
	.weak	_ZN3tbbmiERKNS_10tick_countES2_
	.type	_ZN3tbbmiERKNS_10tick_countES2_, @function
_ZN3tbbmiERKNS_10tick_countES2_:
.LFB4453:
	.cfi_startproc
	pushq	%rbp
	.cfi_def_cfa_offset 16
	.cfi_offset 6, -16
	movq	%rsp, %rbp
	.cfi_def_cfa_register 6
	subq	$32, %rsp
	movq	%rdi, -24(%rbp)
	movq	%rsi, -32(%rbp)
	movq	%fs:40, %rax
	movq	%rax, -8(%rbp)
	xorl	%eax, %eax
	movq	-24(%rbp), %rax
	movq	(%rax), %rdx
	movq	-32(%rbp), %rax
	movq	(%rax), %rax
	subq	%rax, %rdx
	leaq	-16(%rbp), %rax
	movq	%rdx, %rsi
	movq	%rax, %rdi
	call	_ZN3tbb10tick_count10interval_tC1Ex
	movq	-16(%rbp), %rax
	movq	-8(%rbp), %rcx
	xorq	%fs:40, %rcx
	je	.L48
	call	__stack_chk_fail@PLT
.L48:
	leave
	.cfi_def_cfa 7, 8
	ret
	.cfi_endproc
.LFE4453:
	.size	_ZN3tbbmiERKNS_10tick_countES2_, .-_ZN3tbbmiERKNS_10tick_countES2_
	.section	.text._ZNK3tbb10tick_count10interval_t7secondsEv,"axG",@progbits,_ZNK3tbb10tick_count10interval_t7secondsEv,comdat
	.align 2
	.weak	_ZNK3tbb10tick_count10interval_t7secondsEv
	.type	_ZNK3tbb10tick_count10interval_t7secondsEv, @function
_ZNK3tbb10tick_count10interval_t7secondsEv:
.LFB4454:
	.cfi_startproc
	pushq	%rbp
	.cfi_def_cfa_offset 16
	.cfi_offset 6, -16
	movq	%rsp, %rbp
	.cfi_def_cfa_register 6
	subq	$16, %rsp
	movq	%rdi, -8(%rbp)
	movq	-8(%rbp), %rax
	movq	(%rax), %rax
	cvtsi2sdq	%rax, %xmm1
	movsd	%xmm1, -16(%rbp)
	call	_ZN3tbb10tick_count10resolutionEv
	mulsd	-16(%rbp), %xmm0
	leave
	.cfi_def_cfa 7, 8
	ret
	.cfi_endproc
.LFE4454:
	.size	_ZNK3tbb10tick_count10interval_t7secondsEv, .-_ZNK3tbb10tick_count10interval_t7secondsEv
	.section	.text._ZN3tbb8internal13tbb_thread_v32idC2Em,"axG",@progbits,_ZN3tbb8internal13tbb_thread_v32idC5Em,comdat
	.align 2
	.weak	_ZN3tbb8internal13tbb_thread_v32idC2Em
	.type	_ZN3tbb8internal13tbb_thread_v32idC2Em, @function
_ZN3tbb8internal13tbb_thread_v32idC2Em:
.LFB4482:
	.cfi_startproc
	pushq	%rbp
	.cfi_def_cfa_offset 16
	.cfi_offset 6, -16
	movq	%rsp, %rbp
	.cfi_def_cfa_register 6
	movq	%rdi, -8(%rbp)
	movq	%rsi, -16(%rbp)
	movq	-8(%rbp), %rax
	movq	-16(%rbp), %rdx
	movq	%rdx, (%rax)
	nop
	popq	%rbp
	.cfi_def_cfa 7, 8
	ret
	.cfi_endproc
.LFE4482:
	.size	_ZN3tbb8internal13tbb_thread_v32idC2Em, .-_ZN3tbb8internal13tbb_thread_v32idC2Em
	.weak	_ZN3tbb8internal13tbb_thread_v32idC1Em
	.set	_ZN3tbb8internal13tbb_thread_v32idC1Em,_ZN3tbb8internal13tbb_thread_v32idC2Em
	.section	.text._ZN3tbb8internal13tbb_thread_v32idC2Ev,"axG",@progbits,_ZN3tbb8internal13tbb_thread_v32idC5Ev,comdat
	.align 2
	.weak	_ZN3tbb8internal13tbb_thread_v32idC2Ev
	.type	_ZN3tbb8internal13tbb_thread_v32idC2Ev, @function
_ZN3tbb8internal13tbb_thread_v32idC2Ev:
.LFB4485:
	.cfi_startproc
	pushq	%rbp
	.cfi_def_cfa_offset 16
	.cfi_offset 6, -16
	movq	%rsp, %rbp
	.cfi_def_cfa_register 6
	movq	%rdi, -8(%rbp)
	movq	-8(%rbp), %rax
	movq	$0, (%rax)
	nop
	popq	%rbp
	.cfi_def_cfa 7, 8
	ret
	.cfi_endproc
.LFE4485:
	.size	_ZN3tbb8internal13tbb_thread_v32idC2Ev, .-_ZN3tbb8internal13tbb_thread_v32idC2Ev
	.weak	_ZN3tbb8internal13tbb_thread_v32idC1Ev
	.set	_ZN3tbb8internal13tbb_thread_v32idC1Ev,_ZN3tbb8internal13tbb_thread_v32idC2Ev
	.section	.text._ZN3tbb8internal10tbb_hasherERKNS0_13tbb_thread_v32idE,"axG",@progbits,_ZN3tbb8internal10tbb_hasherERKNS0_13tbb_thread_v32idE,comdat
	.weak	_ZN3tbb8internal10tbb_hasherERKNS0_13tbb_thread_v32idE
	.type	_ZN3tbb8internal10tbb_hasherERKNS0_13tbb_thread_v32idE, @function
_ZN3tbb8internal10tbb_hasherERKNS0_13tbb_thread_v32idE:
.LFB4488:
	.cfi_startproc
	pushq	%rbp
	.cfi_def_cfa_offset 16
	.cfi_offset 6, -16
	movq	%rsp, %rbp
	.cfi_def_cfa_register 6
	subq	$16, %rsp
	movq	%rdi, -8(%rbp)
	movq	-8(%rbp), %rax
	movq	%rax, %rdi
	call	_ZN3tbb10interface510tbb_hasherImEEmRKT_
	leave
	.cfi_def_cfa 7, 8
	ret
	.cfi_endproc
.LFE4488:
	.size	_ZN3tbb8internal10tbb_hasherERKNS0_13tbb_thread_v32idE, .-_ZN3tbb8internal10tbb_hasherERKNS0_13tbb_thread_v32idE
	.section	.text._ZN3tbb8internal23atomic_compare_and_swapERNS0_13tbb_thread_v32idERKS2_S5_,"axG",@progbits,_ZN3tbb8internal23atomic_compare_and_swapERNS0_13tbb_thread_v32idERKS2_S5_,comdat
	.weak	_ZN3tbb8internal23atomic_compare_and_swapERNS0_13tbb_thread_v32idERKS2_S5_
	.type	_ZN3tbb8internal23atomic_compare_and_swapERNS0_13tbb_thread_v32idERKS2_S5_, @function
_ZN3tbb8internal23atomic_compare_and_swapERNS0_13tbb_thread_v32idERKS2_S5_:
.LFB4489:
	.cfi_startproc
	pushq	%rbp
	.cfi_def_cfa_offset 16
	.cfi_offset 6, -16
	movq	%rsp, %rbp
	.cfi_def_cfa_register 6
	subq	$48, %rsp
	movq	%rdi, -24(%rbp)
	movq	%rsi, -32(%rbp)
	movq	%rdx, -40(%rbp)
	movq	%fs:40, %rax
	movq	%rax, -8(%rbp)
	xorl	%eax, %eax
	movq	-24(%rbp), %rax
	movq	%rax, %rdi
	call	_ZN3tbb8internal9as_atomicImEERNS_6atomicIT_EERS3_
	movq	%rax, %rcx
	movq	-40(%rbp), %rax
	movq	(%rax), %rdx
	movq	-32(%rbp), %rax
	movq	(%rax), %rax
	movq	%rax, %rsi
	movq	%rcx, %rdi
	call	_ZN3tbb8internal11atomic_implImE16compare_and_swapEmm
	movq	%rax, %rdx
	leaq	-16(%rbp), %rax
	movq	%rdx, %rsi
	movq	%rax, %rdi
	call	_ZN3tbb8internal13tbb_thread_v32idC1Em
	movq	-16(%rbp), %rax
	movq	-8(%rbp), %rcx
	xorq	%fs:40, %rcx
	je	.L57
	call	__stack_chk_fail@PLT
.L57:
	leave
	.cfi_def_cfa 7, 8
	ret
	.cfi_endproc
.LFE4489:
	.size	_ZN3tbb8internal23atomic_compare_and_swapERNS0_13tbb_thread_v32idERKS2_S5_, .-_ZN3tbb8internal23atomic_compare_and_swapERNS0_13tbb_thread_v32idERKS2_S5_
	.section	.text._ZN3tbb8internaleqENS0_13tbb_thread_v32idES2_,"axG",@progbits,_ZN3tbb8internaleqENS0_13tbb_thread_v32idES2_,comdat
	.weak	_ZN3tbb8internaleqENS0_13tbb_thread_v32idES2_
	.type	_ZN3tbb8internaleqENS0_13tbb_thread_v32idES2_, @function
_ZN3tbb8internaleqENS0_13tbb_thread_v32idES2_:
.LFB4491:
	.cfi_startproc
	pushq	%rbp
	.cfi_def_cfa_offset 16
	.cfi_offset 6, -16
	movq	%rsp, %rbp
	.cfi_def_cfa_register 6
	movq	%rdi, -8(%rbp)
	movq	%rsi, -16(%rbp)
	movq	-8(%rbp), %rdx
	movq	-16(%rbp), %rax
	cmpq	%rax, %rdx
	sete	%al
	popq	%rbp
	.cfi_def_cfa 7, 8
	ret
	.cfi_endproc
.LFE4491:
	.size	_ZN3tbb8internaleqENS0_13tbb_thread_v32idES2_, .-_ZN3tbb8internaleqENS0_13tbb_thread_v32idES2_
	.section	.text._ZN3tbb15this_tbb_thread6get_idEv,"axG",@progbits,_ZN3tbb15this_tbb_thread6get_idEv,comdat
	.weak	_ZN3tbb15this_tbb_thread6get_idEv
	.type	_ZN3tbb15this_tbb_thread6get_idEv, @function
_ZN3tbb15this_tbb_thread6get_idEv:
.LFB4499:
	.cfi_startproc
	pushq	%rbp
	.cfi_def_cfa_offset 16
	.cfi_offset 6, -16
	movq	%rsp, %rbp
	.cfi_def_cfa_register 6
	call	_ZN3tbb8internal16thread_get_id_v3Ev@PLT
	popq	%rbp
	.cfi_def_cfa 7, 8
	ret
	.cfi_endproc
.LFE4499:
	.size	_ZN3tbb15this_tbb_thread6get_idEv, .-_ZN3tbb15this_tbb_thread6get_idEv
	.section	.text._ZN3tbb8internal11stored_packIJEEC2Ev,"axG",@progbits,_ZN3tbb8internal11stored_packIJEEC5Ev,comdat
	.align 2
	.weak	_ZN3tbb8internal11stored_packIJEEC2Ev
	.type	_ZN3tbb8internal11stored_packIJEEC2Ev, @function
_ZN3tbb8internal11stored_packIJEEC2Ev:
.LFB4505:
	.cfi_startproc
	pushq	%rbp
	.cfi_def_cfa_offset 16
	.cfi_offset 6, -16
	movq	%rsp, %rbp
	.cfi_def_cfa_register 6
	movq	%rdi, -8(%rbp)
	nop
	popq	%rbp
	.cfi_def_cfa 7, 8
	ret
	.cfi_endproc
.LFE4505:
	.size	_ZN3tbb8internal11stored_packIJEEC2Ev, .-_ZN3tbb8internal11stored_packIJEEC2Ev
	.weak	_ZN3tbb8internal11stored_packIJEEC1Ev
	.set	_ZN3tbb8internal11stored_packIJEEC1Ev,_ZN3tbb8internal11stored_packIJEEC2Ev
	.section	.text._ZN17thread_local_varsC2Ej,"axG",@progbits,_ZN17thread_local_varsC5Ej,comdat
	.align 2
	.weak	_ZN17thread_local_varsC2Ej
	.type	_ZN17thread_local_varsC2Ej, @function
_ZN17thread_local_varsC2Ej:
.LFB4651:
	.cfi_startproc
	pushq	%rbp
	.cfi_def_cfa_offset 16
	.cfi_offset 6, -16
	movq	%rsp, %rbp
	.cfi_def_cfa_register 6
	movq	%rdi, -8(%rbp)
	movl	%esi, -12(%rbp)
	movq	-8(%rbp), %rax
	movl	-12(%rbp), %edx
	movl	%edx, (%rax)
	movq	-8(%rbp), %rax
	movl	$0, 4(%rax)
	movq	-8(%rbp), %rax
	movl	$0, 8(%rax)
	movq	-8(%rbp), %rax
	movq	$0, 16(%rax)
	movq	-8(%rbp), %rax
	movq	$0, 24(%rax)
	movq	-8(%rbp), %rax
	movq	$0, 32(%rax)
	nop
	popq	%rbp
	.cfi_def_cfa 7, 8
	ret
	.cfi_endproc
.LFE4651:
	.size	_ZN17thread_local_varsC2Ej, .-_ZN17thread_local_varsC2Ej
	.weak	_ZN17thread_local_varsC1Ej
	.set	_ZN17thread_local_varsC1Ej,_ZN17thread_local_varsC2Ej
	.section	.text._ZN3tbb8internal32allocate_root_with_context_proxyC2ERNS_18task_group_contextE,"axG",@progbits,_ZN3tbb8internal32allocate_root_with_context_proxyC5ERNS_18task_group_contextE,comdat
	.align 2
	.weak	_ZN3tbb8internal32allocate_root_with_context_proxyC2ERNS_18task_group_contextE
	.type	_ZN3tbb8internal32allocate_root_with_context_proxyC2ERNS_18task_group_contextE, @function
_ZN3tbb8internal32allocate_root_with_context_proxyC2ERNS_18task_group_contextE:
.LFB4664:
	.cfi_startproc
	pushq	%rbp
	.cfi_def_cfa_offset 16
	.cfi_offset 6, -16
	movq	%rsp, %rbp
	.cfi_def_cfa_register 6
	subq	$16, %rsp
	movq	%rdi, -8(%rbp)
	movq	%rsi, -16(%rbp)
	movq	-8(%rbp), %rax
	movq	%rax, %rdi
	call	_ZN3tbb8internal9no_assignC2Ev
	movq	-8(%rbp), %rax
	movq	-16(%rbp), %rdx
	movq	%rdx, (%rax)
	nop
	leave
	.cfi_def_cfa 7, 8
	ret
	.cfi_endproc
.LFE4664:
	.size	_ZN3tbb8internal32allocate_root_with_context_proxyC2ERNS_18task_group_contextE, .-_ZN3tbb8internal32allocate_root_with_context_proxyC2ERNS_18task_group_contextE
	.weak	_ZN3tbb8internal32allocate_root_with_context_proxyC1ERNS_18task_group_contextE
	.set	_ZN3tbb8internal32allocate_root_with_context_proxyC1ERNS_18task_group_contextE,_ZN3tbb8internal32allocate_root_with_context_proxyC2ERNS_18task_group_contextE
	.section	.rodata
	.align 4
	.type	_ZN3tbb8internalL18priority_stride_v4E, @object
	.size	_ZN3tbb8internalL18priority_stride_v4E, 4
_ZN3tbb8internalL18priority_stride_v4E:
	.long	536870911
	.section	.text._ZN3tbb18task_group_contextC2ENS0_9kind_typeEm,"axG",@progbits,_ZN3tbb18task_group_contextC5ENS0_9kind_typeEm,comdat
	.align 2
	.weak	_ZN3tbb18task_group_contextC2ENS0_9kind_typeEm
	.type	_ZN3tbb18task_group_contextC2ENS0_9kind_typeEm, @function
_ZN3tbb18task_group_contextC2ENS0_9kind_typeEm:
.LFB4668:
	.cfi_startproc
	pushq	%rbp
	.cfi_def_cfa_offset 16
	.cfi_offset 6, -16
	movq	%rsp, %rbp
	.cfi_def_cfa_register 6
	subq	$32, %rsp
	movq	%rdi, -8(%rbp)
	movl	%esi, -12(%rbp)
	movq	%rdx, -24(%rbp)
	movq	-8(%rbp), %rax
	movq	%rax, %rdi
	call	_ZN3tbb8internal7no_copyC2Ev
	movq	-8(%rbp), %rax
	movl	-12(%rbp), %edx
	movl	%edx, (%rax)
	movq	-24(%rbp), %rax
	orq	$2, %rax
	movq	%rax, %rdx
	movq	-8(%rbp), %rax
	movq	%rdx, 128(%rax)
	movq	-8(%rbp), %rax
	movq	%rax, %rdi
	call	_ZN3tbb18task_group_context4initEv@PLT
	nop
	leave
	.cfi_def_cfa 7, 8
	ret
	.cfi_endproc
.LFE4668:
	.size	_ZN3tbb18task_group_contextC2ENS0_9kind_typeEm, .-_ZN3tbb18task_group_contextC2ENS0_9kind_typeEm
	.weak	_ZN3tbb18task_group_contextC1ENS0_9kind_typeEm
	.set	_ZN3tbb18task_group_contextC1ENS0_9kind_typeEm,_ZN3tbb18task_group_contextC2ENS0_9kind_typeEm
	.section	.text._ZN3tbb10interface58internal9task_baseC2Ev,"axG",@progbits,_ZN3tbb10interface58internal9task_baseC5Ev,comdat
	.align 2
	.weak	_ZN3tbb10interface58internal9task_baseC2Ev
	.type	_ZN3tbb10interface58internal9task_baseC2Ev, @function
_ZN3tbb10interface58internal9task_baseC2Ev:
.LFB4673:
	.cfi_startproc
	pushq	%rbp
	.cfi_def_cfa_offset 16
	.cfi_offset 6, -16
	movq	%rsp, %rbp
	.cfi_def_cfa_register 6
	subq	$16, %rsp
	movq	%rdi, -8(%rbp)
	movq	-8(%rbp), %rax
	movq	%rax, %rdi
	call	_ZN3tbb8internal7no_copyC2Ev
	nop
	leave
	.cfi_def_cfa 7, 8
	ret
	.cfi_endproc
.LFE4673:
	.size	_ZN3tbb10interface58internal9task_baseC2Ev, .-_ZN3tbb10interface58internal9task_baseC2Ev
	.weak	_ZN3tbb10interface58internal9task_baseC1Ev
	.set	_ZN3tbb10interface58internal9task_baseC1Ev,_ZN3tbb10interface58internal9task_baseC2Ev
	.section	.text._ZN3tbb4taskC2Ev,"axG",@progbits,_ZN3tbb4taskC5Ev,comdat
	.align 2
	.weak	_ZN3tbb4taskC2Ev
	.type	_ZN3tbb4taskC2Ev, @function
_ZN3tbb4taskC2Ev:
.LFB4675:
	.cfi_startproc
	pushq	%rbp
	.cfi_def_cfa_offset 16
	.cfi_offset 6, -16
	movq	%rsp, %rbp
	.cfi_def_cfa_register 6
	subq	$16, %rsp
	movq	%rdi, -8(%rbp)
	movq	-8(%rbp), %rax
	movq	%rax, %rdi
	call	_ZN3tbb10interface58internal9task_baseC2Ev
	leaq	16+_ZTVN3tbb4taskE(%rip), %rdx
	movq	-8(%rbp), %rax
	movq	%rdx, (%rax)
	movq	-8(%rbp), %rax
	movl	$0, %esi
	movq	%rax, %rdi
	call	_ZNK3tbb4task6prefixEPNS_8internal14version_tag_v3E
	movb	$1, 45(%rax)
	nop
	leave
	.cfi_def_cfa 7, 8
	ret
	.cfi_endproc
.LFE4675:
	.size	_ZN3tbb4taskC2Ev, .-_ZN3tbb4taskC2Ev
	.weak	_ZN3tbb4taskC1Ev
	.set	_ZN3tbb4taskC1Ev,_ZN3tbb4taskC2Ev
	.section	.text._ZN3tbb4taskD2Ev,"axG",@progbits,_ZN3tbb4taskD5Ev,comdat
	.align 2
	.weak	_ZN3tbb4taskD2Ev
	.type	_ZN3tbb4taskD2Ev, @function
_ZN3tbb4taskD2Ev:
.LFB4678:
	.cfi_startproc
	pushq	%rbp
	.cfi_def_cfa_offset 16
	.cfi_offset 6, -16
	movq	%rsp, %rbp
	.cfi_def_cfa_register 6
	movq	%rdi, -8(%rbp)
	leaq	16+_ZTVN3tbb4taskE(%rip), %rdx
	movq	-8(%rbp), %rax
	movq	%rdx, (%rax)
	nop
	popq	%rbp
	.cfi_def_cfa 7, 8
	ret
	.cfi_endproc
.LFE4678:
	.size	_ZN3tbb4taskD2Ev, .-_ZN3tbb4taskD2Ev
	.weak	_ZN3tbb4taskD1Ev
	.set	_ZN3tbb4taskD1Ev,_ZN3tbb4taskD2Ev
	.section	.text._ZN3tbb4taskD0Ev,"axG",@progbits,_ZN3tbb4taskD5Ev,comdat
	.align 2
	.weak	_ZN3tbb4taskD0Ev
	.type	_ZN3tbb4taskD0Ev, @function
_ZN3tbb4taskD0Ev:
.LFB4680:
	.cfi_startproc
	pushq	%rbp
	.cfi_def_cfa_offset 16
	.cfi_offset 6, -16
	movq	%rsp, %rbp
	.cfi_def_cfa_register 6
	subq	$16, %rsp
	movq	%rdi, -8(%rbp)
	movq	-8(%rbp), %rax
	movq	%rax, %rdi
	call	_ZN3tbb4taskD1Ev
	movq	-8(%rbp), %rax
	movl	$8, %esi
	movq	%rax, %rdi
	call	_ZdlPvm@PLT
	leave
	.cfi_def_cfa 7, 8
	ret
	.cfi_endproc
.LFE4680:
	.size	_ZN3tbb4taskD0Ev, .-_ZN3tbb4taskD0Ev
	.section	.text._ZN3tbb4task13allocate_rootERNS_18task_group_contextE,"axG",@progbits,_ZN3tbb4task13allocate_rootERNS_18task_group_contextE,comdat
	.weak	_ZN3tbb4task13allocate_rootERNS_18task_group_contextE
	.type	_ZN3tbb4task13allocate_rootERNS_18task_group_contextE, @function
_ZN3tbb4task13allocate_rootERNS_18task_group_contextE:
.LFB4685:
	.cfi_startproc
	pushq	%rbp
	.cfi_def_cfa_offset 16
	.cfi_offset 6, -16
	movq	%rsp, %rbp
	.cfi_def_cfa_register 6
	subq	$32, %rsp
	movq	%rdi, -24(%rbp)
	movq	%fs:40, %rax
	movq	%rax, -8(%rbp)
	xorl	%eax, %eax
	movq	-24(%rbp), %rdx
	leaq	-16(%rbp), %rax
	movq	%rdx, %rsi
	movq	%rax, %rdi
	call	_ZN3tbb8internal32allocate_root_with_context_proxyC1ERNS_18task_group_contextE
	movq	-16(%rbp), %rax
	movq	-8(%rbp), %rcx
	xorq	%fs:40, %rcx
	je	.L72
	call	__stack_chk_fail@PLT
.L72:
	leave
	.cfi_def_cfa 7, 8
	ret
	.cfi_endproc
.LFE4685:
	.size	_ZN3tbb4task13allocate_rootERNS_18task_group_contextE, .-_ZN3tbb4task13allocate_rootERNS_18task_group_contextE
	.section	.text._ZN3tbb4task21allocate_continuationEv,"axG",@progbits,_ZN3tbb4task21allocate_continuationEv,comdat
	.align 2
	.weak	_ZN3tbb4task21allocate_continuationEv
	.type	_ZN3tbb4task21allocate_continuationEv, @function
_ZN3tbb4task21allocate_continuationEv:
.LFB4686:
	.cfi_startproc
	pushq	%rbp
	.cfi_def_cfa_offset 16
	.cfi_offset 6, -16
	movq	%rsp, %rbp
	.cfi_def_cfa_register 6
	movq	%rdi, -8(%rbp)
	movq	-8(%rbp), %rax
	popq	%rbp
	.cfi_def_cfa 7, 8
	ret
	.cfi_endproc
.LFE4686:
	.size	_ZN3tbb4task21allocate_continuationEv, .-_ZN3tbb4task21allocate_continuationEv
	.section	.text._ZN3tbb4task14allocate_childEv,"axG",@progbits,_ZN3tbb4task14allocate_childEv,comdat
	.align 2
	.weak	_ZN3tbb4task14allocate_childEv
	.type	_ZN3tbb4task14allocate_childEv, @function
_ZN3tbb4task14allocate_childEv:
.LFB4687:
	.cfi_startproc
	pushq	%rbp
	.cfi_def_cfa_offset 16
	.cfi_offset 6, -16
	movq	%rsp, %rbp
	.cfi_def_cfa_register 6
	movq	%rdi, -8(%rbp)
	movq	-8(%rbp), %rax
	popq	%rbp
	.cfi_def_cfa 7, 8
	ret
	.cfi_endproc
.LFE4687:
	.size	_ZN3tbb4task14allocate_childEv, .-_ZN3tbb4task14allocate_childEv
	.section	.text._ZN3tbb4task13set_ref_countEi,"axG",@progbits,_ZN3tbb4task13set_ref_countEi,comdat
	.align 2
	.weak	_ZN3tbb4task13set_ref_countEi
	.type	_ZN3tbb4task13set_ref_countEi, @function
_ZN3tbb4task13set_ref_countEi:
.LFB4692:
	.cfi_startproc
	pushq	%rbp
	.cfi_def_cfa_offset 16
	.cfi_offset 6, -16
	movq	%rsp, %rbp
	.cfi_def_cfa_register 6
	subq	$16, %rsp
	movq	%rdi, -8(%rbp)
	movl	%esi, -12(%rbp)
	movq	-8(%rbp), %rax
	movl	$0, %esi
	movq	%rax, %rdi
	call	_ZNK3tbb4task6prefixEPNS_8internal14version_tag_v3E
	movq	%rax, %rdx
	movl	-12(%rbp), %eax
	cltq
	movq	%rax, 32(%rdx)
	nop
	leave
	.cfi_def_cfa 7, 8
	ret
	.cfi_endproc
.LFE4692:
	.size	_ZN3tbb4task13set_ref_countEi, .-_ZN3tbb4task13set_ref_countEi
	.section	.text._ZN3tbb4task19spawn_root_and_waitERS0_,"axG",@progbits,_ZN3tbb4task19spawn_root_and_waitERS0_,comdat
	.weak	_ZN3tbb4task19spawn_root_and_waitERS0_
	.type	_ZN3tbb4task19spawn_root_and_waitERS0_, @function
_ZN3tbb4task19spawn_root_and_waitERS0_:
.LFB4697:
	.cfi_startproc
	pushq	%rbp
	.cfi_def_cfa_offset 16
	.cfi_offset 6, -16
	movq	%rsp, %rbp
	.cfi_def_cfa_register 6
	pushq	%r12
	pushq	%rbx
	subq	$16, %rsp
	.cfi_offset 12, -24
	.cfi_offset 3, -32
	movq	%rdi, -24(%rbp)
	movq	-24(%rbp), %rax
	movl	$0, %esi
	movq	%rax, %rdi
	call	_ZNK3tbb4task6prefixEPNS_8internal14version_tag_v3E
	movq	16(%rax), %rbx
	movq	(%rbx), %rax
	addq	$16, %rax
	movq	(%rax), %r12
	movq	-24(%rbp), %rax
	movl	$0, %esi
	movq	%rax, %rdi
	call	_ZNK3tbb4task6prefixEPNS_8internal14version_tag_v3E
	leaq	48(%rax), %rdx
	movq	-24(%rbp), %rax
	movq	%rax, %rsi
	movq	%rbx, %rdi
	call	*%r12
	nop
	addq	$16, %rsp
	popq	%rbx
	popq	%r12
	popq	%rbp
	.cfi_def_cfa 7, 8
	ret
	.cfi_endproc
.LFE4697:
	.size	_ZN3tbb4task19spawn_root_and_waitERS0_, .-_ZN3tbb4task19spawn_root_and_waitERS0_
	.section	.text._ZNK3tbb4task6parentEv,"axG",@progbits,_ZNK3tbb4task6parentEv,comdat
	.align 2
	.weak	_ZNK3tbb4task6parentEv
	.type	_ZNK3tbb4task6parentEv, @function
_ZNK3tbb4task6parentEv:
.LFB4701:
	.cfi_startproc
	pushq	%rbp
	.cfi_def_cfa_offset 16
	.cfi_offset 6, -16
	movq	%rsp, %rbp
	.cfi_def_cfa_register 6
	subq	$16, %rsp
	movq	%rdi, -8(%rbp)
	movq	-8(%rbp), %rax
	movl	$0, %esi
	movq	%rax, %rdi
	call	_ZNK3tbb4task6prefixEPNS_8internal14version_tag_v3E
	movq	24(%rax), %rax
	leave
	.cfi_def_cfa 7, 8
	ret
	.cfi_endproc
.LFE4701:
	.size	_ZNK3tbb4task6parentEv, .-_ZNK3tbb4task6parentEv
	.section	.text._ZN3tbb4task10set_parentEPS0_,"axG",@progbits,_ZN3tbb4task10set_parentEPS0_,comdat
	.align 2
	.weak	_ZN3tbb4task10set_parentEPS0_
	.type	_ZN3tbb4task10set_parentEPS0_, @function
_ZN3tbb4task10set_parentEPS0_:
.LFB4702:
	.cfi_startproc
	pushq	%rbp
	.cfi_def_cfa_offset 16
	.cfi_offset 6, -16
	movq	%rsp, %rbp
	.cfi_def_cfa_register 6
	subq	$16, %rsp
	movq	%rdi, -8(%rbp)
	movq	%rsi, -16(%rbp)
	movq	-8(%rbp), %rax
	movl	$0, %esi
	movq	%rax, %rdi
	call	_ZNK3tbb4task6prefixEPNS_8internal14version_tag_v3E
	movq	%rax, %rdx
	movq	-16(%rbp), %rax
	movq	%rax, 24(%rdx)
	nop
	leave
	.cfi_def_cfa 7, 8
	ret
	.cfi_endproc
.LFE4702:
	.size	_ZN3tbb4task10set_parentEPS0_, .-_ZN3tbb4task10set_parentEPS0_
	.section	.text._ZNK3tbb4task14is_stolen_taskEv,"axG",@progbits,_ZNK3tbb4task14is_stolen_taskEv,comdat
	.align 2
	.weak	_ZNK3tbb4task14is_stolen_taskEv
	.type	_ZNK3tbb4task14is_stolen_taskEv, @function
_ZNK3tbb4task14is_stolen_taskEv:
.LFB4705:
	.cfi_startproc
	pushq	%rbp
	.cfi_def_cfa_offset 16
	.cfi_offset 6, -16
	movq	%rsp, %rbp
	.cfi_def_cfa_register 6
	subq	$16, %rsp
	movq	%rdi, -8(%rbp)
	movq	-8(%rbp), %rax
	movl	$0, %esi
	movq	%rax, %rdi
	call	_ZNK3tbb4task6prefixEPNS_8internal14version_tag_v3E
	movzbl	45(%rax), %eax
	shrb	$7, %al
	leave
	.cfi_def_cfa 7, 8
	ret
	.cfi_endproc
.LFE4705:
	.size	_ZNK3tbb4task14is_stolen_taskEv, .-_ZNK3tbb4task14is_stolen_taskEv
	.section	.text._ZNK3tbb4task9ref_countEv,"axG",@progbits,_ZNK3tbb4task9ref_countEv,comdat
	.align 2
	.weak	_ZNK3tbb4task9ref_countEv
	.type	_ZNK3tbb4task9ref_countEv, @function
_ZNK3tbb4task9ref_countEv:
.LFB4707:
	.cfi_startproc
	pushq	%rbp
	.cfi_def_cfa_offset 16
	.cfi_offset 6, -16
	movq	%rsp, %rbp
	.cfi_def_cfa_register 6
	subq	$16, %rsp
	movq	%rdi, -8(%rbp)
	movq	-8(%rbp), %rax
	movl	$0, %esi
	movq	%rax, %rdi
	call	_ZNK3tbb4task6prefixEPNS_8internal14version_tag_v3E
	movq	32(%rax), %rax
	leave
	.cfi_def_cfa 7, 8
	ret
	.cfi_endproc
.LFE4707:
	.size	_ZNK3tbb4task9ref_countEv, .-_ZNK3tbb4task9ref_countEv
	.section	.text._ZNK3tbb4task12is_cancelledEv,"axG",@progbits,_ZNK3tbb4task12is_cancelledEv,comdat
	.align 2
	.weak	_ZNK3tbb4task12is_cancelledEv
	.type	_ZNK3tbb4task12is_cancelledEv, @function
_ZNK3tbb4task12is_cancelledEv:
.LFB4711:
	.cfi_startproc
	pushq	%rbp
	.cfi_def_cfa_offset 16
	.cfi_offset 6, -16
	movq	%rsp, %rbp
	.cfi_def_cfa_register 6
	subq	$16, %rsp
	movq	%rdi, -8(%rbp)
	movq	-8(%rbp), %rax
	movl	$0, %esi
	movq	%rax, %rdi
	call	_ZNK3tbb4task6prefixEPNS_8internal14version_tag_v3E
	movq	(%rax), %rax
	movq	%rax, %rdi
	call	_ZNK3tbb18task_group_context28is_group_execution_cancelledEv@PLT
	leave
	.cfi_def_cfa 7, 8
	ret
	.cfi_endproc
.LFE4711:
	.size	_ZNK3tbb4task12is_cancelledEv, .-_ZNK3tbb4task12is_cancelledEv
	.section	.text._ZNK3tbb4task6prefixEPNS_8internal14version_tag_v3E,"axG",@progbits,_ZNK3tbb4task6prefixEPNS_8internal14version_tag_v3E,comdat
	.align 2
	.weak	_ZNK3tbb4task6prefixEPNS_8internal14version_tag_v3E
	.type	_ZNK3tbb4task6prefixEPNS_8internal14version_tag_v3E, @function
_ZNK3tbb4task6prefixEPNS_8internal14version_tag_v3E:
.LFB4714:
	.cfi_startproc
	pushq	%rbp
	.cfi_def_cfa_offset 16
	.cfi_offset 6, -16
	movq	%rsp, %rbp
	.cfi_def_cfa_register 6
	movq	%rdi, -8(%rbp)
	movq	%rsi, -16(%rbp)
	movq	-8(%rbp), %rax
	subq	$56, %rax
	popq	%rbp
	.cfi_def_cfa 7, 8
	ret
	.cfi_endproc
.LFE4714:
	.size	_ZNK3tbb4task6prefixEPNS_8internal14version_tag_v3E, .-_ZNK3tbb4task6prefixEPNS_8internal14version_tag_v3E
	.section	.text._ZN3tbb10interface58internal9task_base5spawnERNS_4taskE,"axG",@progbits,_ZN3tbb10interface58internal9task_base5spawnERNS_4taskE,comdat
	.align 2
	.weak	_ZN3tbb10interface58internal9task_base5spawnERNS_4taskE
	.type	_ZN3tbb10interface58internal9task_base5spawnERNS_4taskE, @function
_ZN3tbb10interface58internal9task_base5spawnERNS_4taskE:
.LFB4728:
	.cfi_startproc
	pushq	%rbp
	.cfi_def_cfa_offset 16
	.cfi_offset 6, -16
	movq	%rsp, %rbp
	.cfi_def_cfa_register 6
	pushq	%r12
	pushq	%rbx
	subq	$16, %rsp
	.cfi_offset 12, -24
	.cfi_offset 3, -32
	movq	%rdi, -24(%rbp)
	movq	-24(%rbp), %rax
	movl	$0, %esi
	movq	%rax, %rdi
	call	_ZNK3tbb4task6prefixEPNS_8internal14version_tag_v3E
	movq	16(%rax), %rbx
	movq	(%rbx), %rax
	movq	(%rax), %r12
	movq	-24(%rbp), %rax
	movl	$0, %esi
	movq	%rax, %rdi
	call	_ZNK3tbb4task6prefixEPNS_8internal14version_tag_v3E
	leaq	48(%rax), %rdx
	movq	-24(%rbp), %rax
	movq	%rax, %rsi
	movq	%rbx, %rdi
	call	*%r12
	nop
	addq	$16, %rsp
	popq	%rbx
	popq	%r12
	popq	%rbp
	.cfi_def_cfa 7, 8
	ret
	.cfi_endproc
.LFE4728:
	.size	_ZN3tbb10interface58internal9task_base5spawnERNS_4taskE, .-_ZN3tbb10interface58internal9task_base5spawnERNS_4taskE
	.section	.text._ZnwmRKN3tbb8internal32allocate_root_with_context_proxyE,"axG",@progbits,_ZnwmRKN3tbb8internal32allocate_root_with_context_proxyE,comdat
	.weak	_ZnwmRKN3tbb8internal32allocate_root_with_context_proxyE
	.type	_ZnwmRKN3tbb8internal32allocate_root_with_context_proxyE, @function
_ZnwmRKN3tbb8internal32allocate_root_with_context_proxyE:
.LFB4733:
	.cfi_startproc
	pushq	%rbp
	.cfi_def_cfa_offset 16
	.cfi_offset 6, -16
	movq	%rsp, %rbp
	.cfi_def_cfa_register 6
	subq	$16, %rsp
	movq	%rdi, -8(%rbp)
	movq	%rsi, -16(%rbp)
	movq	-8(%rbp), %rdx
	movq	-16(%rbp), %rax
	movq	%rdx, %rsi
	movq	%rax, %rdi
	call	_ZNK3tbb8internal32allocate_root_with_context_proxy8allocateEm@PLT
	leave
	.cfi_def_cfa 7, 8
	ret
	.cfi_endproc
.LFE4733:
	.size	_ZnwmRKN3tbb8internal32allocate_root_with_context_proxyE, .-_ZnwmRKN3tbb8internal32allocate_root_with_context_proxyE
	.section	.text._ZdlPvRKN3tbb8internal32allocate_root_with_context_proxyE,"axG",@progbits,_ZdlPvRKN3tbb8internal32allocate_root_with_context_proxyE,comdat
	.weak	_ZdlPvRKN3tbb8internal32allocate_root_with_context_proxyE
	.type	_ZdlPvRKN3tbb8internal32allocate_root_with_context_proxyE, @function
_ZdlPvRKN3tbb8internal32allocate_root_with_context_proxyE:
.LFB4734:
	.cfi_startproc
	pushq	%rbp
	.cfi_def_cfa_offset 16
	.cfi_offset 6, -16
	movq	%rsp, %rbp
	.cfi_def_cfa_register 6
	subq	$16, %rsp
	movq	%rdi, -8(%rbp)
	movq	%rsi, -16(%rbp)
	movq	-8(%rbp), %rdx
	movq	-16(%rbp), %rax
	movq	%rdx, %rsi
	movq	%rax, %rdi
	call	_ZNK3tbb8internal32allocate_root_with_context_proxy4freeERNS_4taskE@PLT
	nop
	leave
	.cfi_def_cfa 7, 8
	ret
	.cfi_endproc
.LFE4734:
	.size	_ZdlPvRKN3tbb8internal32allocate_root_with_context_proxyE, .-_ZdlPvRKN3tbb8internal32allocate_root_with_context_proxyE
	.section	.text._ZnwmRKN3tbb8internal27allocate_continuation_proxyE,"axG",@progbits,_ZnwmRKN3tbb8internal27allocate_continuation_proxyE,comdat
	.weak	_ZnwmRKN3tbb8internal27allocate_continuation_proxyE
	.type	_ZnwmRKN3tbb8internal27allocate_continuation_proxyE, @function
_ZnwmRKN3tbb8internal27allocate_continuation_proxyE:
.LFB4735:
	.cfi_startproc
	pushq	%rbp
	.cfi_def_cfa_offset 16
	.cfi_offset 6, -16
	movq	%rsp, %rbp
	.cfi_def_cfa_register 6
	subq	$16, %rsp
	movq	%rdi, -8(%rbp)
	movq	%rsi, -16(%rbp)
	movq	-8(%rbp), %rdx
	movq	-16(%rbp), %rax
	movq	%rdx, %rsi
	movq	%rax, %rdi
	call	_ZNK3tbb8internal27allocate_continuation_proxy8allocateEm@PLT
	leave
	.cfi_def_cfa 7, 8
	ret
	.cfi_endproc
.LFE4735:
	.size	_ZnwmRKN3tbb8internal27allocate_continuation_proxyE, .-_ZnwmRKN3tbb8internal27allocate_continuation_proxyE
	.section	.text._ZdlPvRKN3tbb8internal27allocate_continuation_proxyE,"axG",@progbits,_ZdlPvRKN3tbb8internal27allocate_continuation_proxyE,comdat
	.weak	_ZdlPvRKN3tbb8internal27allocate_continuation_proxyE
	.type	_ZdlPvRKN3tbb8internal27allocate_continuation_proxyE, @function
_ZdlPvRKN3tbb8internal27allocate_continuation_proxyE:
.LFB4736:
	.cfi_startproc
	pushq	%rbp
	.cfi_def_cfa_offset 16
	.cfi_offset 6, -16
	movq	%rsp, %rbp
	.cfi_def_cfa_register 6
	subq	$16, %rsp
	movq	%rdi, -8(%rbp)
	movq	%rsi, -16(%rbp)
	movq	-8(%rbp), %rdx
	movq	-16(%rbp), %rax
	movq	%rdx, %rsi
	movq	%rax, %rdi
	call	_ZNK3tbb8internal27allocate_continuation_proxy4freeERNS_4taskE@PLT
	nop
	leave
	.cfi_def_cfa 7, 8
	ret
	.cfi_endproc
.LFE4736:
	.size	_ZdlPvRKN3tbb8internal27allocate_continuation_proxyE, .-_ZdlPvRKN3tbb8internal27allocate_continuation_proxyE
	.section	.text._ZN3tbb10interface98internal9flag_taskC2Ev,"axG",@progbits,_ZN3tbb10interface98internal9flag_taskC5Ev,comdat
	.align 2
	.weak	_ZN3tbb10interface98internal9flag_taskC2Ev
	.type	_ZN3tbb10interface98internal9flag_taskC2Ev, @function
_ZN3tbb10interface98internal9flag_taskC2Ev:
.LFB4796:
	.cfi_startproc
	.cfi_personality 0x9b,DW.ref.__gxx_personality_v0
	.cfi_lsda 0x1b,.LLSDA4796
	pushq	%rbp
	.cfi_def_cfa_offset 16
	.cfi_offset 6, -16
	movq	%rsp, %rbp
	.cfi_def_cfa_register 6
	pushq	%rbx
	subq	$24, %rsp
	.cfi_offset 3, -24
	movq	%rdi, -24(%rbp)
	movq	-24(%rbp), %rax
	movq	%rax, %rdi
	call	_ZN3tbb4taskC2Ev
	leaq	16+_ZTVN3tbb10interface98internal9flag_taskE(%rip), %rdx
	movq	-24(%rbp), %rax
	movq	%rdx, (%rax)
	movq	-24(%rbp), %rax
	addq	$8, %rax
	movl	$0, %esi
	movq	%rax, %rdi
.LEHB0:
	call	_ZN3tbb6atomicIbEaSEb
.LEHE0:
	jmp	.L100
.L99:
	movq	%rax, %rbx
	movq	-24(%rbp), %rax
	movq	%rax, %rdi
	call	_ZN3tbb4taskD2Ev
	movq	%rbx, %rax
	movq	%rax, %rdi
.LEHB1:
	call	_Unwind_Resume@PLT
.LEHE1:
.L100:
	addq	$24, %rsp
	popq	%rbx
	popq	%rbp
	.cfi_def_cfa 7, 8
	ret
	.cfi_endproc
.LFE4796:
	.globl	__gxx_personality_v0
	.section	.gcc_except_table._ZN3tbb10interface98internal9flag_taskC2Ev,"aG",@progbits,_ZN3tbb10interface98internal9flag_taskC5Ev,comdat
.LLSDA4796:
	.byte	0xff
	.byte	0xff
	.byte	0x1
	.uleb128 .LLSDACSE4796-.LLSDACSB4796
.LLSDACSB4796:
	.uleb128 .LEHB0-.LFB4796
	.uleb128 .LEHE0-.LEHB0
	.uleb128 .L99-.LFB4796
	.uleb128 0
	.uleb128 .LEHB1-.LFB4796
	.uleb128 .LEHE1-.LEHB1
	.uleb128 0
	.uleb128 0
.LLSDACSE4796:
	.section	.text._ZN3tbb10interface98internal9flag_taskC2Ev,"axG",@progbits,_ZN3tbb10interface98internal9flag_taskC5Ev,comdat
	.size	_ZN3tbb10interface98internal9flag_taskC2Ev, .-_ZN3tbb10interface98internal9flag_taskC2Ev
	.weak	_ZN3tbb10interface98internal9flag_taskC1Ev
	.set	_ZN3tbb10interface98internal9flag_taskC1Ev,_ZN3tbb10interface98internal9flag_taskC2Ev
	.section	.text._ZN3tbb10interface98internal9flag_task7executeEv,"axG",@progbits,_ZN3tbb10interface98internal9flag_task7executeEv,comdat
	.align 2
	.weak	_ZN3tbb10interface98internal9flag_task7executeEv
	.type	_ZN3tbb10interface98internal9flag_task7executeEv, @function
_ZN3tbb10interface98internal9flag_task7executeEv:
.LFB4798:
	.cfi_startproc
	pushq	%rbp
	.cfi_def_cfa_offset 16
	.cfi_offset 6, -16
	movq	%rsp, %rbp
	.cfi_def_cfa_register 6
	movq	%rdi, -8(%rbp)
	movl	$0, %eax
	popq	%rbp
	.cfi_def_cfa 7, 8
	ret
	.cfi_endproc
.LFE4798:
	.size	_ZN3tbb10interface98internal9flag_task7executeEv, .-_ZN3tbb10interface98internal9flag_task7executeEv
	.section	.text._ZN3tbb10interface98internal9flag_task16mark_task_stolenERNS_4taskE,"axG",@progbits,_ZN3tbb10interface98internal9flag_task16mark_task_stolenERNS_4taskE,comdat
	.weak	_ZN3tbb10interface98internal9flag_task16mark_task_stolenERNS_4taskE
	.type	_ZN3tbb10interface98internal9flag_task16mark_task_stolenERNS_4taskE, @function
_ZN3tbb10interface98internal9flag_task16mark_task_stolenERNS_4taskE:
.LFB4799:
	.cfi_startproc
	pushq	%rbp
	.cfi_def_cfa_offset 16
	.cfi_offset 6, -16
	movq	%rsp, %rbp
	.cfi_def_cfa_register 6
	subq	$32, %rsp
	movq	%rdi, -24(%rbp)
	movq	-24(%rbp), %rax
	movq	%rax, %rdi
	call	_ZNK3tbb4task6parentEv
	addq	$8, %rax
	movq	%rax, -8(%rbp)
	movq	-8(%rbp), %rax
	movl	$1, %esi
	movq	%rax, %rdi
	call	_ZN3tbb6atomicIbEaSEb
	nop
	leave
	.cfi_def_cfa 7, 8
	ret
	.cfi_endproc
.LFE4799:
	.size	_ZN3tbb10interface98internal9flag_task16mark_task_stolenERNS_4taskE, .-_ZN3tbb10interface98internal9flag_task16mark_task_stolenERNS_4taskE
	.section	.text._ZN3tbb10interface98internal9flag_task14is_peer_stolenERNS_4taskE,"axG",@progbits,_ZN3tbb10interface98internal9flag_task14is_peer_stolenERNS_4taskE,comdat
	.weak	_ZN3tbb10interface98internal9flag_task14is_peer_stolenERNS_4taskE
	.type	_ZN3tbb10interface98internal9flag_task14is_peer_stolenERNS_4taskE, @function
_ZN3tbb10interface98internal9flag_task14is_peer_stolenERNS_4taskE:
.LFB4800:
	.cfi_startproc
	pushq	%rbp
	.cfi_def_cfa_offset 16
	.cfi_offset 6, -16
	movq	%rsp, %rbp
	.cfi_def_cfa_register 6
	subq	$16, %rsp
	movq	%rdi, -8(%rbp)
	movq	-8(%rbp), %rax
	movq	%rax, %rdi
	call	_ZNK3tbb4task6parentEv
	addq	$8, %rax
	movq	%rax, %rdi
	call	_ZNVK3tbb8internal11atomic_implIbEcvbEv
	leave
	.cfi_def_cfa 7, 8
	ret
	.cfi_endproc
.LFE4800:
	.size	_ZN3tbb10interface98internal9flag_task14is_peer_stolenERNS_4taskE, .-_ZN3tbb10interface98internal9flag_task14is_peer_stolenERNS_4taskE
	.section	.text._ZN3tbb10interface98internal19auto_partition_typeC2ERKNS_16auto_partitionerE,"axG",@progbits,_ZN3tbb10interface98internal19auto_partition_typeC5ERKNS_16auto_partitionerE,comdat
	.align 2
	.weak	_ZN3tbb10interface98internal19auto_partition_typeC2ERKNS_16auto_partitionerE
	.type	_ZN3tbb10interface98internal19auto_partition_typeC2ERKNS_16auto_partitionerE, @function
_ZN3tbb10interface98internal19auto_partition_typeC2ERKNS_16auto_partitionerE:
.LFB4847:
	.cfi_startproc
	pushq	%rbp
	.cfi_def_cfa_offset 16
	.cfi_offset 6, -16
	movq	%rsp, %rbp
	.cfi_def_cfa_register 6
	subq	$16, %rsp
	movq	%rdi, -8(%rbp)
	movq	%rsi, -16(%rbp)
	movq	-8(%rbp), %rax
	movq	%rax, %rdi
	call	_ZN3tbb10interface98internal24balancing_partition_typeINS1_13adaptive_modeINS1_19auto_partition_typeEEEEC2Ev
	movq	-8(%rbp), %rax
	movq	(%rax), %rax
	leaq	(%rax,%rax), %rdx
	movq	-8(%rbp), %rax
	movq	%rdx, (%rax)
	nop
	leave
	.cfi_def_cfa 7, 8
	ret
	.cfi_endproc
.LFE4847:
	.size	_ZN3tbb10interface98internal19auto_partition_typeC2ERKNS_16auto_partitionerE, .-_ZN3tbb10interface98internal19auto_partition_typeC2ERKNS_16auto_partitionerE
	.weak	_ZN3tbb10interface98internal19auto_partition_typeC1ERKNS_16auto_partitionerE
	.set	_ZN3tbb10interface98internal19auto_partition_typeC1ERKNS_16auto_partitionerE,_ZN3tbb10interface98internal19auto_partition_typeC2ERKNS_16auto_partitionerE
	.section	.text._ZN3tbb10interface98internal19auto_partition_typeC2ERS2_NS_5splitE,"axG",@progbits,_ZN3tbb10interface98internal19auto_partition_typeC5ERS2_NS_5splitE,comdat
	.align 2
	.weak	_ZN3tbb10interface98internal19auto_partition_typeC2ERS2_NS_5splitE
	.type	_ZN3tbb10interface98internal19auto_partition_typeC2ERS2_NS_5splitE, @function
_ZN3tbb10interface98internal19auto_partition_typeC2ERS2_NS_5splitE:
.LFB4850:
	.cfi_startproc
	pushq	%rbp
	.cfi_def_cfa_offset 16
	.cfi_offset 6, -16
	movq	%rsp, %rbp
	.cfi_def_cfa_register 6
	subq	$32, %rsp
	movq	%rdi, -24(%rbp)
	movq	%rsi, -32(%rbp)
	movq	%fs:40, %rax
	movq	%rax, -8(%rbp)
	xorl	%eax, %eax
	movq	-24(%rbp), %rax
	movq	-32(%rbp), %rdx
	subq	$8, %rsp
	pushq	%rcx
	movq	%rdx, %rsi
	movq	%rax, %rdi
	call	_ZN3tbb10interface98internal24balancing_partition_typeINS1_13adaptive_modeINS1_19auto_partition_typeEEEEC2ERS6_NS_5splitE
	addq	$16, %rsp
	nop
	movq	-8(%rbp), %rax
	xorq	%fs:40, %rax
	je	.L108
	call	__stack_chk_fail@PLT
.L108:
	leave
	.cfi_def_cfa 7, 8
	ret
	.cfi_endproc
.LFE4850:
	.size	_ZN3tbb10interface98internal19auto_partition_typeC2ERS2_NS_5splitE, .-_ZN3tbb10interface98internal19auto_partition_typeC2ERS2_NS_5splitE
	.weak	_ZN3tbb10interface98internal19auto_partition_typeC1ERS2_NS_5splitE
	.set	_ZN3tbb10interface98internal19auto_partition_typeC1ERS2_NS_5splitE,_ZN3tbb10interface98internal19auto_partition_typeC2ERS2_NS_5splitE
	.section	.text._ZN3tbb10interface98internal19auto_partition_type12is_divisibleEv,"axG",@progbits,_ZN3tbb10interface98internal19auto_partition_type12is_divisibleEv,comdat
	.align 2
	.weak	_ZN3tbb10interface98internal19auto_partition_type12is_divisibleEv
	.type	_ZN3tbb10interface98internal19auto_partition_type12is_divisibleEv, @function
_ZN3tbb10interface98internal19auto_partition_type12is_divisibleEv:
.LFB4852:
	.cfi_startproc
	pushq	%rbp
	.cfi_def_cfa_offset 16
	.cfi_offset 6, -16
	movq	%rsp, %rbp
	.cfi_def_cfa_register 6
	movq	%rdi, -8(%rbp)
	movq	-8(%rbp), %rax
	movq	(%rax), %rax
	cmpq	$1, %rax
	jbe	.L110
	movl	$1, %eax
	jmp	.L111
.L110:
	movq	-8(%rbp), %rax
	movq	(%rax), %rax
	testq	%rax, %rax
	je	.L112
	movq	-8(%rbp), %rax
	movzbl	12(%rax), %eax
	testb	%al, %al
	je	.L112
	movq	-8(%rbp), %rax
	movzbl	12(%rax), %eax
	leal	-1(%rax), %edx
	movq	-8(%rbp), %rax
	movb	%dl, 12(%rax)
	movq	-8(%rbp), %rax
	movq	$0, (%rax)
	movl	$1, %eax
	jmp	.L111
.L112:
	movl	$0, %eax
.L111:
	popq	%rbp
	.cfi_def_cfa 7, 8
	ret
	.cfi_endproc
.LFE4852:
	.size	_ZN3tbb10interface98internal19auto_partition_type12is_divisibleEv, .-_ZN3tbb10interface98internal19auto_partition_type12is_divisibleEv
	.section	.text._ZN3tbb10interface98internal19auto_partition_type16check_for_demandERNS_4taskE,"axG",@progbits,_ZN3tbb10interface98internal19auto_partition_type16check_for_demandERNS_4taskE,comdat
	.align 2
	.weak	_ZN3tbb10interface98internal19auto_partition_type16check_for_demandERNS_4taskE
	.type	_ZN3tbb10interface98internal19auto_partition_type16check_for_demandERNS_4taskE, @function
_ZN3tbb10interface98internal19auto_partition_type16check_for_demandERNS_4taskE:
.LFB4853:
	.cfi_startproc
	pushq	%rbp
	.cfi_def_cfa_offset 16
	.cfi_offset 6, -16
	movq	%rsp, %rbp
	.cfi_def_cfa_register 6
	subq	$16, %rsp
	movq	%rdi, -8(%rbp)
	movq	%rsi, -16(%rbp)
	movq	-16(%rbp), %rax
	movq	%rax, %rdi
	call	_ZN3tbb10interface98internal9flag_task14is_peer_stolenERNS_4taskE
	testb	%al, %al
	je	.L114
	movq	-8(%rbp), %rax
	movzbl	12(%rax), %eax
	leal	1(%rax), %edx
	movq	-8(%rbp), %rax
	movb	%dl, 12(%rax)
	movl	$1, %eax
	jmp	.L115
.L114:
	movl	$0, %eax
.L115:
	leave
	.cfi_def_cfa 7, 8
	ret
	.cfi_endproc
.LFE4853:
	.size	_ZN3tbb10interface98internal19auto_partition_type16check_for_demandERNS_4taskE, .-_ZN3tbb10interface98internal19auto_partition_type16check_for_demandERNS_4taskE
	.section	.text._ZN3tbb16auto_partitionerC2Ev,"axG",@progbits,_ZN3tbb16auto_partitionerC5Ev,comdat
	.align 2
	.weak	_ZN3tbb16auto_partitionerC2Ev
	.type	_ZN3tbb16auto_partitionerC2Ev, @function
_ZN3tbb16auto_partitionerC2Ev:
.LFB4902:
	.cfi_startproc
	pushq	%rbp
	.cfi_def_cfa_offset 16
	.cfi_offset 6, -16
	movq	%rsp, %rbp
	.cfi_def_cfa_register 6
	movq	%rdi, -8(%rbp)
	nop
	popq	%rbp
	.cfi_def_cfa 7, 8
	ret
	.cfi_endproc
.LFE4902:
	.size	_ZN3tbb16auto_partitionerC2Ev, .-_ZN3tbb16auto_partitionerC2Ev
	.weak	_ZN3tbb16auto_partitionerC1Ev
	.set	_ZN3tbb16auto_partitionerC1Ev,_ZN3tbb16auto_partitionerC2Ev
	.section	.text._ZN3tbb10interface98internal16allocate_siblingEPNS_4taskEm,"axG",@progbits,_ZN3tbb10interface98internal16allocate_siblingEPNS_4taskEm,comdat
	.weak	_ZN3tbb10interface98internal16allocate_siblingEPNS_4taskEm
	.type	_ZN3tbb10interface98internal16allocate_siblingEPNS_4taskEm, @function
_ZN3tbb10interface98internal16allocate_siblingEPNS_4taskEm:
.LFB4919:
	.cfi_startproc
	.cfi_personality 0x9b,DW.ref.__gxx_personality_v0
	.cfi_lsda 0x1b,.LLSDA4919
	pushq	%rbp
	.cfi_def_cfa_offset 16
	.cfi_offset 6, -16
	movq	%rsp, %rbp
	.cfi_def_cfa_register 6
	pushq	%r13
	pushq	%r12
	pushq	%rbx
	subq	$40, %rsp
	.cfi_offset 13, -24
	.cfi_offset 12, -32
	.cfi_offset 3, -40
	movq	%rdi, -56(%rbp)
	movq	%rsi, -64(%rbp)
	movq	-56(%rbp), %rax
	movq	%rax, %rdi
	call	_ZN3tbb4task21allocate_continuationEv
	movq	%rax, %r12
	movq	%r12, %rsi
	movl	$16, %edi
.LEHB2:
	call	_ZnwmRKN3tbb8internal27allocate_continuation_proxyE
.LEHE2:
	movq	%rax, %rbx
	movq	%rbx, %rdi
.LEHB3:
	call	_ZN3tbb10interface98internal9flag_taskC1Ev
.LEHE3:
	movq	%rbx, -40(%rbp)
	movq	-40(%rbp), %rdx
	movq	-56(%rbp), %rax
	movq	%rdx, %rsi
	movq	%rax, %rdi
	call	_ZN3tbb4task10set_parentEPS0_
	movq	-40(%rbp), %rax
	movl	$2, %esi
	movq	%rax, %rdi
	call	_ZN3tbb4task13set_ref_countEi
	movq	-40(%rbp), %rax
	movq	%rax, %rdi
	call	_ZN3tbb4task14allocate_childEv
	movq	%rax, %rdx
	movq	-64(%rbp), %rax
	movq	%rax, %rsi
	movq	%rdx, %rdi
.LEHB4:
	call	_ZNK3tbb8internal20allocate_child_proxy8allocateEm@PLT
.LEHE4:
	jmp	.L121
.L120:
	movq	%rax, %r13
	movq	%r12, %rsi
	movq	%rbx, %rdi
	call	_ZdlPvRKN3tbb8internal27allocate_continuation_proxyE
	movq	%r13, %rax
	movq	%rax, %rdi
.LEHB5:
	call	_Unwind_Resume@PLT
.LEHE5:
.L121:
	addq	$40, %rsp
	popq	%rbx
	popq	%r12
	popq	%r13
	popq	%rbp
	.cfi_def_cfa 7, 8
	ret
	.cfi_endproc
.LFE4919:
	.section	.gcc_except_table._ZN3tbb10interface98internal16allocate_siblingEPNS_4taskEm,"aG",@progbits,_ZN3tbb10interface98internal16allocate_siblingEPNS_4taskEm,comdat
.LLSDA4919:
	.byte	0xff
	.byte	0xff
	.byte	0x1
	.uleb128 .LLSDACSE4919-.LLSDACSB4919
.LLSDACSB4919:
	.uleb128 .LEHB2-.LFB4919
	.uleb128 .LEHE2-.LEHB2
	.uleb128 0
	.uleb128 0
	.uleb128 .LEHB3-.LFB4919
	.uleb128 .LEHE3-.LEHB3
	.uleb128 .L120-.LFB4919
	.uleb128 0
	.uleb128 .LEHB4-.LFB4919
	.uleb128 .LEHE4-.LEHB4
	.uleb128 0
	.uleb128 0
	.uleb128 .LEHB5-.LFB4919
	.uleb128 .LEHE5-.LEHB5
	.uleb128 0
	.uleb128 0
.LLSDACSE4919:
	.section	.text._ZN3tbb10interface98internal16allocate_siblingEPNS_4taskEm,"axG",@progbits,_ZN3tbb10interface98internal16allocate_siblingEPNS_4taskEm,comdat
	.size	_ZN3tbb10interface98internal16allocate_siblingEPNS_4taskEm, .-_ZN3tbb10interface98internal16allocate_siblingEPNS_4taskEm
	.section	.text._ZN3tbb19task_scheduler_initC2Eim,"axG",@progbits,_ZN3tbb19task_scheduler_initC5Eim,comdat
	.align 2
	.weak	_ZN3tbb19task_scheduler_initC2Eim
	.type	_ZN3tbb19task_scheduler_initC2Eim, @function
_ZN3tbb19task_scheduler_initC2Eim:
.LFB4970:
	.cfi_startproc
	pushq	%rbp
	.cfi_def_cfa_offset 16
	.cfi_offset 6, -16
	movq	%rsp, %rbp
	.cfi_def_cfa_register 6
	subq	$32, %rsp
	movq	%rdi, -8(%rbp)
	movl	%esi, -12(%rbp)
	movq	%rdx, -24(%rbp)
	movq	-8(%rbp), %rax
	movq	%rax, %rdi
	call	_ZN3tbb8internal7no_copyC2Ev
	movq	-8(%rbp), %rax
	movq	$0, (%rax)
	orq	$1, -24(%rbp)
	movq	-24(%rbp), %rdx
	movl	-12(%rbp), %ecx
	movq	-8(%rbp), %rax
	movl	%ecx, %esi
	movq	%rax, %rdi
	call	_ZN3tbb19task_scheduler_init10initializeEim@PLT
	nop
	leave
	.cfi_def_cfa 7, 8
	ret
	.cfi_endproc
.LFE4970:
	.size	_ZN3tbb19task_scheduler_initC2Eim, .-_ZN3tbb19task_scheduler_initC2Eim
	.weak	_ZN3tbb19task_scheduler_initC1Eim
	.set	_ZN3tbb19task_scheduler_initC1Eim,_ZN3tbb19task_scheduler_initC2Eim
	.section	.text._ZN3tbb19task_scheduler_initD2Ev,"axG",@progbits,_ZN3tbb19task_scheduler_initD5Ev,comdat
	.align 2
	.weak	_ZN3tbb19task_scheduler_initD2Ev
	.type	_ZN3tbb19task_scheduler_initD2Ev, @function
_ZN3tbb19task_scheduler_initD2Ev:
.LFB4973:
	.cfi_startproc
	.cfi_personality 0x9b,DW.ref.__gxx_personality_v0
	.cfi_lsda 0x1b,.LLSDA4973
	pushq	%rbp
	.cfi_def_cfa_offset 16
	.cfi_offset 6, -16
	movq	%rsp, %rbp
	.cfi_def_cfa_register 6
	subq	$16, %rsp
	movq	%rdi, -8(%rbp)
	movq	-8(%rbp), %rax
	movq	(%rax), %rax
	testq	%rax, %rax
	je	.L124
	movq	-8(%rbp), %rax
	movq	%rax, %rdi
	call	_ZN3tbb19task_scheduler_init9terminateEv@PLT
.L124:
	movq	-8(%rbp), %rax
	movq	%rax, %rdi
	call	_ZN3tbb8internal14poison_pointerINS0_9schedulerEEEvRPT_
	nop
	leave
	.cfi_def_cfa 7, 8
	ret
	.cfi_endproc
.LFE4973:
	.section	.gcc_except_table._ZN3tbb19task_scheduler_initD2Ev,"aG",@progbits,_ZN3tbb19task_scheduler_initD5Ev,comdat
.LLSDA4973:
	.byte	0xff
	.byte	0xff
	.byte	0x1
	.uleb128 .LLSDACSE4973-.LLSDACSB4973
.LLSDACSB4973:
.LLSDACSE4973:
	.section	.text._ZN3tbb19task_scheduler_initD2Ev,"axG",@progbits,_ZN3tbb19task_scheduler_initD5Ev,comdat
	.size	_ZN3tbb19task_scheduler_initD2Ev, .-_ZN3tbb19task_scheduler_initD2Ev
	.weak	_ZN3tbb19task_scheduler_initD1Ev
	.set	_ZN3tbb19task_scheduler_initD1Ev,_ZN3tbb19task_scheduler_initD2Ev
	.globl	cpus_num
	.bss
	.align 4
	.type	cpus_num, @object
	.size	cpus_num, 4
cpus_num:
	.zero	4
	.globl	local_thread_vars
	.align 32
	.type	local_thread_vars, @object
	.size	local_thread_vars, 96
local_thread_vars:
	.zero	96
	.text
	.type	_ZL15rand_uint32_getPSt23mersenne_twister_engineImLm32ELm624ELm397ELm31ELm2567483615ELm11ELm4294967295ELm7ELm2636928640ELm15ELm4022730752ELm18ELm1812433253EE, @function
_ZL15rand_uint32_getPSt23mersenne_twister_engineImLm32ELm624ELm397ELm31ELm2567483615ELm11ELm4294967295ELm7ELm2636928640ELm15ELm4022730752ELm18ELm1812433253EE:
.LFB4976:
	.cfi_startproc
	pushq	%rbp
	.cfi_def_cfa_offset 16
	.cfi_offset 6, -16
	movq	%rsp, %rbp
	.cfi_def_cfa_register 6
	subq	$32, %rsp
	movq	%rdi, -24(%rbp)
	movq	%fs:40, %rax
	movq	%rax, -8(%rbp)
	xorl	%eax, %eax
	leaq	-16(%rbp), %rax
	movl	$-1, %edx
	movl	$0, %esi
	movq	%rax, %rdi
	call	_ZNSt24uniform_int_distributionIjEC1Ejj
	movq	-24(%rbp), %rdx
	leaq	-16(%rbp), %rax
	movq	%rdx, %rsi
	movq	%rax, %rdi
	call	_ZNSt24uniform_int_distributionIjEclISt23mersenne_twister_engineImLm32ELm624ELm397ELm31ELm2567483615ELm11ELm4294967295ELm7ELm2636928640ELm15ELm4022730752ELm18ELm1812433253EEEEjRT_
	movq	-8(%rbp), %rcx
	xorq	%fs:40, %rcx
	je	.L127
	call	__stack_chk_fail@PLT
.L127:
	leave
	.cfi_def_cfa 7, 8
	ret
	.cfi_endproc
.LFE4976:
	.size	_ZL15rand_uint32_getPSt23mersenne_twister_engineImLm32ELm624ELm397ELm31ELm2567483615ELm11ELm4294967295ELm7ELm2636928640ELm15ELm4022730752ELm18ELm1812433253EE, .-_ZL15rand_uint32_getPSt23mersenne_twister_engineImLm32ELm624ELm397ELm31ELm2567483615ELm11ELm4294967295ELm7ELm2636928640ELm15ELm4022730752ELm18ELm1812433253EE
	.type	_ZL19rand_skewed_bin_getPSt23mersenne_twister_engineImLm32ELm624ELm397ELm31ELm2567483615ELm11ELm4294967295ELm7ELm2636928640ELm15ELm4022730752ELm18ELm1812433253EE, @function
_ZL19rand_skewed_bin_getPSt23mersenne_twister_engineImLm32ELm624ELm397ELm31ELm2567483615ELm11ELm4294967295ELm7ELm2636928640ELm15ELm4022730752ELm18ELm1812433253EE:
.LFB4977:
	.cfi_startproc
	pushq	%rbp
	.cfi_def_cfa_offset 16
	.cfi_offset 6, -16
	movq	%rsp, %rbp
	.cfi_def_cfa_register 6
	subq	$64, %rsp
	movq	%rdi, -56(%rbp)
	movq	%fs:40, %rax
	movq	%rax, -8(%rbp)
	xorl	%eax, %eax
	movsd	.LC1(%rip), %xmm0
	movq	.LC2(%rip), %rdx
	leaq	-48(%rbp), %rax
	movapd	%xmm0, %xmm1
	movq	%rdx, -64(%rbp)
	movsd	-64(%rbp), %xmm0
	movq	%rax, %rdi
	call	_ZNSt19normal_distributionIdEC1Edd
	movq	-56(%rbp), %rdx
	leaq	-48(%rbp), %rax
	movq	%rdx, %rsi
	movq	%rax, %rdi
	call	_ZNSt19normal_distributionIdEclISt23mersenne_twister_engineImLm32ELm624ELm397ELm31ELm2567483615ELm11ELm4294967295ELm7ELm2636928640ELm15ELm4022730752ELm18ELm1812433253EEEEdRT_
	call	round@PLT
	cvttsd2siq	%xmm0, %rax
	andl	$1023, %eax
	movq	-8(%rbp), %rcx
	xorq	%fs:40, %rcx
	je	.L130
	call	__stack_chk_fail@PLT
.L130:
	leave
	.cfi_def_cfa 7, 8
	ret
	.cfi_endproc
.LFE4977:
	.size	_ZL19rand_skewed_bin_getPSt23mersenne_twister_engineImLm32ELm624ELm397ELm31ELm2567483615ELm11ELm4294967295ELm7ELm2636928640ELm15ELm4022730752ELm18ELm1812433253EE, .-_ZL19rand_skewed_bin_getPSt23mersenne_twister_engineImLm32ELm624ELm397ELm31ELm2567483615ELm11ELm4294967295ELm7ELm2636928640ELm15ELm4022730752ELm18ELm1812433253EE
	.type	_ZL23access_offsets_generatePjjjPSt23mersenne_twister_engineImLm32ELm624ELm397ELm31ELm2567483615ELm11ELm4294967295ELm7ELm2636928640ELm15ELm4022730752ELm18ELm1812433253EE18memory_access_type, @function
_ZL23access_offsets_generatePjjjPSt23mersenne_twister_engineImLm32ELm624ELm397ELm31ELm2567483615ELm11ELm4294967295ELm7ELm2636928640ELm15ELm4022730752ELm18ELm1812433253EE18memory_access_type:
.LFB4978:
	.cfi_startproc
	pushq	%rbp
	.cfi_def_cfa_offset 16
	.cfi_offset 6, -16
	movq	%rsp, %rbp
	.cfi_def_cfa_register 6
	subq	$64, %rsp
	movq	%rdi, -40(%rbp)
	movl	%esi, -44(%rbp)
	movl	%edx, -48(%rbp)
	movq	%rcx, -56(%rbp)
	movl	%r8d, -60(%rbp)
	movl	-44(%rbp), %eax
	shrl	$6, %eax
	movl	%eax, -20(%rbp)
	movl	-20(%rbp), %eax
	shrl	$10, %eax
	movl	%eax, -16(%rbp)
	movl	-44(%rbp), %eax
	shrl	$10, %eax
	movl	%eax, -12(%rbp)
	movl	-20(%rbp), %eax
	movl	$-858993459, %edx
	mull	%edx
	movl	%edx, %eax
	shrl	$3, %eax
	movl	%eax, -8(%rbp)
	movl	-44(%rbp), %eax
	movl	$-858993459, %edx
	mull	%edx
	movl	%edx, %eax
	shrl	$3, %eax
	movl	%eax, -4(%rbp)
	movl	-60(%rbp), %eax
	cmpl	$1, %eax
	je	.L133
	cmpl	$1, %eax
	jg	.L134
	testl	%eax, %eax
	je	.L135
	jmp	.L140
.L134:
	cmpl	$2, %eax
	je	.L136
	cmpl	$3, %eax
	je	.L137
	jmp	.L140
.L135:
	movl	$0, -24(%rbp)
.L139:
	movl	-24(%rbp), %eax
	cmpl	-48(%rbp), %eax
	jnb	.L147
	movl	-24(%rbp), %eax
	movl	$0, %edx
	divl	-20(%rbp)
	movl	%edx, %ecx
	movl	-24(%rbp), %eax
	leaq	0(,%rax,4), %rdx
	movq	-40(%rbp), %rax
	addq	%rdx, %rax
	sall	$6, %ecx
	movl	%ecx, %edx
	movl	%edx, (%rax)
	addl	$1, -24(%rbp)
	jmp	.L139
.L133:
	movl	$0, -24(%rbp)
.L142:
	movl	-24(%rbp), %eax
	cmpl	-48(%rbp), %eax
	jnb	.L148
	movq	-56(%rbp), %rax
	movq	%rax, %rdi
	call	_ZL15rand_uint32_getPSt23mersenne_twister_engineImLm32ELm624ELm397ELm31ELm2567483615ELm11ELm4294967295ELm7ELm2636928640ELm15ELm4022730752ELm18ELm1812433253EE
	movl	$0, %edx
	divl	-20(%rbp)
	movl	%edx, %ecx
	movl	-24(%rbp), %eax
	leaq	0(,%rax,4), %rdx
	movq	-40(%rbp), %rax
	addq	%rdx, %rax
	sall	$6, %ecx
	movl	%ecx, %edx
	movl	%edx, (%rax)
	addl	$1, -24(%rbp)
	jmp	.L142
.L136:
	movl	$0, -24(%rbp)
.L144:
	movl	-24(%rbp), %eax
	cmpl	-48(%rbp), %eax
	jnb	.L149
	movq	-56(%rbp), %rax
	movq	%rax, %rdi
	call	_ZL19rand_skewed_bin_getPSt23mersenne_twister_engineImLm32ELm624ELm397ELm31ELm2567483615ELm11ELm4294967295ELm7ELm2636928640ELm15ELm4022730752ELm18ELm1812433253EE
	imull	-12(%rbp), %eax
	movl	%eax, %ecx
	movl	-48(%rbp), %eax
	movl	$0, %edx
	divl	-16(%rbp)
	movl	%edx, %eax
	sall	$6, %eax
	movl	%eax, %edx
	movl	-24(%rbp), %eax
	leaq	0(,%rax,4), %rsi
	movq	-40(%rbp), %rax
	addq	%rsi, %rax
	addl	%ecx, %edx
	movl	%edx, (%rax)
	addl	$1, -24(%rbp)
	jmp	.L144
.L137:
	movl	$0, -24(%rbp)
.L146:
	movl	-24(%rbp), %eax
	cmpl	-48(%rbp), %eax
	jnb	.L150
	movq	-56(%rbp), %rax
	movq	%rax, %rdi
	call	_ZL19rand_skewed_bin_getPSt23mersenne_twister_engineImLm32ELm624ELm397ELm31ELm2567483615ELm11ELm4294967295ELm7ELm2636928640ELm15ELm4022730752ELm18ELm1812433253EE
	imull	-12(%rbp), %eax
	movl	%eax, %ecx
	movl	-48(%rbp), %eax
	movl	$0, %edx
	divl	-16(%rbp)
	movl	%edx, %eax
	sall	$6, %eax
	movl	%eax, %edx
	movl	-24(%rbp), %eax
	leaq	0(,%rax,4), %rsi
	movq	-40(%rbp), %rax
	addq	%rsi, %rax
	addl	%ecx, %edx
	movl	%edx, (%rax)
	movl	-24(%rbp), %eax
	leaq	0(,%rax,4), %rdx
	movq	-40(%rbp), %rax
	addq	%rdx, %rax
	movl	(%rax), %ecx
	movl	-24(%rbp), %eax
	movl	$0, %edx
	divl	-8(%rbp)
	imull	-4(%rbp), %eax
	addl	%ecx, %eax
	movl	-24(%rbp), %edx
	leaq	0(,%rdx,4), %rcx
	movq	-40(%rbp), %rdx
	addq	%rdx, %rcx
	movl	$0, %edx
	divl	-44(%rbp)
	movl	%edx, %eax
	movl	%eax, (%rcx)
	addl	$1, -24(%rbp)
	jmp	.L146
.L147:
	nop
	jmp	.L140
.L148:
	nop
	jmp	.L140
.L149:
	nop
	jmp	.L140
.L150:
	nop
.L140:
	nop
	leave
	.cfi_def_cfa 7, 8
	ret
	.cfi_endproc
.LFE4978:
	.size	_ZL23access_offsets_generatePjjjPSt23mersenne_twister_engineImLm32ELm624ELm397ELm31ELm2567483615ELm11ELm4294967295ELm7ELm2636928640ELm15ELm4022730752ELm18ELm1812433253EE18memory_access_type, .-_ZL23access_offsets_generatePjjjPSt23mersenne_twister_engineImLm32ELm624ELm397ELm31ELm2567483615ELm11ELm4294967295ELm7ELm2636928640ELm15ELm4022730752ELm18ELm1812433253EE18memory_access_type
	.section	.text._ZN9init_taskC2Ejjj18memory_access_type,"axG",@progbits,_ZN9init_taskC5Ejjj18memory_access_type,comdat
	.align 2
	.weak	_ZN9init_taskC2Ejjj18memory_access_type
	.type	_ZN9init_taskC2Ejjj18memory_access_type, @function
_ZN9init_taskC2Ejjj18memory_access_type:
.LFB4980:
	.cfi_startproc
	pushq	%rbp
	.cfi_def_cfa_offset 16
	.cfi_offset 6, -16
	movq	%rsp, %rbp
	.cfi_def_cfa_register 6
	movq	%rdi, -8(%rbp)
	movl	%esi, -12(%rbp)
	movl	%edx, -16(%rbp)
	movl	%ecx, -20(%rbp)
	movl	%r8d, -24(%rbp)
	movq	-8(%rbp), %rax
	movl	-12(%rbp), %edx
	movl	%edx, (%rax)
	movq	-8(%rbp), %rax
	movl	-16(%rbp), %edx
	movl	%edx, 4(%rax)
	movq	-8(%rbp), %rax
	movl	-20(%rbp), %edx
	movl	%edx, 8(%rax)
	movq	-8(%rbp), %rax
	movl	-24(%rbp), %edx
	movl	%edx, 12(%rax)
	nop
	popq	%rbp
	.cfi_def_cfa 7, 8
	ret
	.cfi_endproc
.LFE4980:
	.size	_ZN9init_taskC2Ejjj18memory_access_type, .-_ZN9init_taskC2Ejjj18memory_access_type
	.weak	_ZN9init_taskC1Ejjj18memory_access_type
	.set	_ZN9init_taskC1Ejjj18memory_access_type,_ZN9init_taskC2Ejjj18memory_access_type
	.section	.rodata
	.align 8
.LC3:
	.string	"Error in pinning thread to core id "
.LC4:
	.string	" aborting..."
	.align 8
.LC5:
	.string	"Failure in allocating huge buffer, aborting"
	.align 8
.LC6:
	.string	"Failure in allocating dst huge buffer, aborting"
	.align 8
.LC7:
	.string	"Failure in allocating offsets buffer, aborting"
	.section	.text._ZN9init_taskclEv,"axG",@progbits,_ZN9init_taskclEv,comdat
	.align 2
	.weak	_ZN9init_taskclEv
	.type	_ZN9init_taskclEv, @function
_ZN9init_taskclEv:
.LFB4982:
	.cfi_startproc
	.cfi_personality 0x9b,DW.ref.__gxx_personality_v0
	.cfi_lsda 0x1b,.LLSDA4982
	pushq	%rbp
	.cfi_def_cfa_offset 16
	.cfi_offset 6, -16
	movq	%rsp, %rbp
	.cfi_def_cfa_register 6
	pushq	%r12
	pushq	%rbx
	subq	$192, %rsp
	.cfi_offset 12, -24
	.cfi_offset 3, -32
	movq	%rdi, -200(%rbp)
	movq	%fs:40, %rax
	movq	%rax, -24(%rbp)
	xorl	%eax, %eax
	leaq	local_thread_vars(%rip), %rdi
.LEHB6:
	call	_ZN3tbb10interface626enumerable_thread_specificI17thread_local_varsNS_23cache_aligned_allocatorIS2_EELNS_18ets_key_usage_typeE1EE5localEv
	movq	%rax, -176(%rbp)
	movq	-200(%rbp), %rax
	movl	(%rax), %edx
	movq	-176(%rbp), %rax
	movl	%edx, (%rax)
	leaq	-160(%rbp), %rax
	movq	%rax, %rsi
	movl	$0, %eax
	movl	$16, %edx
	movq	%rsi, %rdi
	movq	%rdx, %rcx
	rep stosq
	movq	-200(%rbp), %rax
	movl	(%rax), %eax
	movl	%eax, %eax
	movq	%rax, -184(%rbp)
	movq	-184(%rbp), %rax
	cmpq	$1023, %rax
	ja	.L154
	movq	-184(%rbp), %rax
	shrq	$6, %rax
	leaq	0(,%rax,8), %rdx
	leaq	-160(%rbp), %rcx
	addq	%rcx, %rdx
	movq	(%rdx), %rdx
	movq	-184(%rbp), %rcx
	andl	$63, %ecx
	movl	$1, %esi
	salq	%cl, %rsi
	movq	%rsi, %rcx
	leaq	0(,%rax,8), %rsi
	leaq	-160(%rbp), %rax
	addq	%rsi, %rax
	orq	%rcx, %rdx
	movq	%rdx, (%rax)
.L154:
	leaq	-160(%rbp), %rax
	movq	%rax, %rdx
	movl	$128, %esi
	movl	$0, %edi
	call	sched_setaffinity@PLT
	movl	%eax, -188(%rbp)
	cmpl	$0, -188(%rbp)
	je	.L155
	leaq	.LC3(%rip), %rsi
	leaq	_ZSt4cout(%rip), %rdi
	call	_ZStlsISt11char_traitsIcEERSt13basic_ostreamIcT_ES5_PKc@PLT
	movq	%rax, %rdx
	movq	-200(%rbp), %rax
	movl	(%rax), %eax
	movl	%eax, %esi
	movq	%rdx, %rdi
	call	_ZNSolsEj@PLT
	leaq	.LC4(%rip), %rsi
	movq	%rax, %rdi
	call	_ZStlsISt11char_traitsIcEERSt13basic_ostreamIcT_ES5_PKc@PLT
	movq	%rax, %rdx
	movq	_ZSt4endlIcSt11char_traitsIcEERSt13basic_ostreamIT_T0_ES6_@GOTPCREL(%rip), %rax
	movq	%rax, %rsi
	movq	%rdx, %rdi
	call	_ZNSolsEPFRSoS_E@PLT
	movl	$-1, %edi
	call	exit@PLT
.L155:
	movq	-200(%rbp), %rax
	movl	4(%rax), %edx
	movq	-176(%rbp), %rax
	movl	%edx, 4(%rax)
	movq	-200(%rbp), %rax
	movl	8(%rax), %edx
	movq	-176(%rbp), %rax
	movl	%edx, 8(%rax)
	movq	-176(%rbp), %rax
	movl	4(%rax), %eax
	movl	%eax, %eax
	movq	%rax, %rsi
	movl	$4096, %edi
	call	aligned_alloc@PLT
	movq	%rax, %rdx
	movq	-176(%rbp), %rax
	movq	%rdx, 16(%rax)
	movq	-176(%rbp), %rax
	movq	16(%rax), %rax
	testq	%rax, %rax
	jne	.L156
	leaq	.LC5(%rip), %rsi
	leaq	_ZSt4cout(%rip), %rdi
	call	_ZStlsISt11char_traitsIcEERSt13basic_ostreamIcT_ES5_PKc@PLT
	movq	%rax, %rdx
	movq	_ZSt4endlIcSt11char_traitsIcEERSt13basic_ostreamIT_T0_ES6_@GOTPCREL(%rip), %rax
	movq	%rax, %rsi
	movq	%rdx, %rdi
	call	_ZNSolsEPFRSoS_E@PLT
	movl	$-1, %edi
	call	exit@PLT
.L156:
	movq	-176(%rbp), %rax
	movl	4(%rax), %eax
	movl	%eax, %eax
	movq	%rax, %rsi
	movl	$4096, %edi
	call	aligned_alloc@PLT
	movq	%rax, %rdx
	movq	-176(%rbp), %rax
	movq	%rdx, 24(%rax)
	movq	-176(%rbp), %rax
	movq	24(%rax), %rax
	testq	%rax, %rax
	jne	.L157
	leaq	.LC6(%rip), %rsi
	leaq	_ZSt4cout(%rip), %rdi
	call	_ZStlsISt11char_traitsIcEERSt13basic_ostreamIcT_ES5_PKc@PLT
	movq	%rax, %rdx
	movq	_ZSt4endlIcSt11char_traitsIcEERSt13basic_ostreamIT_T0_ES6_@GOTPCREL(%rip), %rax
	movq	%rax, %rsi
	movq	%rdx, %rdi
	call	_ZNSolsEPFRSoS_E@PLT
	movl	$-1, %edi
	call	exit@PLT
.L157:
	movq	-176(%rbp), %rax
	movl	4(%rax), %eax
	movl	%eax, %edx
	movq	-176(%rbp), %rax
	movq	16(%rax), %rax
	movl	$204, %esi
	movq	%rax, %rdi
	call	memset@PLT
	movq	-200(%rbp), %rax
	movl	8(%rax), %eax
	movl	%eax, %eax
	salq	$2, %rax
	movq	%rax, %rsi
	movl	$4096, %edi
	call	aligned_alloc@PLT
	movq	%rax, %rdx
	movq	-176(%rbp), %rax
	movq	%rdx, 32(%rax)
	movq	-176(%rbp), %rax
	movq	32(%rax), %rax
	testq	%rax, %rax
	jne	.L158
	leaq	.LC7(%rip), %rsi
	leaq	_ZSt4cout(%rip), %rdi
	call	_ZStlsISt11char_traitsIcEERSt13basic_ostreamIcT_ES5_PKc@PLT
	movq	%rax, %rdx
	movq	_ZSt4endlIcSt11char_traitsIcEERSt13basic_ostreamIT_T0_ES6_@GOTPCREL(%rip), %rax
	movq	%rax, %rsi
	movq	%rdx, %rdi
	call	_ZNSolsEPFRSoS_E@PLT
	movl	$-1, %edi
	call	exit@PLT
.L158:
	movl	$5000, %edi
	call	_Znwm@PLT
.LEHE6:
	movq	%rax, %rbx
	movq	-200(%rbp), %rax
	movq	%rax, %rsi
	movq	%rbx, %rdi
.LEHB7:
	call	_ZNSt23mersenne_twister_engineImLm32ELm624ELm397ELm31ELm2567483615ELm11ELm4294967295ELm7ELm2636928640ELm15ELm4022730752ELm18ELm1812433253EEC1IjvEERT_
.LEHE7:
	movq	%rbx, -168(%rbp)
	movq	-200(%rbp), %rax
	movl	12(%rax), %edi
	movq	-200(%rbp), %rax
	movl	8(%rax), %edx
	movq	-200(%rbp), %rax
	movl	4(%rax), %esi
	movq	-176(%rbp), %rax
	movq	32(%rax), %rax
	movq	-168(%rbp), %rcx
	movl	%edi, %r8d
	movq	%rax, %rdi
.LEHB8:
	call	_ZL23access_offsets_generatePjjjPSt23mersenne_twister_engineImLm32ELm624ELm397ELm31ELm2567483615ELm11ELm4294967295ELm7ELm2636928640ELm15ELm4022730752ELm18ELm1812433253EE18memory_access_type
	nop
	movq	-24(%rbp), %rax
	xorq	%fs:40, %rax
	je	.L160
	jmp	.L162
.L161:
	movq	%rax, %r12
	movl	$5000, %esi
	movq	%rbx, %rdi
	call	_ZdlPvm@PLT
	movq	%r12, %rax
	movq	%rax, %rdi
	call	_Unwind_Resume@PLT
.LEHE8:
.L162:
	call	__stack_chk_fail@PLT
.L160:
	addq	$192, %rsp
	popq	%rbx
	popq	%r12
	popq	%rbp
	.cfi_def_cfa 7, 8
	ret
	.cfi_endproc
.LFE4982:
	.section	.gcc_except_table._ZN9init_taskclEv,"aG",@progbits,_ZN9init_taskclEv,comdat
.LLSDA4982:
	.byte	0xff
	.byte	0xff
	.byte	0x1
	.uleb128 .LLSDACSE4982-.LLSDACSB4982
.LLSDACSB4982:
	.uleb128 .LEHB6-.LFB4982
	.uleb128 .LEHE6-.LEHB6
	.uleb128 0
	.uleb128 0
	.uleb128 .LEHB7-.LFB4982
	.uleb128 .LEHE7-.LEHB7
	.uleb128 .L161-.LFB4982
	.uleb128 0
	.uleb128 .LEHB8-.LFB4982
	.uleb128 .LEHE8-.LEHB8
	.uleb128 0
	.uleb128 0
.LLSDACSE4982:
	.section	.text._ZN9init_taskclEv,"axG",@progbits,_ZN9init_taskclEv,comdat
	.size	_ZN9init_taskclEv, .-_ZN9init_taskclEv
	.section	.text._ZN14tear_down_taskC2Ev,"axG",@progbits,_ZN14tear_down_taskC5Ev,comdat
	.align 2
	.weak	_ZN14tear_down_taskC2Ev
	.type	_ZN14tear_down_taskC2Ev, @function
_ZN14tear_down_taskC2Ev:
.LFB4984:
	.cfi_startproc
	pushq	%rbp
	.cfi_def_cfa_offset 16
	.cfi_offset 6, -16
	movq	%rsp, %rbp
	.cfi_def_cfa_register 6
	movq	%rdi, -8(%rbp)
	nop
	popq	%rbp
	.cfi_def_cfa 7, 8
	ret
	.cfi_endproc
.LFE4984:
	.size	_ZN14tear_down_taskC2Ev, .-_ZN14tear_down_taskC2Ev
	.weak	_ZN14tear_down_taskC1Ev
	.set	_ZN14tear_down_taskC1Ev,_ZN14tear_down_taskC2Ev
	.section	.text._ZN14tear_down_taskclEv,"axG",@progbits,_ZN14tear_down_taskclEv,comdat
	.align 2
	.weak	_ZN14tear_down_taskclEv
	.type	_ZN14tear_down_taskclEv, @function
_ZN14tear_down_taskclEv:
.LFB4986:
	.cfi_startproc
	pushq	%rbp
	.cfi_def_cfa_offset 16
	.cfi_offset 6, -16
	movq	%rsp, %rbp
	.cfi_def_cfa_register 6
	subq	$32, %rsp
	movq	%rdi, -24(%rbp)
	leaq	local_thread_vars(%rip), %rdi
	call	_ZN3tbb10interface626enumerable_thread_specificI17thread_local_varsNS_23cache_aligned_allocatorIS2_EELNS_18ets_key_usage_typeE1EE5localEv
	movq	%rax, -8(%rbp)
	movq	-8(%rbp), %rax
	movq	16(%rax), %rax
	movq	%rax, %rdi
	call	free@PLT
	movq	-8(%rbp), %rax
	movq	32(%rax), %rax
	movq	%rax, %rdi
	call	free@PLT
	nop
	leave
	.cfi_def_cfa 7, 8
	ret
	.cfi_endproc
.LFE4986:
	.size	_ZN14tear_down_taskclEv, .-_ZN14tear_down_taskclEv
	.section	.text._ZN11access_taskC2Ev,"axG",@progbits,_ZN11access_taskC5Ev,comdat
	.align 2
	.weak	_ZN11access_taskC2Ev
	.type	_ZN11access_taskC2Ev, @function
_ZN11access_taskC2Ev:
.LFB4988:
	.cfi_startproc
	pushq	%rbp
	.cfi_def_cfa_offset 16
	.cfi_offset 6, -16
	movq	%rsp, %rbp
	.cfi_def_cfa_register 6
	movq	%rdi, -8(%rbp)
	nop
	popq	%rbp
	.cfi_def_cfa 7, 8
	ret
	.cfi_endproc
.LFE4988:
	.size	_ZN11access_taskC2Ev, .-_ZN11access_taskC2Ev
	.weak	_ZN11access_taskC1Ev
	.set	_ZN11access_taskC1Ev,_ZN11access_taskC2Ev
	.section	.rodata
.LC10:
	.string	"First Copy:  %.3f MiB/s\n"
.LC11:
	.string	"Second Copy: %.3f MiB/s\n"
	.section	.text._ZN11access_taskclEv,"axG",@progbits,_ZN11access_taskclEv,comdat
	.align 2
	.weak	_ZN11access_taskclEv
	.type	_ZN11access_taskclEv, @function
_ZN11access_taskclEv:
.LFB4990:
	.cfi_startproc
	pushq	%rbp
	.cfi_def_cfa_offset 16
	.cfi_offset 6, -16
	movq	%rsp, %rbp
	.cfi_def_cfa_register 6
	subq	$144, %rsp
	movq	%rdi, -136(%rbp)
	movq	%fs:40, %rax
	movq	%rax, -8(%rbp)
	xorl	%eax, %eax
	leaq	local_thread_vars(%rip), %rdi
	call	_ZN3tbb10interface626enumerable_thread_specificI17thread_local_varsNS_23cache_aligned_allocatorIS2_EELNS_18ets_key_usage_typeE1EE5localEv
	movq	%rax, -104(%rbp)
	movq	-104(%rbp), %rax
	movq	16(%rax), %rax
	movq	%rax, -112(%rbp)
	movq	-112(%rbp), %rax
	movq	%rax, -96(%rbp)
	movq	-104(%rbp), %rax
	movq	24(%rax), %rax
	movq	%rax, -88(%rbp)
	movq	$134217728, -80(%rbp) # long asize = (1 << 30) / sizeof(long);
	movl	$0, -116(%rbp)
.L168:
	movl	-116(%rbp), %eax
	cltq
	cmpq	%rax, -80(%rbp)
	jle	.L167
	movl	-116(%rbp), %eax
	cltq
	leaq	0(,%rax,8), %rdx
	movq	-96(%rbp), %rax
	addq	%rdx, %rax
	movq	$170, (%rax)  # src_buffer[t] = 0xaa;
	movl	-116(%rbp), %eax
	cltq
	leaq	0(,%rax,8), %rdx
	movq	-88(%rbp), %rax
	addq	%rdx, %rax
	movq	$170, (%rax) # dst_buffer[t] = 0xaa;
	addl	$1, -116(%rbp)
	jmp	.L168
.L167:
	leaq	-48(%rbp), %rax
	movl	$0, %esi
	movq	%rax, %rdi
	call	gettimeofday@PLT  # gettimeofday(&starttime, NULL);
	movl	$0, -116(%rbp) # t = 0
# the actual for loop
.L170:
	movl	-116(%rbp), %eax
	cltq
	cmpq	%rax, -80(%rbp) # t(%rax) < asize(-80(%rbp))
	jle	.L169 
	movl	-116(%rbp), %eax
	cltq
	leaq	0(,%rax,8), %rdx # rdx = i * 8
	movq	-96(%rbp), %rax
	addq	%rdx, %rax # rdx += src_buffer (address)
	movl	-116(%rbp), %edx
	movslq	%edx, %rdx
	leaq	0(,%rdx,8), %rcx
	movq	-88(%rbp), %rdx
	addq	%rcx, %rdx
	movq	(%rax), %rax
	movq	%rax, (%rdx)
	addl	$1, -116(%rbp) # t++
	jmp	.L170
.L169:
	leaq	-32(%rbp), %rax
	movl	$0, %esi
	movq	%rax, %rdi
	call	gettimeofday@PLT
	movq	-32(%rbp), %rax
	imulq	$1000000, %rax, %rdx
	movq	-48(%rbp), %rax
	imulq	$-1000000, %rax, %rax
	addq	%rax, %rdx
	movq	-24(%rbp), %rax
	addq	%rax, %rdx
	movq	-40(%rbp), %rax
	subq	%rax, %rdx
	movq	%rdx, %rax
	cvtsi2sdq	%rax, %xmm0
	movsd	.LC8(%rip), %xmm1
	divsd	%xmm1, %xmm0
	movsd	%xmm0, -72(%rbp)
	movsd	.LC9(%rip), %xmm0
	divsd	-72(%rbp), %xmm0
	leaq	.LC10(%rip), %rdi
	movl	$1, %eax
	call	printf@PLT
	movq	-80(%rbp), %rax
	movl	$8, %esi
	movq	%rax, %rdi
	call	calloc@PLT
	movq	%rax, -64(%rbp)
	movq	-80(%rbp), %rax
	movl	$8, %esi
	movq	%rax, %rdi
	call	calloc@PLT
	movq	%rax, -56(%rbp)
	movl	$0, -116(%rbp)
.L172:
	movl	-116(%rbp), %eax
	cltq
	cmpq	%rax, -80(%rbp)
	jle	.L171
	movl	-116(%rbp), %eax
	cltq
	leaq	0(,%rax,8), %rdx
	movq	-64(%rbp), %rax
	addq	%rdx, %rax
	movq	$170, (%rax) # a[t]=0xaa;
	movl	-116(%rbp), %eax
	cltq
	leaq	0(,%rax,8), %rdx
	movq	-56(%rbp), %rax
	addq	%rdx, %rax
	movq	$170, (%rax) # b[t]=0xaa;
	addl	$1, -116(%rbp)
	jmp	.L172
.L171:
	leaq	-48(%rbp), %rax
	movl	$0, %esi
	movq	%rax, %rdi
	call	gettimeofday@PLT
	movl	$0, -116(%rbp)
.L174:
	movl	-116(%rbp), %eax
	cltq
	cmpq	%rax, -80(%rbp)
	jle	.L173
	movl	-116(%rbp), %eax
	cltq
	leaq	0(,%rax,8), %rdx
	movq	-64(%rbp), %rax
	addq	%rdx, %rax
	movl	-116(%rbp), %edx
	movslq	%edx, %rdx
	leaq	0(,%rdx,8), %rcx
	movq	-56(%rbp), %rdx
	addq	%rcx, %rdx
	movq	(%rax), %rax
	movq	%rax, (%rdx)
	addl	$1, -116(%rbp)
	jmp	.L174
.L173:
	leaq	-32(%rbp), %rax
	movl	$0, %esi
	movq	%rax, %rdi
	call	gettimeofday@PLT
	movq	-32(%rbp), %rax
	imulq	$1000000, %rax, %rdx
	movq	-48(%rbp), %rax
	imulq	$-1000000, %rax, %rax
	addq	%rax, %rdx
	movq	-24(%rbp), %rax
	addq	%rax, %rdx
	movq	-40(%rbp), %rax
	subq	%rax, %rdx
	movq	%rdx, %rax
	cvtsi2sdq	%rax, %xmm0
	movsd	.LC8(%rip), %xmm1
	divsd	%xmm1, %xmm0
	movsd	%xmm0, -72(%rbp)
	movsd	.LC9(%rip), %xmm0
	divsd	-72(%rbp), %xmm0
	leaq	.LC11(%rip), %rdi
	movl	$1, %eax
	call	printf@PLT
	movq	-64(%rbp), %rax
	movq	%rax, %rdi
	call	free@PLT
	movq	-56(%rbp), %rax
	movq	%rax, %rdi
	call	free@PLT
	nop
	movq	-8(%rbp), %rax
	xorq	%fs:40, %rax
	je	.L175
	call	__stack_chk_fail@PLT
.L175:
	leave
	.cfi_def_cfa 7, 8
	ret
	.cfi_endproc
.LFE4990:
	.size	_ZN11access_taskclEv, .-_ZN11access_taskclEv
	.section	.rodata
	.align 8
.LC12:
	.string	"Failure in allocating dummy buffers, aborting"
	.text
	.type	_ZL11cache_clearv, @function
_ZL11cache_clearv:
.LFB4992:
	.cfi_startproc
	pushq	%rbp
	.cfi_def_cfa_offset 16
	.cfi_offset 6, -16
	movq	%rsp, %rbp
	.cfi_def_cfa_register 6
	subq	$16, %rsp
	movl	$134217728, %edi
	call	malloc@PLT
	movq	%rax, -16(%rbp)
	movl	$134217728, %edi
	call	malloc@PLT
	movq	%rax, -8(%rbp)
	cmpq	$0, -16(%rbp)
	je	.L177
	cmpq	$0, -8(%rbp)
	jne	.L178
.L177:
	leaq	.LC12(%rip), %rsi
	leaq	_ZSt4cout(%rip), %rdi
	call	_ZStlsISt11char_traitsIcEERSt13basic_ostreamIcT_ES5_PKc@PLT
	movq	%rax, %rdx
	movq	_ZSt4endlIcSt11char_traitsIcEERSt13basic_ostreamIT_T0_ES6_@GOTPCREL(%rip), %rax
	movq	%rax, %rsi
	movq	%rdx, %rdi
	call	_ZNSolsEPFRSoS_E@PLT
	movl	$-1, %edi
	call	exit@PLT
.L178:
	movq	-16(%rbp), %rax
	movl	$134217728, %edx
	movl	$171, %esi
	movq	%rax, %rdi
	call	memset@PLT
	movq	-16(%rbp), %rcx
	movq	-8(%rbp), %rax
	movl	$134217728, %edx
	movq	%rcx, %rsi
	movq	%rax, %rdi
	call	memcpy@PLT
	movq	-16(%rbp), %rax
	movq	%rax, %rdi
	call	free@PLT
	movq	-8(%rbp), %rax
	movq	%rax, %rdi
	call	free@PLT
	nop
	leave
	.cfi_def_cfa 7, 8
	ret
	.cfi_endproc
.LFE4992:
	.size	_ZL11cache_clearv, .-_ZL11cache_clearv
	.section	.rodata
	.align 8
.LC13:
	.string	"# Initialization done! strating test..."
	.align 8
.LC14:
	.string	"********************************************"
.LC15:
	.string	"# Elapsed time: "
.LC16:
	.string	" seconds"
.LC18:
	.string	"# Bandwidth: "
.LC19:
	.string	" GiB per second"
	.text
	.globl	main
	.type	main, @function
main:
.LFB4993:
	.cfi_startproc
	.cfi_personality 0x9b,DW.ref.__gxx_personality_v0
	.cfi_lsda 0x1b,.LLSDA4993
	pushq	%rbp
	.cfi_def_cfa_offset 16
	.cfi_offset 6, -16
	movq	%rsp, %rbp
	.cfi_def_cfa_register 6
	pushq	%rbx
	subq	$216, %rsp
	.cfi_offset 3, -24
	movl	%edi, -196(%rbp)
	movq	%rsi, -208(%rbp)
	movq	%fs:40, %rax
	movq	%rax, -24(%rbp)
	xorl	%eax, %eax
	leaq	-112(%rbp), %rax
	movq	%rax, %rdi
	call	_ZNSt6vectorI9init_taskSaIS0_EEC1Ev
	leaq	-80(%rbp), %rax
	movq	%rax, %rdi
	call	_ZNSt6vectorI11access_taskSaIS0_EEC1Ev
	leaq	-48(%rbp), %rax
	movq	%rax, %rdi
	call	_ZNSt6vectorI14tear_down_taskSaIS0_EEC1Ev
	leaq	-184(%rbp), %rax
	movq	%rax, %rdi
	call	_ZN3tbb10tick_countC1Ev
	movl	$84, %edi
	call	sysconf@PLT
	movl	%eax, cpus_num(%rip)
	leaq	-144(%rbp), %rdx
	movq	-208(%rbp), %rcx
	movl	-196(%rbp), %eax
	movq	%rcx, %rsi
	movl	%eax, %edi
.LEHB9:
	call	_Z9parse_cmdiPPcP10cmd_params@PLT
	movl	-144(%rbp), %eax
	movl	%eax, %ecx
	leaq	-176(%rbp), %rax
	movl	$0, %edx
	movl	%ecx, %esi
	movq	%rax, %rdi
	call	_ZN3tbb19task_scheduler_initC1Eim
.LEHE9:
	movl	$0, -188(%rbp)
.L181:
	movl	-144(%rbp), %eax
	cmpl	%eax, -188(%rbp)
	jnb	.L180
	movl	-132(%rbp), %edi
	movl	-136(%rbp), %ecx
	movl	-140(%rbp), %edx
	movl	-188(%rbp), %esi
	leaq	-128(%rbp), %rax
	movl	%edi, %r8d
	movq	%rax, %rdi
	call	_ZN9init_taskC1Ejjj18memory_access_type
	leaq	-128(%rbp), %rdx
	leaq	-112(%rbp), %rax
	movq	%rdx, %rsi
	movq	%rax, %rdi
.LEHB10:
	call	_ZNSt6vectorI9init_taskSaIS0_EE9push_backEOS0_
	addl	$1, -188(%rbp)
	jmp	.L181
.L180:
	leaq	-112(%rbp), %rax
	movq	%rax, %rdi
	call	_ZNSt6vectorI9init_taskSaIS0_EE3endEv
	movq	%rax, %rbx
	leaq	-112(%rbp), %rax
	movq	%rax, %rdi
	call	_ZNSt6vectorI9init_taskSaIS0_EE5beginEv
	movq	%rax, %rcx
	leaq	-128(%rbp), %rax
	movq	%rax, %rdx
	movq	%rbx, %rsi
	movq	%rcx, %rdi
	call	_ZN3tbb17parallel_for_eachIN9__gnu_cxx17__normal_iteratorIP9init_taskSt6vectorIS3_SaIS3_EEEE7invokerIS3_EEEvT_SB_RKT0_
	call	_ZL11cache_clearv
	movl	$0, -188(%rbp)
.L183:
	movl	-144(%rbp), %eax
	cmpl	%eax, -188(%rbp)
	jnb	.L182
	leaq	-128(%rbp), %rax
	movq	%rax, %rdi
	call	_ZN11access_taskC1Ev
	leaq	-128(%rbp), %rdx
	leaq	-80(%rbp), %rax
	movq	%rdx, %rsi
	movq	%rax, %rdi
	call	_ZNSt6vectorI11access_taskSaIS0_EE9push_backEOS0_
	addl	$1, -188(%rbp)
	jmp	.L183
.L182:
	leaq	.LC13(%rip), %rsi
	leaq	_ZSt4cout(%rip), %rdi
	call	_ZStlsISt11char_traitsIcEERSt13basic_ostreamIcT_ES5_PKc@PLT
	movq	%rax, %rdx
	movq	_ZSt4endlIcSt11char_traitsIcEERSt13basic_ostreamIT_T0_ES6_@GOTPCREL(%rip), %rax
	movq	%rax, %rsi
	movq	%rdx, %rdi
	call	_ZNSolsEPFRSoS_E@PLT
	leaq	.LC14(%rip), %rsi
	movq	%rax, %rdi
	call	_ZStlsISt11char_traitsIcEERSt13basic_ostreamIcT_ES5_PKc@PLT
	movq	%rax, %rdx
	movq	_ZSt4endlIcSt11char_traitsIcEERSt13basic_ostreamIT_T0_ES6_@GOTPCREL(%rip), %rax
	movq	%rax, %rsi
	movq	%rdx, %rdi
	call	_ZNSolsEPFRSoS_E@PLT
	call	_ZN3tbb10tick_count3nowEv
	movq	%rax, -184(%rbp)
	leaq	-80(%rbp), %rax
	movq	%rax, %rdi
	call	_ZNSt6vectorI11access_taskSaIS0_EE3endEv
	movq	%rax, %rbx
	leaq	-80(%rbp), %rax
	movq	%rax, %rdi
	call	_ZNSt6vectorI11access_taskSaIS0_EE5beginEv
	movq	%rax, %rcx
	leaq	-128(%rbp), %rax
	movq	%rax, %rdx
	movq	%rbx, %rsi
	movq	%rcx, %rdi
	call	_ZN3tbb17parallel_for_eachIN9__gnu_cxx17__normal_iteratorIP11access_taskSt6vectorIS3_SaIS3_EEEE7invokerIS3_EEEvT_SB_RKT0_
	call	_ZN3tbb10tick_count3nowEv
	movq	%rax, -168(%rbp)
	leaq	-184(%rbp), %rdx
	leaq	-168(%rbp), %rax
	movq	%rdx, %rsi
	movq	%rax, %rdi
	call	_ZN3tbbmiERKNS_10tick_countES2_
	movq	%rax, -128(%rbp)
	leaq	-128(%rbp), %rax
	movq	%rax, %rdi
	call	_ZNK3tbb10tick_count10interval_t7secondsEv
	movq	%xmm0, %rax
	movq	%rax, -160(%rbp)
	movl	$0, -188(%rbp)
.L185:
	movl	-144(%rbp), %eax
	cmpl	%eax, -188(%rbp)
	jnb	.L184
	leaq	-128(%rbp), %rax
	movq	%rax, %rdi
	call	_ZN14tear_down_taskC1Ev
	leaq	-128(%rbp), %rdx
	leaq	-48(%rbp), %rax
	movq	%rdx, %rsi
	movq	%rax, %rdi
	call	_ZNSt6vectorI14tear_down_taskSaIS0_EE9push_backEOS0_
	addl	$1, -188(%rbp)
	jmp	.L185
.L184:
	leaq	-48(%rbp), %rax
	movq	%rax, %rdi
	call	_ZNSt6vectorI14tear_down_taskSaIS0_EE3endEv
	movq	%rax, %rbx
	leaq	-48(%rbp), %rax
	movq	%rax, %rdi
	call	_ZNSt6vectorI14tear_down_taskSaIS0_EE5beginEv
	movq	%rax, %rcx
	leaq	-128(%rbp), %rax
	movq	%rax, %rdx
	movq	%rbx, %rsi
	movq	%rcx, %rdi
	call	_ZN3tbb17parallel_for_eachIN9__gnu_cxx17__normal_iteratorIP14tear_down_taskSt6vectorIS3_SaIS3_EEEE7invokerIS3_EEEvT_SB_RKT0_
	leaq	.LC15(%rip), %rsi
	leaq	_ZSt4cout(%rip), %rdi
	call	_ZStlsISt11char_traitsIcEERSt13basic_ostreamIcT_ES5_PKc@PLT
	movq	%rax, %rdx
	movq	-160(%rbp), %rax
	movq	%rax, -216(%rbp)
	movsd	-216(%rbp), %xmm0
	movq	%rdx, %rdi
	call	_ZNSolsEd@PLT
	leaq	.LC16(%rip), %rsi
	movq	%rax, %rdi
	call	_ZStlsISt11char_traitsIcEERSt13basic_ostreamIcT_ES5_PKc@PLT
	movq	%rax, %rdx
	movq	_ZSt4endlIcSt11char_traitsIcEERSt13basic_ostreamIT_T0_ES6_@GOTPCREL(%rip), %rax
	movq	%rax, %rsi
	movq	%rdx, %rdi
	call	_ZNSolsEPFRSoS_E@PLT
	leaq	.LC14(%rip), %rsi
	movq	%rax, %rdi
	call	_ZStlsISt11char_traitsIcEERSt13basic_ostreamIcT_ES5_PKc@PLT
	movq	%rax, %rdx
	movq	_ZSt4endlIcSt11char_traitsIcEERSt13basic_ostreamIT_T0_ES6_@GOTPCREL(%rip), %rax
	movq	%rax, %rsi
	movq	%rdx, %rdi
	call	_ZNSolsEPFRSoS_E@PLT
	movl	-140(%rbp), %eax
	movl	%eax, %eax
	testq	%rax, %rax
	js	.L186
	cvtsi2sdq	%rax, %xmm1
	jmp	.L187
.L186:
	movq	%rax, %rdx
	shrq	%rdx
	andl	$1, %eax
	orq	%rax, %rdx
	cvtsi2sdq	%rdx, %xmm0
	movapd	%xmm0, %xmm1
	addsd	%xmm0, %xmm1
.L187:
	movl	-144(%rbp), %eax
	movl	%eax, %eax
	testq	%rax, %rax
	js	.L188
	cvtsi2sdq	%rax, %xmm0
	jmp	.L189
.L188:
	movq	%rax, %rdx
	shrq	%rdx
	andl	$1, %eax
	orq	%rax, %rdx
	cvtsi2sdq	%rdx, %xmm0
	addsd	%xmm0, %xmm0
.L189:
	mulsd	%xmm1, %xmm0
	movsd	.LC17(%rip), %xmm1
	divsd	%xmm1, %xmm0
	divsd	-160(%rbp), %xmm0
	movsd	%xmm0, -152(%rbp)
	leaq	.LC18(%rip), %rsi
	leaq	_ZSt4cout(%rip), %rdi
	call	_ZStlsISt11char_traitsIcEERSt13basic_ostreamIcT_ES5_PKc@PLT
	movq	%rax, %rdx
	movq	-152(%rbp), %rax
	movq	%rax, -216(%rbp)
	movsd	-216(%rbp), %xmm0
	movq	%rdx, %rdi
	call	_ZNSolsEd@PLT
	leaq	.LC19(%rip), %rsi
	movq	%rax, %rdi
	call	_ZStlsISt11char_traitsIcEERSt13basic_ostreamIcT_ES5_PKc@PLT
	movq	%rax, %rdx
	movq	_ZSt4endlIcSt11char_traitsIcEERSt13basic_ostreamIT_T0_ES6_@GOTPCREL(%rip), %rax
	movq	%rax, %rsi
	movq	%rdx, %rdi
	call	_ZNSolsEPFRSoS_E@PLT
	leaq	.LC14(%rip), %rsi
	movq	%rax, %rdi
	call	_ZStlsISt11char_traitsIcEERSt13basic_ostreamIcT_ES5_PKc@PLT
	movq	%rax, %rdx
	movq	_ZSt4endlIcSt11char_traitsIcEERSt13basic_ostreamIT_T0_ES6_@GOTPCREL(%rip), %rax
	movq	%rax, %rsi
	movq	%rdx, %rdi
	call	_ZNSolsEPFRSoS_E@PLT
.LEHE10:
	movl	$0, %ebx
	leaq	-176(%rbp), %rax
	movq	%rax, %rdi
	call	_ZN3tbb19task_scheduler_initD1Ev
	leaq	-48(%rbp), %rax
	movq	%rax, %rdi
	call	_ZNSt6vectorI14tear_down_taskSaIS0_EED1Ev
	leaq	-80(%rbp), %rax
	movq	%rax, %rdi
	call	_ZNSt6vectorI11access_taskSaIS0_EED1Ev
	leaq	-112(%rbp), %rax
	movq	%rax, %rdi
	call	_ZNSt6vectorI9init_taskSaIS0_EED1Ev
	movl	%ebx, %eax
	movq	-24(%rbp), %rcx
	xorq	%fs:40, %rcx
	je	.L193
	jmp	.L196
.L195:
	movq	%rax, %rbx
	leaq	-176(%rbp), %rax
	movq	%rax, %rdi
	call	_ZN3tbb19task_scheduler_initD1Ev
	jmp	.L192
.L194:
	movq	%rax, %rbx
.L192:
	leaq	-48(%rbp), %rax
	movq	%rax, %rdi
	call	_ZNSt6vectorI14tear_down_taskSaIS0_EED1Ev
	leaq	-80(%rbp), %rax
	movq	%rax, %rdi
	call	_ZNSt6vectorI11access_taskSaIS0_EED1Ev
	leaq	-112(%rbp), %rax
	movq	%rax, %rdi
	call	_ZNSt6vectorI9init_taskSaIS0_EED1Ev
	movq	%rbx, %rax
	movq	%rax, %rdi
.LEHB11:
	call	_Unwind_Resume@PLT
.LEHE11:
.L196:
	call	__stack_chk_fail@PLT
.L193:
	addq	$216, %rsp
	popq	%rbx
	popq	%rbp
	.cfi_def_cfa 7, 8
	ret
	.cfi_endproc
.LFE4993:
	.section	.gcc_except_table,"a",@progbits
.LLSDA4993:
	.byte	0xff
	.byte	0xff
	.byte	0x1
	.uleb128 .LLSDACSE4993-.LLSDACSB4993
.LLSDACSB4993:
	.uleb128 .LEHB9-.LFB4993
	.uleb128 .LEHE9-.LEHB9
	.uleb128 .L194-.LFB4993
	.uleb128 0
	.uleb128 .LEHB10-.LFB4993
	.uleb128 .LEHE10-.LEHB10
	.uleb128 .L195-.LFB4993
	.uleb128 0
	.uleb128 .LEHB11-.LFB4993
	.uleb128 .LEHE11-.LEHB11
	.uleb128 0
	.uleb128 0
.LLSDACSE4993:
	.text
	.size	main, .-main
	.section	.text._ZN3tbb8internal11atomic_implImE18store_with_releaseEm,"axG",@progbits,_ZN3tbb8internal11atomic_implImE18store_with_releaseEm,comdat
	.align 2
	.weak	_ZN3tbb8internal11atomic_implImE18store_with_releaseEm
	.type	_ZN3tbb8internal11atomic_implImE18store_with_releaseEm, @function
_ZN3tbb8internal11atomic_implImE18store_with_releaseEm:
.LFB5262:
	.cfi_startproc
	pushq	%rbp
	.cfi_def_cfa_offset 16
	.cfi_offset 6, -16
	movq	%rsp, %rbp
	.cfi_def_cfa_register 6
	pushq	%rbx
	subq	$24, %rsp
	.cfi_offset 3, -24
	movq	%rdi, -24(%rbp)
	movq	%rsi, -32(%rbp)
	movq	-32(%rbp), %rax
	movq	%rax, %rdi
	call	_ZN3tbb8internal11atomic_implImE7to_bitsImEENS2_9converterIT_E9bits_typeES5_
	movq	%rax, %rbx
	movq	-24(%rbp), %rax
	movq	%rax, %rdi
	call	_ZN3tbb8internal11atomic_implImE11to_bits_refImEERNS2_9converterIT_E9bits_typeERS5_
	movq	%rbx, %rsi
	movq	%rax, %rdi
	call	_ZN3tbb8internal24__TBB_store_with_releaseIllEEvRVT_T0_
	movq	-32(%rbp), %rax
	addq	$24, %rsp
	popq	%rbx
	popq	%rbp
	.cfi_def_cfa 7, 8
	ret
	.cfi_endproc
.LFE5262:
	.size	_ZN3tbb8internal11atomic_implImE18store_with_releaseEm, .-_ZN3tbb8internal11atomic_implImE18store_with_releaseEm
	.section	.text._ZN3tbb8internal25concurrent_vector_base_v39segment_t5storeILNS_16memory_semanticsE3EEEvNS1_16segment_not_usedE,"axG",@progbits,_ZN3tbb8internal25concurrent_vector_base_v39segment_t5storeILNS_16memory_semanticsE3EEEvNS1_16segment_not_usedE,comdat
	.align 2
	.weak	_ZN3tbb8internal25concurrent_vector_base_v39segment_t5storeILNS_16memory_semanticsE3EEEvNS1_16segment_not_usedE
	.type	_ZN3tbb8internal25concurrent_vector_base_v39segment_t5storeILNS_16memory_semanticsE3EEEvNS1_16segment_not_usedE, @function
_ZN3tbb8internal25concurrent_vector_base_v39segment_t5storeILNS_16memory_semanticsE3EEEvNS1_16segment_not_usedE:
.LFB5314:
	.cfi_startproc
	pushq	%rbp
	.cfi_def_cfa_offset 16
	.cfi_offset 6, -16
	movq	%rsp, %rbp
	.cfi_def_cfa_register 6
	subq	$16, %rsp
	movq	%rdi, -8(%rbp)
	movq	-8(%rbp), %rax
	movl	$0, %esi
	movq	%rax, %rdi
	call	_ZN3tbb8internal11atomic_implIPvE5storeILNS_16memory_semanticsE3EEEvS2_
	nop
	leave
	.cfi_def_cfa 7, 8
	ret
	.cfi_endproc
.LFE5314:
	.size	_ZN3tbb8internal25concurrent_vector_base_v39segment_t5storeILNS_16memory_semanticsE3EEEvNS1_16segment_not_usedE, .-_ZN3tbb8internal25concurrent_vector_base_v39segment_t5storeILNS_16memory_semanticsE3EEEvNS1_16segment_not_usedE
	.section	.text._ZNK3tbb8internal11atomic_implIPvE4loadILNS_16memory_semanticsE3EEES2_v,"axG",@progbits,_ZNK3tbb8internal11atomic_implIPvE4loadILNS_16memory_semanticsE3EEES2_v,comdat
	.align 2
	.weak	_ZNK3tbb8internal11atomic_implIPvE4loadILNS_16memory_semanticsE3EEES2_v
	.type	_ZNK3tbb8internal11atomic_implIPvE4loadILNS_16memory_semanticsE3EEES2_v, @function
_ZNK3tbb8internal11atomic_implIPvE4loadILNS_16memory_semanticsE3EEES2_v:
.LFB5315:
	.cfi_startproc
	pushq	%rbp
	.cfi_def_cfa_offset 16
	.cfi_offset 6, -16
	movq	%rsp, %rbp
	.cfi_def_cfa_register 6
	subq	$16, %rsp
	movq	%rdi, -8(%rbp)
	movq	-8(%rbp), %rax
	movq	%rax, %rdi
	call	_ZN3tbb8internal11atomic_implIPvE11to_bits_refIKS2_EERNS3_9converterIT_E9bits_typeERS7_
	movq	%rax, %rdi
	call	_ZN3tbb8internal24atomic_load_store_traitsILNS_16memory_semanticsE3EE4loadIlEET_RVKS5_
	movq	%rax, %rdi
	call	_ZN3tbb8internal11atomic_implIPvE8to_valueIS2_EET_NS3_9converterIS5_E9bits_typeE
	leave
	.cfi_def_cfa 7, 8
	ret
	.cfi_endproc
.LFE5315:
	.size	_ZNK3tbb8internal11atomic_implIPvE4loadILNS_16memory_semanticsE3EEES2_v, .-_ZNK3tbb8internal11atomic_implIPvE4loadILNS_16memory_semanticsE3EEES2_v
	.section	.text._ZN3tbb8internal11atomic_implIPvE5storeILNS_16memory_semanticsE3EEEvS2_,"axG",@progbits,_ZN3tbb8internal11atomic_implIPvE5storeILNS_16memory_semanticsE3EEEvS2_,comdat
	.align 2
	.weak	_ZN3tbb8internal11atomic_implIPvE5storeILNS_16memory_semanticsE3EEEvS2_
	.type	_ZN3tbb8internal11atomic_implIPvE5storeILNS_16memory_semanticsE3EEEvS2_, @function
_ZN3tbb8internal11atomic_implIPvE5storeILNS_16memory_semanticsE3EEEvS2_:
.LFB5316:
	.cfi_startproc
	pushq	%rbp
	.cfi_def_cfa_offset 16
	.cfi_offset 6, -16
	movq	%rsp, %rbp
	.cfi_def_cfa_register 6
	pushq	%rbx
	subq	$24, %rsp
	.cfi_offset 3, -24
	movq	%rdi, -24(%rbp)
	movq	%rsi, -32(%rbp)
	movq	-32(%rbp), %rax
	movq	%rax, %rdi
	call	_ZN3tbb8internal11atomic_implIPvE7to_bitsIS2_EENS3_9converterIT_E9bits_typeES6_
	movq	%rax, %rbx
	movq	-24(%rbp), %rax
	movq	%rax, %rdi
	call	_ZN3tbb8internal11atomic_implIPvE11to_bits_refIS2_EERNS3_9converterIT_E9bits_typeERS6_
	movq	%rbx, %rsi
	movq	%rax, %rdi
	call	_ZN3tbb8internal24atomic_load_store_traitsILNS_16memory_semanticsE3EE5storeIlEEvRVT_S5_
	nop
	addq	$24, %rsp
	popq	%rbx
	popq	%rbp
	.cfi_def_cfa 7, 8
	ret
	.cfi_endproc
.LFE5316:
	.size	_ZN3tbb8internal11atomic_implIPvE5storeILNS_16memory_semanticsE3EEEvS2_, .-_ZN3tbb8internal11atomic_implIPvE5storeILNS_16memory_semanticsE3EEEvS2_
	.section	.text._ZN3tbb8internal11atomic_implImE5storeILNS_16memory_semanticsE3EEEvm,"axG",@progbits,_ZN3tbb8internal11atomic_implImE5storeILNS_16memory_semanticsE3EEEvm,comdat
	.align 2
	.weak	_ZN3tbb8internal11atomic_implImE5storeILNS_16memory_semanticsE3EEEvm
	.type	_ZN3tbb8internal11atomic_implImE5storeILNS_16memory_semanticsE3EEEvm, @function
_ZN3tbb8internal11atomic_implImE5storeILNS_16memory_semanticsE3EEEvm:
.LFB5318:
	.cfi_startproc
	pushq	%rbp
	.cfi_def_cfa_offset 16
	.cfi_offset 6, -16
	movq	%rsp, %rbp
	.cfi_def_cfa_register 6
	pushq	%rbx
	subq	$24, %rsp
	.cfi_offset 3, -24
	movq	%rdi, -24(%rbp)
	movq	%rsi, -32(%rbp)
	movq	-32(%rbp), %rax
	movq	%rax, %rdi
	call	_ZN3tbb8internal11atomic_implImE7to_bitsImEENS2_9converterIT_E9bits_typeES5_
	movq	%rax, %rbx
	movq	-24(%rbp), %rax
	movq	%rax, %rdi
	call	_ZN3tbb8internal11atomic_implImE11to_bits_refImEERNS2_9converterIT_E9bits_typeERS5_
	movq	%rbx, %rsi
	movq	%rax, %rdi
	call	_ZN3tbb8internal24atomic_load_store_traitsILNS_16memory_semanticsE3EE5storeIlEEvRVT_S5_
	nop
	addq	$24, %rsp
	popq	%rbx
	popq	%rbp
	.cfi_def_cfa 7, 8
	ret
	.cfi_endproc
.LFE5318:
	.size	_ZN3tbb8internal11atomic_implImE5storeILNS_16memory_semanticsE3EEEvm, .-_ZN3tbb8internal11atomic_implImE5storeILNS_16memory_semanticsE3EEEvm
	.section	.text._ZN3tbb8internal11atomic_implIPNS0_25concurrent_vector_base_v39segment_tEE5storeILNS_16memory_semanticsE3EEEvS4_,"axG",@progbits,_ZN3tbb8internal11atomic_implIPNS0_25concurrent_vector_base_v39segment_tEE5storeILNS_16memory_semanticsE3EEEvS4_,comdat
	.align 2
	.weak	_ZN3tbb8internal11atomic_implIPNS0_25concurrent_vector_base_v39segment_tEE5storeILNS_16memory_semanticsE3EEEvS4_
	.type	_ZN3tbb8internal11atomic_implIPNS0_25concurrent_vector_base_v39segment_tEE5storeILNS_16memory_semanticsE3EEEvS4_, @function
_ZN3tbb8internal11atomic_implIPNS0_25concurrent_vector_base_v39segment_tEE5storeILNS_16memory_semanticsE3EEEvS4_:
.LFB5319:
	.cfi_startproc
	pushq	%rbp
	.cfi_def_cfa_offset 16
	.cfi_offset 6, -16
	movq	%rsp, %rbp
	.cfi_def_cfa_register 6
	pushq	%rbx
	subq	$24, %rsp
	.cfi_offset 3, -24
	movq	%rdi, -24(%rbp)
	movq	%rsi, -32(%rbp)
	movq	-32(%rbp), %rax
	movq	%rax, %rdi
	call	_ZN3tbb8internal11atomic_implIPNS0_25concurrent_vector_base_v39segment_tEE7to_bitsIS4_EENS5_9converterIT_E9bits_typeES8_
	movq	%rax, %rbx
	movq	-24(%rbp), %rax
	movq	%rax, %rdi
	call	_ZN3tbb8internal11atomic_implIPNS0_25concurrent_vector_base_v39segment_tEE11to_bits_refIS4_EERNS5_9converterIT_E9bits_typeERS8_
	movq	%rbx, %rsi
	movq	%rax, %rdi
	call	_ZN3tbb8internal24atomic_load_store_traitsILNS_16memory_semanticsE3EE5storeIlEEvRVT_S5_
	nop
	addq	$24, %rsp
	popq	%rbx
	popq	%rbp
	.cfi_def_cfa 7, 8
	ret
	.cfi_endproc
.LFE5319:
	.size	_ZN3tbb8internal11atomic_implIPNS0_25concurrent_vector_base_v39segment_tEE5storeILNS_16memory_semanticsE3EEEvS4_, .-_ZN3tbb8internal11atomic_implIPNS0_25concurrent_vector_base_v39segment_tEE5storeILNS_16memory_semanticsE3EEEvS4_
	.section	.text._ZN3tbb10interface510tbb_hasherImEEmRKT_,"axG",@progbits,_ZN3tbb10interface510tbb_hasherImEEmRKT_,comdat
	.weak	_ZN3tbb10interface510tbb_hasherImEEmRKT_
	.type	_ZN3tbb10interface510tbb_hasherImEEmRKT_, @function
_ZN3tbb10interface510tbb_hasherImEEmRKT_:
.LFB5321:
	.cfi_startproc
	pushq	%rbp
	.cfi_def_cfa_offset 16
	.cfi_offset 6, -16
	movq	%rsp, %rbp
	.cfi_def_cfa_register 6
	movq	%rdi, -8(%rbp)
	movq	-8(%rbp), %rax
	movq	(%rax), %rdx
	movabsq	$-7046029254386353131, %rax
	imulq	%rdx, %rax
	popq	%rbp
	.cfi_def_cfa 7, 8
	ret
	.cfi_endproc
.LFE5321:
	.size	_ZN3tbb10interface510tbb_hasherImEEmRKT_, .-_ZN3tbb10interface510tbb_hasherImEEmRKT_
	.section	.text._ZN3tbb8internal9as_atomicImEERNS_6atomicIT_EERS3_,"axG",@progbits,_ZN3tbb8internal9as_atomicImEERNS_6atomicIT_EERS3_,comdat
	.weak	_ZN3tbb8internal9as_atomicImEERNS_6atomicIT_EERS3_
	.type	_ZN3tbb8internal9as_atomicImEERNS_6atomicIT_EERS3_, @function
_ZN3tbb8internal9as_atomicImEERNS_6atomicIT_EERS3_:
.LFB5322:
	.cfi_startproc
	pushq	%rbp
	.cfi_def_cfa_offset 16
	.cfi_offset 6, -16
	movq	%rsp, %rbp
	.cfi_def_cfa_register 6
	movq	%rdi, -8(%rbp)
	movq	-8(%rbp), %rax
	popq	%rbp
	.cfi_def_cfa 7, 8
	ret
	.cfi_endproc
.LFE5322:
	.size	_ZN3tbb8internal9as_atomicImEERNS_6atomicIT_EERS3_, .-_ZN3tbb8internal9as_atomicImEERNS_6atomicIT_EERS3_
	.section	.text._ZN3tbb8internal11atomic_implImE16compare_and_swapEmm,"axG",@progbits,_ZN3tbb8internal11atomic_implImE16compare_and_swapEmm,comdat
	.align 2
	.weak	_ZN3tbb8internal11atomic_implImE16compare_and_swapEmm
	.type	_ZN3tbb8internal11atomic_implImE16compare_and_swapEmm, @function
_ZN3tbb8internal11atomic_implImE16compare_and_swapEmm:
.LFB5323:
	.cfi_startproc
	pushq	%rbp
	.cfi_def_cfa_offset 16
	.cfi_offset 6, -16
	movq	%rsp, %rbp
	.cfi_def_cfa_register 6
	subq	$32, %rsp
	movq	%rdi, -8(%rbp)
	movq	%rsi, -16(%rbp)
	movq	%rdx, -24(%rbp)
	movq	-24(%rbp), %rdx
	movq	-16(%rbp), %rcx
	movq	-8(%rbp), %rax
	movq	%rcx, %rsi
	movq	%rax, %rdi
	call	_ZN3tbb8internal11atomic_implImE16compare_and_swapILNS_16memory_semanticsE0EEEmmm
	leave
	.cfi_def_cfa 7, 8
	ret
	.cfi_endproc
.LFE5323:
	.size	_ZN3tbb8internal11atomic_implImE16compare_and_swapEmm, .-_ZN3tbb8internal11atomic_implImE16compare_and_swapEmm
	.section	.text._ZN3tbb10interface68internal8ets_baseILNS_18ets_key_usage_typeE1EEC2Ev,"axG",@progbits,_ZN3tbb10interface68internal8ets_baseILNS_18ets_key_usage_typeE1EEC5Ev,comdat
	.align 2
	.weak	_ZN3tbb10interface68internal8ets_baseILNS_18ets_key_usage_typeE1EEC2Ev
	.type	_ZN3tbb10interface68internal8ets_baseILNS_18ets_key_usage_typeE1EEC2Ev, @function
_ZN3tbb10interface68internal8ets_baseILNS_18ets_key_usage_typeE1EEC2Ev:
.LFB5327:
	.cfi_startproc
	pushq	%rbp
	.cfi_def_cfa_offset 16
	.cfi_offset 6, -16
	movq	%rsp, %rbp
	.cfi_def_cfa_register 6
	subq	$16, %rsp
	movq	%rdi, -8(%rbp)
	movq	-8(%rbp), %rax
	movq	%rax, %rdi
	call	_ZN3tbb8internal7no_copyC2Ev
	leaq	16+_ZTVN3tbb10interface68internal8ets_baseILNS_18ets_key_usage_typeE1EEE(%rip), %rdx
	movq	-8(%rbp), %rax
	movq	%rdx, (%rax)
	movq	-8(%rbp), %rax
	addq	$8, %rax
	movl	$0, %esi
	movq	%rax, %rdi
	call	_ZN3tbb6atomicIPNS_10interface68internal8ets_baseILNS_18ets_key_usage_typeE1EE5arrayEEaSES7_
	movq	-8(%rbp), %rax
	addq	$16, %rax
	movl	$0, %esi
	movq	%rax, %rdi
	call	_ZN3tbb6atomicImEaSEm
	nop
	leave
	.cfi_def_cfa 7, 8
	ret
	.cfi_endproc
.LFE5327:
	.size	_ZN3tbb10interface68internal8ets_baseILNS_18ets_key_usage_typeE1EEC2Ev, .-_ZN3tbb10interface68internal8ets_baseILNS_18ets_key_usage_typeE1EEC2Ev
	.weak	_ZN3tbb10interface68internal8ets_baseILNS_18ets_key_usage_typeE1EEC1Ev
	.set	_ZN3tbb10interface68internal8ets_baseILNS_18ets_key_usage_typeE1EEC1Ev,_ZN3tbb10interface68internal8ets_baseILNS_18ets_key_usage_typeE1EEC2Ev
	.section	.text._ZN3tbb10interface68internal8ets_baseILNS_18ets_key_usage_typeE1EED2Ev,"axG",@progbits,_ZN3tbb10interface68internal8ets_baseILNS_18ets_key_usage_typeE1EED5Ev,comdat
	.align 2
	.weak	_ZN3tbb10interface68internal8ets_baseILNS_18ets_key_usage_typeE1EED2Ev
	.type	_ZN3tbb10interface68internal8ets_baseILNS_18ets_key_usage_typeE1EED2Ev, @function
_ZN3tbb10interface68internal8ets_baseILNS_18ets_key_usage_typeE1EED2Ev:
.LFB5330:
	.cfi_startproc
	pushq	%rbp
	.cfi_def_cfa_offset 16
	.cfi_offset 6, -16
	movq	%rsp, %rbp
	.cfi_def_cfa_register 6
	movq	%rdi, -8(%rbp)
	leaq	16+_ZTVN3tbb10interface68internal8ets_baseILNS_18ets_key_usage_typeE1EEE(%rip), %rdx
	movq	-8(%rbp), %rax
	movq	%rdx, (%rax)
	nop
	popq	%rbp
	.cfi_def_cfa 7, 8
	ret
	.cfi_endproc
.LFE5330:
	.size	_ZN3tbb10interface68internal8ets_baseILNS_18ets_key_usage_typeE1EED2Ev, .-_ZN3tbb10interface68internal8ets_baseILNS_18ets_key_usage_typeE1EED2Ev
	.weak	_ZN3tbb10interface68internal8ets_baseILNS_18ets_key_usage_typeE1EED1Ev
	.set	_ZN3tbb10interface68internal8ets_baseILNS_18ets_key_usage_typeE1EED1Ev,_ZN3tbb10interface68internal8ets_baseILNS_18ets_key_usage_typeE1EED2Ev
	.section	.text._ZN3tbb10interface68internal8ets_baseILNS_18ets_key_usage_typeE1EED0Ev,"axG",@progbits,_ZN3tbb10interface68internal8ets_baseILNS_18ets_key_usage_typeE1EED5Ev,comdat
	.align 2
	.weak	_ZN3tbb10interface68internal8ets_baseILNS_18ets_key_usage_typeE1EED0Ev
	.type	_ZN3tbb10interface68internal8ets_baseILNS_18ets_key_usage_typeE1EED0Ev, @function
_ZN3tbb10interface68internal8ets_baseILNS_18ets_key_usage_typeE1EED0Ev:
.LFB5332:
	.cfi_startproc
	pushq	%rbp
	.cfi_def_cfa_offset 16
	.cfi_offset 6, -16
	movq	%rsp, %rbp
	.cfi_def_cfa_register 6
	subq	$16, %rsp
	movq	%rdi, -8(%rbp)
	movq	-8(%rbp), %rax
	movq	%rax, %rdi
	call	_ZN3tbb10interface68internal8ets_baseILNS_18ets_key_usage_typeE1EED1Ev
	movq	-8(%rbp), %rax
	movl	$24, %esi
	movq	%rax, %rdi
	call	_ZdlPvm@PLT
	leave
	.cfi_def_cfa 7, 8
	ret
	.cfi_endproc
.LFE5332:
	.size	_ZN3tbb10interface68internal8ets_baseILNS_18ets_key_usage_typeE1EED0Ev, .-_ZN3tbb10interface68internal8ets_baseILNS_18ets_key_usage_typeE1EED0Ev
	.section	.text._ZN3tbb10interface68internal8ets_baseILNS_18ets_key_usage_typeE1EE12table_lookupERb,"axG",@progbits,_ZN3tbb10interface68internal8ets_baseILNS_18ets_key_usage_typeE1EE12table_lookupERb,comdat
	.align 2
	.weak	_ZN3tbb10interface68internal8ets_baseILNS_18ets_key_usage_typeE1EE12table_lookupERb
	.type	_ZN3tbb10interface68internal8ets_baseILNS_18ets_key_usage_typeE1EE12table_lookupERb, @function
_ZN3tbb10interface68internal8ets_baseILNS_18ets_key_usage_typeE1EE12table_lookupERb:
.LFB5333:
	.cfi_startproc
	pushq	%rbp
	.cfi_def_cfa_offset 16
	.cfi_offset 6, -16
	movq	%rsp, %rbp
	.cfi_def_cfa_register 6
	subq	$160, %rsp
	movq	%rdi, -152(%rbp)
	movq	%rsi, -160(%rbp)
	movq	%fs:40, %rax
	movq	%rax, -8(%rbp)
	xorl	%eax, %eax
	call	_ZN3tbb15this_tbb_thread6get_idEv
	movq	%rax, -136(%rbp)
	leaq	-137(%rbp), %rax
	movq	%rax, %rdi
	call	_ZN3tbb8tbb_hashINS_8internal13tbb_thread_v32idEEC1Ev
	leaq	-136(%rbp), %rdx
	leaq	-137(%rbp), %rax
	movq	%rdx, %rsi
	movq	%rax, %rdi
	call	_ZNK3tbb8tbb_hashINS_8internal13tbb_thread_v32idEEclERKS3_
	movq	%rax, -80(%rbp)
	movq	-152(%rbp), %rax
	addq	$8, %rax
	movq	%rax, %rdi
	call	_ZNVK3tbb8internal11atomic_implIPNS_10interface68internal8ets_baseILNS_18ets_key_usage_typeE1EE5arrayEEcvS8_Ev
	movq	%rax, -120(%rbp)
.L223:
	cmpq	$0, -120(%rbp)
	je	.L215
	movq	-120(%rbp), %rax
	movq	%rax, %rsi
	movl	$2, %edi
	call	_ZN3tbb8internal15call_itt_notifyENS0_11notify_typeEPv
	movq	-120(%rbp), %rax
	movq	%rax, %rdi
	call	_ZNK3tbb10interface68internal8ets_baseILNS_18ets_key_usage_typeE1EE5array4maskEv
	movq	%rax, -72(%rbp)
	movq	-80(%rbp), %rdx
	movq	-120(%rbp), %rax
	movq	%rdx, %rsi
	movq	%rax, %rdi
	call	_ZNK3tbb10interface68internal8ets_baseILNS_18ets_key_usage_typeE1EE5array5startEm
	movq	%rax, -112(%rbp)
.L222:
	movq	-112(%rbp), %rdx
	movq	-120(%rbp), %rax
	movq	%rdx, %rsi
	movq	%rax, %rdi
	call	_ZN3tbb10interface68internal8ets_baseILNS_18ets_key_usage_typeE1EE5array2atEm
	movq	%rax, -64(%rbp)
	movq	-64(%rbp), %rax
	movq	%rax, %rdi
	call	_ZNK3tbb10interface68internal8ets_baseILNS_18ets_key_usage_typeE1EE4slot5emptyEv
	testb	%al, %al
	jne	.L240
	movq	-136(%rbp), %rdx
	movq	-64(%rbp), %rax
	movq	%rdx, %rsi
	movq	%rax, %rdi
	call	_ZNK3tbb10interface68internal8ets_baseILNS_18ets_key_usage_typeE1EE4slot5matchENS_8internal13tbb_thread_v32idE
	testb	%al, %al
	je	.L218
	movq	-152(%rbp), %rax
	addq	$8, %rax
	movq	%rax, %rdi
	call	_ZNVK3tbb8internal11atomic_implIPNS_10interface68internal8ets_baseILNS_18ets_key_usage_typeE1EE5arrayEEcvS8_Ev
	cmpq	%rax, -120(%rbp)
	sete	%al
	testb	%al, %al
	je	.L219
	movq	-160(%rbp), %rax
	movb	$1, (%rax)
	movq	-64(%rbp), %rax
	movq	8(%rax), %rax
	jmp	.L237
.L219:
	movq	-160(%rbp), %rax
	movb	$1, (%rax)
	movq	-64(%rbp), %rax
	movq	8(%rax), %rax
	movq	%rax, -128(%rbp)
	jmp	.L221
.L218:
	movq	-112(%rbp), %rax
	addq	$1, %rax
	andq	-72(%rbp), %rax
	movq	%rax, -112(%rbp)
	jmp	.L222
.L240:
	nop
	movq	-120(%rbp), %rax
	movq	(%rax), %rax
	movq	%rax, -120(%rbp)
	jmp	.L223
.L215:
	movq	-160(%rbp), %rax
	movb	$0, (%rax)
	movq	-152(%rbp), %rax
	movq	(%rax), %rax
	movq	(%rax), %rax
	movq	-152(%rbp), %rdx
	movq	%rdx, %rdi
	call	*%rax
	movq	%rax, -128(%rbp)
	movq	-152(%rbp), %rax
	addq	$16, %rax
	movq	%rax, %rdi
	call	_ZN3tbb8internal27atomic_impl_with_arithmeticImmcEppEv
	movq	%rax, -56(%rbp)
	movq	-152(%rbp), %rax
	addq	$8, %rax
	movq	%rax, %rdi
	call	_ZNVK3tbb8internal11atomic_implIPNS_10interface68internal8ets_baseILNS_18ets_key_usage_typeE1EE5arrayEEcvS8_Ev
	movq	%rax, -104(%rbp)
	movq	-104(%rbp), %rax
	movq	%rax, %rsi
	movl	$2, %edi
	call	_ZN3tbb8internal15call_itt_notifyENS0_11notify_typeEPv
	cmpq	$0, -104(%rbp)
	je	.L224
	movq	-104(%rbp), %rax
	movq	%rax, %rdi
	call	_ZNK3tbb10interface68internal8ets_baseILNS_18ets_key_usage_typeE1EE5array4sizeEv
	shrq	%rax
	cmpq	%rax, -56(%rbp)
	jbe	.L225
.L224:
	movl	$1, %eax
	jmp	.L226
.L225:
	movl	$0, %eax
.L226:
	testb	%al, %al
	je	.L241
	cmpq	$0, -104(%rbp)
	je	.L227
	movq	-104(%rbp), %rax
	movq	8(%rax), %rax
	jmp	.L228
.L227:
	movl	$2, %eax
.L228:
	movq	%rax, -96(%rbp)
.L230:
	movq	-96(%rbp), %rax
	subl	$1, %eax
	movl	$1, %edx
	movl	%eax, %ecx
	salq	%cl, %rdx
	movq	%rdx, %rax
	cmpq	%rax, -56(%rbp)
	jbe	.L229
	addq	$1, -96(%rbp)
	jmp	.L230
.L229:
	movq	-96(%rbp), %rdx
	movq	-152(%rbp), %rax
	movq	%rdx, %rsi
	movq	%rax, %rdi
	call	_ZN3tbb10interface68internal8ets_baseILNS_18ets_key_usage_typeE1EE8allocateEm
	movq	%rax, -48(%rbp)
.L234:
	movq	-48(%rbp), %rax
	movq	-104(%rbp), %rdx
	movq	%rdx, (%rax)
	movq	-48(%rbp), %rax
	movq	%rax, %rsi
	movl	$3, %edi
	call	_ZN3tbb8internal15call_itt_notifyENS0_11notify_typeEPv
	movq	-152(%rbp), %rax
	leaq	8(%rax), %rcx
	movq	-104(%rbp), %rdx
	movq	-48(%rbp), %rax
	movq	%rax, %rsi
	movq	%rcx, %rdi
	call	_ZN3tbb8internal11atomic_implIPNS_10interface68internal8ets_baseILNS_18ets_key_usage_typeE1EE5arrayEE16compare_and_swapES8_S8_
	movq	%rax, -40(%rbp)
	movq	-40(%rbp), %rax
	cmpq	-104(%rbp), %rax
	je	.L242
	movq	-40(%rbp), %rax
	movq	%rax, %rsi
	movl	$2, %edi
	call	_ZN3tbb8internal15call_itt_notifyENS0_11notify_typeEPv
	movq	-40(%rbp), %rax
	movq	8(%rax), %rax
	cmpq	%rax, -96(%rbp)
	ja	.L233
	movq	-48(%rbp), %rdx
	movq	-152(%rbp), %rax
	movq	%rdx, %rsi
	movq	%rax, %rdi
	call	_ZN3tbb10interface68internal8ets_baseILNS_18ets_key_usage_typeE1EE4freeEPNS4_5arrayE
	jmp	.L221
.L233:
	movq	-40(%rbp), %rax
	movq	%rax, -104(%rbp)
	jmp	.L234
.L241:
	nop
	jmp	.L221
.L242:
	nop
.L221:
	movq	-152(%rbp), %rax
	addq	$8, %rax
	movq	%rax, %rdi
	call	_ZNVK3tbb8internal11atomic_implIPNS_10interface68internal8ets_baseILNS_18ets_key_usage_typeE1EE5arrayEEcvS8_Ev
	movq	%rax, -32(%rbp)
	movq	-32(%rbp), %rax
	movq	%rax, %rsi
	movl	$2, %edi
	call	_ZN3tbb8internal15call_itt_notifyENS0_11notify_typeEPv
	movq	-32(%rbp), %rax
	movq	%rax, %rdi
	call	_ZNK3tbb10interface68internal8ets_baseILNS_18ets_key_usage_typeE1EE5array4maskEv
	movq	%rax, -24(%rbp)
	movq	-80(%rbp), %rdx
	movq	-32(%rbp), %rax
	movq	%rdx, %rsi
	movq	%rax, %rdi
	call	_ZNK3tbb10interface68internal8ets_baseILNS_18ets_key_usage_typeE1EE5array5startEm
	movq	%rax, -88(%rbp)
.L236:
	movq	-88(%rbp), %rdx
	movq	-32(%rbp), %rax
	movq	%rdx, %rsi
	movq	%rax, %rdi
	call	_ZN3tbb10interface68internal8ets_baseILNS_18ets_key_usage_typeE1EE5array2atEm
	movq	%rax, -16(%rbp)
	movq	-16(%rbp), %rax
	movq	%rax, %rdi
	call	_ZNK3tbb10interface68internal8ets_baseILNS_18ets_key_usage_typeE1EE4slot5emptyEv
	testb	%al, %al
	je	.L235
	movq	-136(%rbp), %rdx
	movq	-16(%rbp), %rax
	movq	%rdx, %rsi
	movq	%rax, %rdi
	call	_ZN3tbb10interface68internal8ets_baseILNS_18ets_key_usage_typeE1EE4slot5claimENS_8internal13tbb_thread_v32idE
	testb	%al, %al
	je	.L235
	movq	-16(%rbp), %rax
	movq	-128(%rbp), %rdx
	movq	%rdx, 8(%rax)
	movq	-128(%rbp), %rax
	jmp	.L237
.L235:
	movq	-88(%rbp), %rax
	addq	$1, %rax
	andq	-24(%rbp), %rax
	movq	%rax, -88(%rbp)
	jmp	.L236
.L237:
	movq	-8(%rbp), %rcx
	xorq	%fs:40, %rcx
	je	.L238
	call	__stack_chk_fail@PLT
.L238:
	leave
	.cfi_def_cfa 7, 8
	ret
	.cfi_endproc
.LFE5333:
	.size	_ZN3tbb10interface68internal8ets_baseILNS_18ets_key_usage_typeE1EE12table_lookupERb, .-_ZN3tbb10interface68internal8ets_baseILNS_18ets_key_usage_typeE1EE12table_lookupERb
	.section	.text._ZN3tbb10interface68internal8ets_baseILNS_18ets_key_usage_typeE1EE11table_clearEv,"axG",@progbits,_ZN3tbb10interface68internal8ets_baseILNS_18ets_key_usage_typeE1EE11table_clearEv,comdat
	.align 2
	.weak	_ZN3tbb10interface68internal8ets_baseILNS_18ets_key_usage_typeE1EE11table_clearEv
	.type	_ZN3tbb10interface68internal8ets_baseILNS_18ets_key_usage_typeE1EE11table_clearEv, @function
_ZN3tbb10interface68internal8ets_baseILNS_18ets_key_usage_typeE1EE11table_clearEv:
.LFB5334:
	.cfi_startproc
	pushq	%rbp
	.cfi_def_cfa_offset 16
	.cfi_offset 6, -16
	movq	%rsp, %rbp
	.cfi_def_cfa_register 6
	subq	$32, %rsp
	movq	%rdi, -24(%rbp)
.L245:
	movq	-24(%rbp), %rax
	addq	$8, %rax
	movq	%rax, %rdi
	call	_ZNVK3tbb8internal11atomic_implIPNS_10interface68internal8ets_baseILNS_18ets_key_usage_typeE1EE5arrayEEcvS8_Ev
	movq	%rax, -8(%rbp)
	cmpq	$0, -8(%rbp)
	je	.L244
	movq	-8(%rbp), %rax
	movq	(%rax), %rax
	movq	-24(%rbp), %rdx
	addq	$8, %rdx
	movq	%rax, %rsi
	movq	%rdx, %rdi
	call	_ZN3tbb6atomicIPNS_10interface68internal8ets_baseILNS_18ets_key_usage_typeE1EE5arrayEEaSES7_
	movq	-8(%rbp), %rdx
	movq	-24(%rbp), %rax
	movq	%rdx, %rsi
	movq	%rax, %rdi
	call	_ZN3tbb10interface68internal8ets_baseILNS_18ets_key_usage_typeE1EE4freeEPNS4_5arrayE
	jmp	.L245
.L244:
	movq	-24(%rbp), %rax
	addq	$16, %rax
	movl	$0, %esi
	movq	%rax, %rdi
	call	_ZN3tbb6atomicImEaSEm
	nop
	leave
	.cfi_def_cfa 7, 8
	ret
	.cfi_endproc
.LFE5334:
	.size	_ZN3tbb10interface68internal8ets_baseILNS_18ets_key_usage_typeE1EE11table_clearEv, .-_ZN3tbb10interface68internal8ets_baseILNS_18ets_key_usage_typeE1EE11table_clearEv
	.section	.text._ZN3tbb6atomicIbEaSEb,"axG",@progbits,_ZN3tbb6atomicIbEaSEb,comdat
	.align 2
	.weak	_ZN3tbb6atomicIbEaSEb
	.type	_ZN3tbb6atomicIbEaSEb, @function
_ZN3tbb6atomicIbEaSEb:
.LFB5338:
	.cfi_startproc
	pushq	%rbp
	.cfi_def_cfa_offset 16
	.cfi_offset 6, -16
	movq	%rsp, %rbp
	.cfi_def_cfa_register 6
	subq	$16, %rsp
	movq	%rdi, -8(%rbp)
	movl	%esi, %eax
	movb	%al, -12(%rbp)
	movq	-8(%rbp), %rax
	movzbl	-12(%rbp), %edx
	movl	%edx, %esi
	movq	%rax, %rdi
	call	_ZN3tbb8internal11atomic_implIbE18store_with_releaseEb
	leave
	.cfi_def_cfa 7, 8
	ret
	.cfi_endproc
.LFE5338:
	.size	_ZN3tbb6atomicIbEaSEb, .-_ZN3tbb6atomicIbEaSEb
	.section	.text._ZNVK3tbb8internal11atomic_implIbEcvbEv,"axG",@progbits,_ZNVK3tbb8internal11atomic_implIbEcvbEv,comdat
	.align 2
	.weak	_ZNVK3tbb8internal11atomic_implIbEcvbEv
	.type	_ZNVK3tbb8internal11atomic_implIbEcvbEv, @function
_ZNVK3tbb8internal11atomic_implIbEcvbEv:
.LFB5339:
	.cfi_startproc
	pushq	%rbp
	.cfi_def_cfa_offset 16
	.cfi_offset 6, -16
	movq	%rsp, %rbp
	.cfi_def_cfa_register 6
	subq	$16, %rsp
	movq	%rdi, -8(%rbp)
	movq	-8(%rbp), %rax
	movq	%rax, %rdi
	call	_ZN3tbb8internal11atomic_implIbE11to_bits_refIVKbEERNS2_9converterIT_E9bits_typeERS6_
	movq	%rax, %rdi
	call	_ZN3tbb8internal23__TBB_load_with_acquireIaEET_RVKS2_
	movsbl	%al, %eax
	movl	%eax, %edi
	call	_ZN3tbb8internal11atomic_implIbE8to_valueIbEET_NS2_9converterIS4_E9bits_typeE
	leave
	.cfi_def_cfa 7, 8
	ret
	.cfi_endproc
.LFE5339:
	.size	_ZNVK3tbb8internal11atomic_implIbEcvbEv, .-_ZNVK3tbb8internal11atomic_implIbEcvbEv
	.section	.text._ZN3tbb10interface98internal24balancing_partition_typeINS1_13adaptive_modeINS1_19auto_partition_typeEEEEC2Ev,"axG",@progbits,_ZN3tbb10interface98internal24balancing_partition_typeINS1_13adaptive_modeINS1_19auto_partition_typeEEEEC5Ev,comdat
	.align 2
	.weak	_ZN3tbb10interface98internal24balancing_partition_typeINS1_13adaptive_modeINS1_19auto_partition_typeEEEEC2Ev
	.type	_ZN3tbb10interface98internal24balancing_partition_typeINS1_13adaptive_modeINS1_19auto_partition_typeEEEEC2Ev, @function
_ZN3tbb10interface98internal24balancing_partition_typeINS1_13adaptive_modeINS1_19auto_partition_typeEEEEC2Ev:
.LFB5341:
	.cfi_startproc
	pushq	%rbp
	.cfi_def_cfa_offset 16
	.cfi_offset 6, -16
	movq	%rsp, %rbp
	.cfi_def_cfa_register 6
	subq	$16, %rsp
	movq	%rdi, -8(%rbp)
	movq	-8(%rbp), %rax
	movq	%rax, %rdi
	call	_ZN3tbb10interface98internal26unbalancing_partition_typeINS1_13adaptive_modeINS1_19auto_partition_typeEEEEC2Ev
	movq	-8(%rbp), %rax
	movl	$0, 8(%rax)
	movq	-8(%rbp), %rax
	movb	$5, 12(%rax)
	nop
	leave
	.cfi_def_cfa 7, 8
	ret
	.cfi_endproc
.LFE5341:
	.size	_ZN3tbb10interface98internal24balancing_partition_typeINS1_13adaptive_modeINS1_19auto_partition_typeEEEEC2Ev, .-_ZN3tbb10interface98internal24balancing_partition_typeINS1_13adaptive_modeINS1_19auto_partition_typeEEEEC2Ev
	.weak	_ZN3tbb10interface98internal24balancing_partition_typeINS1_13adaptive_modeINS1_19auto_partition_typeEEEEC1Ev
	.set	_ZN3tbb10interface98internal24balancing_partition_typeINS1_13adaptive_modeINS1_19auto_partition_typeEEEEC1Ev,_ZN3tbb10interface98internal24balancing_partition_typeINS1_13adaptive_modeINS1_19auto_partition_typeEEEEC2Ev
	.section	.text._ZN3tbb10interface98internal24balancing_partition_typeINS1_13adaptive_modeINS1_19auto_partition_typeEEEEC2ERS6_NS_5splitE,"axG",@progbits,_ZN3tbb10interface98internal24balancing_partition_typeINS1_13adaptive_modeINS1_19auto_partition_typeEEEEC5ERS6_NS_5splitE,comdat
	.align 2
	.weak	_ZN3tbb10interface98internal24balancing_partition_typeINS1_13adaptive_modeINS1_19auto_partition_typeEEEEC2ERS6_NS_5splitE
	.type	_ZN3tbb10interface98internal24balancing_partition_typeINS1_13adaptive_modeINS1_19auto_partition_typeEEEEC2ERS6_NS_5splitE, @function
_ZN3tbb10interface98internal24balancing_partition_typeINS1_13adaptive_modeINS1_19auto_partition_typeEEEEC2ERS6_NS_5splitE:
.LFB5344:
	.cfi_startproc
	pushq	%rbp
	.cfi_def_cfa_offset 16
	.cfi_offset 6, -16
	movq	%rsp, %rbp
	.cfi_def_cfa_register 6
	subq	$32, %rsp
	movq	%rdi, -24(%rbp)
	movq	%rsi, -32(%rbp)
	movq	%fs:40, %rax
	movq	%rax, -8(%rbp)
	xorl	%eax, %eax
	movq	-24(%rbp), %rax
	movq	-32(%rbp), %rdx
	subq	$8, %rsp
	pushq	%rcx
	movq	%rdx, %rsi
	movq	%rax, %rdi
	call	_ZN3tbb10interface98internal26unbalancing_partition_typeINS1_13adaptive_modeINS1_19auto_partition_typeEEEEC2ERS6_NS_5splitE
	addq	$16, %rsp
	movq	-24(%rbp), %rax
	movl	$2, 8(%rax)
	movq	-32(%rbp), %rax
	movzbl	12(%rax), %edx
	movq	-24(%rbp), %rax
	movb	%dl, 12(%rax)
	nop
	movq	-8(%rbp), %rax
	xorq	%fs:40, %rax
	je	.L252
	call	__stack_chk_fail@PLT
.L252:
	leave
	.cfi_def_cfa 7, 8
	ret
	.cfi_endproc
.LFE5344:
	.size	_ZN3tbb10interface98internal24balancing_partition_typeINS1_13adaptive_modeINS1_19auto_partition_typeEEEEC2ERS6_NS_5splitE, .-_ZN3tbb10interface98internal24balancing_partition_typeINS1_13adaptive_modeINS1_19auto_partition_typeEEEEC2ERS6_NS_5splitE
	.weak	_ZN3tbb10interface98internal24balancing_partition_typeINS1_13adaptive_modeINS1_19auto_partition_typeEEEEC1ERS6_NS_5splitE
	.set	_ZN3tbb10interface98internal24balancing_partition_typeINS1_13adaptive_modeINS1_19auto_partition_typeEEEEC1ERS6_NS_5splitE,_ZN3tbb10interface98internal24balancing_partition_typeINS1_13adaptive_modeINS1_19auto_partition_typeEEEEC2ERS6_NS_5splitE
	.section	.text._ZN3tbb8internal14poison_pointerINS0_9schedulerEEEvRPT_,"axG",@progbits,_ZN3tbb8internal14poison_pointerINS0_9schedulerEEEvRPT_,comdat
	.weak	_ZN3tbb8internal14poison_pointerINS0_9schedulerEEEvRPT_
	.type	_ZN3tbb8internal14poison_pointerINS0_9schedulerEEEvRPT_, @function
_ZN3tbb8internal14poison_pointerINS0_9schedulerEEEvRPT_:
.LFB5364:
	.cfi_startproc
	pushq	%rbp
	.cfi_def_cfa_offset 16
	.cfi_offset 6, -16
	movq	%rsp, %rbp
	.cfi_def_cfa_register 6
	movq	%rdi, -8(%rbp)
	nop
	popq	%rbp
	.cfi_def_cfa 7, 8
	ret
	.cfi_endproc
.LFE5364:
	.size	_ZN3tbb8internal14poison_pointerINS0_9schedulerEEEvRPT_, .-_ZN3tbb8internal14poison_pointerINS0_9schedulerEEEvRPT_
	.section	.text._ZSt7forwardIjEOT_RNSt16remove_referenceIS0_E4typeE,"axG",@progbits,_ZSt7forwardIjEOT_RNSt16remove_referenceIS0_E4typeE,comdat
	.weak	_ZSt7forwardIjEOT_RNSt16remove_referenceIS0_E4typeE
	.type	_ZSt7forwardIjEOT_RNSt16remove_referenceIS0_E4typeE, @function
_ZSt7forwardIjEOT_RNSt16remove_referenceIS0_E4typeE:
.LFB5366:
	.cfi_startproc
	pushq	%rbp
	.cfi_def_cfa_offset 16
	.cfi_offset 6, -16
	movq	%rsp, %rbp
	.cfi_def_cfa_register 6
	movq	%rdi, -8(%rbp)
	movq	-8(%rbp), %rax
	popq	%rbp
	.cfi_def_cfa 7, 8
	ret
	.cfi_endproc
.LFE5366:
	.size	_ZSt7forwardIjEOT_RNSt16remove_referenceIS0_E4typeE, .-_ZSt7forwardIjEOT_RNSt16remove_referenceIS0_E4typeE
	.section	.text._ZN3tbb10interface626enumerable_thread_specificI17thread_local_varsNS_23cache_aligned_allocatorIS2_EELNS_18ets_key_usage_typeE1EEC2IjJEvEEOT_DpOT0_,"axG",@progbits,_ZN3tbb10interface626enumerable_thread_specificI17thread_local_varsNS_23cache_aligned_allocatorIS2_EELNS_18ets_key_usage_typeE1EEC5IjJEvEEOT_DpOT0_,comdat
	.align 2
	.weak	_ZN3tbb10interface626enumerable_thread_specificI17thread_local_varsNS_23cache_aligned_allocatorIS2_EELNS_18ets_key_usage_typeE1EEC2IjJEvEEOT_DpOT0_
	.type	_ZN3tbb10interface626enumerable_thread_specificI17thread_local_varsNS_23cache_aligned_allocatorIS2_EELNS_18ets_key_usage_typeE1EEC2IjJEvEEOT_DpOT0_, @function
_ZN3tbb10interface626enumerable_thread_specificI17thread_local_varsNS_23cache_aligned_allocatorIS2_EELNS_18ets_key_usage_typeE1EEC2IjJEvEEOT_DpOT0_:
.LFB5367:
	.cfi_startproc
	.cfi_personality 0x9b,DW.ref.__gxx_personality_v0
	.cfi_lsda 0x1b,.LLSDA5367
	pushq	%rbp
	.cfi_def_cfa_offset 16
	.cfi_offset 6, -16
	movq	%rsp, %rbp
	.cfi_def_cfa_register 6
	pushq	%rbx
	subq	$40, %rsp
	.cfi_offset 3, -24
	movq	%rdi, -40(%rbp)
	movq	%rsi, -48(%rbp)
	movq	%fs:40, %rax
	movq	%rax, -24(%rbp)
	xorl	%eax, %eax
	movq	-40(%rbp), %rax
	movq	%rax, %rdi
.LEHB12:
	call	_ZN3tbb10interface68internal8ets_baseILNS_18ets_key_usage_typeE1EEC2Ev
.LEHE12:
	leaq	16+_ZTVN3tbb10interface626enumerable_thread_specificI17thread_local_varsNS_23cache_aligned_allocatorIS2_EELNS_18ets_key_usage_typeE1EEE(%rip), %rdx
	movq	-40(%rbp), %rax
	movq	%rdx, (%rax)
	movq	-48(%rbp), %rax
	movq	%rax, %rdi
	call	_ZSt7forwardIjEOT_RNSt16remove_referenceIS0_E4typeE
	movq	%rax, %rdi
.LEHB13:
	call	_ZN3tbb10interface68internal13callback_leafI17thread_local_varsNS1_17construct_by_argsIS3_JjEEEE4makeIJjEEEPNS1_13callback_baseIS3_EEDpOT_
	movq	%rax, %rdx
	movq	-40(%rbp), %rax
	movq	%rdx, 24(%rax)
	movq	-40(%rbp), %rax
	leaq	32(%rax), %rbx
	leaq	-25(%rbp), %rax
	movq	%rax, %rdi
	call	_ZN3tbb23cache_aligned_allocatorINS_8internal6paddedINS_10interface68internal11ets_elementI17thread_local_varsEELm128EEEEC1Ev
	leaq	-25(%rbp), %rax
	movq	%rax, %rsi
	movq	%rbx, %rdi
	call	_ZN3tbb17concurrent_vectorINS_8internal6paddedINS_10interface68internal11ets_elementI17thread_local_varsEELm128EEENS_23cache_aligned_allocatorIS8_EEEC1ERKSA_
.LEHE13:
	jmp	.L260
.L259:
	movq	%rax, %rbx
	movq	-40(%rbp), %rax
	movq	%rax, %rdi
	call	_ZN3tbb10interface68internal8ets_baseILNS_18ets_key_usage_typeE1EED2Ev
	movq	%rbx, %rax
	movq	%rax, %rdi
.LEHB14:
	call	_Unwind_Resume@PLT
.LEHE14:
.L260:
	movq	-24(%rbp), %rax
	xorq	%fs:40, %rax
	je	.L258
	call	__stack_chk_fail@PLT
.L258:
	addq	$40, %rsp
	popq	%rbx
	popq	%rbp
	.cfi_def_cfa 7, 8
	ret
	.cfi_endproc
.LFE5367:
	.section	.gcc_except_table
.LLSDA5367:
	.byte	0xff
	.byte	0xff
	.byte	0x1
	.uleb128 .LLSDACSE5367-.LLSDACSB5367
.LLSDACSB5367:
	.uleb128 .LEHB12-.LFB5367
	.uleb128 .LEHE12-.LEHB12
	.uleb128 0
	.uleb128 0
	.uleb128 .LEHB13-.LFB5367
	.uleb128 .LEHE13-.LEHB13
	.uleb128 .L259-.LFB5367
	.uleb128 0
	.uleb128 .LEHB14-.LFB5367
	.uleb128 .LEHE14-.LEHB14
	.uleb128 0
	.uleb128 0
.LLSDACSE5367:
	.section	.text._ZN3tbb10interface626enumerable_thread_specificI17thread_local_varsNS_23cache_aligned_allocatorIS2_EELNS_18ets_key_usage_typeE1EEC2IjJEvEEOT_DpOT0_,"axG",@progbits,_ZN3tbb10interface626enumerable_thread_specificI17thread_local_varsNS_23cache_aligned_allocatorIS2_EELNS_18ets_key_usage_typeE1EEC5IjJEvEEOT_DpOT0_,comdat
	.size	_ZN3tbb10interface626enumerable_thread_specificI17thread_local_varsNS_23cache_aligned_allocatorIS2_EELNS_18ets_key_usage_typeE1EEC2IjJEvEEOT_DpOT0_, .-_ZN3tbb10interface626enumerable_thread_specificI17thread_local_varsNS_23cache_aligned_allocatorIS2_EELNS_18ets_key_usage_typeE1EEC2IjJEvEEOT_DpOT0_
	.weak	_ZN3tbb10interface626enumerable_thread_specificI17thread_local_varsNS_23cache_aligned_allocatorIS2_EELNS_18ets_key_usage_typeE1EEC1IjJEvEEOT_DpOT0_
	.set	_ZN3tbb10interface626enumerable_thread_specificI17thread_local_varsNS_23cache_aligned_allocatorIS2_EELNS_18ets_key_usage_typeE1EEC1IjJEvEEOT_DpOT0_,_ZN3tbb10interface626enumerable_thread_specificI17thread_local_varsNS_23cache_aligned_allocatorIS2_EELNS_18ets_key_usage_typeE1EEC2IjJEvEEOT_DpOT0_
	.section	.text._ZNSt24uniform_int_distributionIjEC2Ejj,"axG",@progbits,_ZNSt24uniform_int_distributionIjEC5Ejj,comdat
	.align 2
	.weak	_ZNSt24uniform_int_distributionIjEC2Ejj
	.type	_ZNSt24uniform_int_distributionIjEC2Ejj, @function
_ZNSt24uniform_int_distributionIjEC2Ejj:
.LFB5370:
	.cfi_startproc
	pushq	%rbp
	.cfi_def_cfa_offset 16
	.cfi_offset 6, -16
	movq	%rsp, %rbp
	.cfi_def_cfa_register 6
	subq	$16, %rsp
	movq	%rdi, -8(%rbp)
	movl	%esi, -12(%rbp)
	movl	%edx, -16(%rbp)
	movq	-8(%rbp), %rax
	movl	-16(%rbp), %edx
	movl	-12(%rbp), %ecx
	movl	%ecx, %esi
	movq	%rax, %rdi
	call	_ZNSt24uniform_int_distributionIjE10param_typeC1Ejj
	nop
	leave
	.cfi_def_cfa 7, 8
	ret
	.cfi_endproc
.LFE5370:
	.size	_ZNSt24uniform_int_distributionIjEC2Ejj, .-_ZNSt24uniform_int_distributionIjEC2Ejj
	.weak	_ZNSt24uniform_int_distributionIjEC1Ejj
	.set	_ZNSt24uniform_int_distributionIjEC1Ejj,_ZNSt24uniform_int_distributionIjEC2Ejj
	.section	.text._ZNSt24uniform_int_distributionIjEclISt23mersenne_twister_engineImLm32ELm624ELm397ELm31ELm2567483615ELm11ELm4294967295ELm7ELm2636928640ELm15ELm4022730752ELm18ELm1812433253EEEEjRT_,"axG",@progbits,_ZNSt24uniform_int_distributionIjEclISt23mersenne_twister_engineImLm32ELm624ELm397ELm31ELm2567483615ELm11ELm4294967295ELm7ELm2636928640ELm15ELm4022730752ELm18ELm1812433253EEEEjRT_,comdat
	.align 2
	.weak	_ZNSt24uniform_int_distributionIjEclISt23mersenne_twister_engineImLm32ELm624ELm397ELm31ELm2567483615ELm11ELm4294967295ELm7ELm2636928640ELm15ELm4022730752ELm18ELm1812433253EEEEjRT_
	.type	_ZNSt24uniform_int_distributionIjEclISt23mersenne_twister_engineImLm32ELm624ELm397ELm31ELm2567483615ELm11ELm4294967295ELm7ELm2636928640ELm15ELm4022730752ELm18ELm1812433253EEEEjRT_, @function
_ZNSt24uniform_int_distributionIjEclISt23mersenne_twister_engineImLm32ELm624ELm397ELm31ELm2567483615ELm11ELm4294967295ELm7ELm2636928640ELm15ELm4022730752ELm18ELm1812433253EEEEjRT_:
.LFB5372:
	.cfi_startproc
	pushq	%rbp
	.cfi_def_cfa_offset 16
	.cfi_offset 6, -16
	movq	%rsp, %rbp
	.cfi_def_cfa_register 6
	subq	$16, %rsp
	movq	%rdi, -8(%rbp)
	movq	%rsi, -16(%rbp)
	movq	-8(%rbp), %rdx
	movq	-16(%rbp), %rcx
	movq	-8(%rbp), %rax
	movq	%rcx, %rsi
	movq	%rax, %rdi
	call	_ZNSt24uniform_int_distributionIjEclISt23mersenne_twister_engineImLm32ELm624ELm397ELm31ELm2567483615ELm11ELm4294967295ELm7ELm2636928640ELm15ELm4022730752ELm18ELm1812433253EEEEjRT_RKNS0_10param_typeE
	leave
	.cfi_def_cfa 7, 8
	ret
	.cfi_endproc
.LFE5372:
	.size	_ZNSt24uniform_int_distributionIjEclISt23mersenne_twister_engineImLm32ELm624ELm397ELm31ELm2567483615ELm11ELm4294967295ELm7ELm2636928640ELm15ELm4022730752ELm18ELm1812433253EEEEjRT_, .-_ZNSt24uniform_int_distributionIjEclISt23mersenne_twister_engineImLm32ELm624ELm397ELm31ELm2567483615ELm11ELm4294967295ELm7ELm2636928640ELm15ELm4022730752ELm18ELm1812433253EEEEjRT_
	.section	.text._ZNSt19normal_distributionIdEC2Edd,"axG",@progbits,_ZNSt19normal_distributionIdEC5Edd,comdat
	.align 2
	.weak	_ZNSt19normal_distributionIdEC2Edd
	.type	_ZNSt19normal_distributionIdEC2Edd, @function
_ZNSt19normal_distributionIdEC2Edd:
.LFB5374:
	.cfi_startproc
	pushq	%rbp
	.cfi_def_cfa_offset 16
	.cfi_offset 6, -16
	movq	%rsp, %rbp
	.cfi_def_cfa_register 6
	subq	$32, %rsp
	movq	%rdi, -8(%rbp)
	movsd	%xmm0, -16(%rbp)
	movsd	%xmm1, -24(%rbp)
	movq	-8(%rbp), %rax
	movsd	-24(%rbp), %xmm0
	movq	-16(%rbp), %rdx
	movapd	%xmm0, %xmm1
	movq	%rdx, -32(%rbp)
	movsd	-32(%rbp), %xmm0
	movq	%rax, %rdi
	call	_ZNSt19normal_distributionIdE10param_typeC1Edd
	movq	-8(%rbp), %rax
	movb	$0, 24(%rax)
	nop
	leave
	.cfi_def_cfa 7, 8
	ret
	.cfi_endproc
.LFE5374:
	.size	_ZNSt19normal_distributionIdEC2Edd, .-_ZNSt19normal_distributionIdEC2Edd
	.weak	_ZNSt19normal_distributionIdEC1Edd
	.set	_ZNSt19normal_distributionIdEC1Edd,_ZNSt19normal_distributionIdEC2Edd
	.section	.text._ZNSt19normal_distributionIdEclISt23mersenne_twister_engineImLm32ELm624ELm397ELm31ELm2567483615ELm11ELm4294967295ELm7ELm2636928640ELm15ELm4022730752ELm18ELm1812433253EEEEdRT_,"axG",@progbits,_ZNSt19normal_distributionIdEclISt23mersenne_twister_engineImLm32ELm624ELm397ELm31ELm2567483615ELm11ELm4294967295ELm7ELm2636928640ELm15ELm4022730752ELm18ELm1812433253EEEEdRT_,comdat
	.align 2
	.weak	_ZNSt19normal_distributionIdEclISt23mersenne_twister_engineImLm32ELm624ELm397ELm31ELm2567483615ELm11ELm4294967295ELm7ELm2636928640ELm15ELm4022730752ELm18ELm1812433253EEEEdRT_
	.type	_ZNSt19normal_distributionIdEclISt23mersenne_twister_engineImLm32ELm624ELm397ELm31ELm2567483615ELm11ELm4294967295ELm7ELm2636928640ELm15ELm4022730752ELm18ELm1812433253EEEEdRT_, @function
_ZNSt19normal_distributionIdEclISt23mersenne_twister_engineImLm32ELm624ELm397ELm31ELm2567483615ELm11ELm4294967295ELm7ELm2636928640ELm15ELm4022730752ELm18ELm1812433253EEEEdRT_:
.LFB5376:
	.cfi_startproc
	pushq	%rbp
	.cfi_def_cfa_offset 16
	.cfi_offset 6, -16
	movq	%rsp, %rbp
	.cfi_def_cfa_register 6
	subq	$32, %rsp
	movq	%rdi, -8(%rbp)
	movq	%rsi, -16(%rbp)
	movq	-8(%rbp), %rdx
	movq	-16(%rbp), %rcx
	movq	-8(%rbp), %rax
	movq	%rcx, %rsi
	movq	%rax, %rdi
	call	_ZNSt19normal_distributionIdEclISt23mersenne_twister_engineImLm32ELm624ELm397ELm31ELm2567483615ELm11ELm4294967295ELm7ELm2636928640ELm15ELm4022730752ELm18ELm1812433253EEEEdRT_RKNS0_10param_typeE
	movq	%xmm0, %rax
	movq	%rax, -24(%rbp)
	movsd	-24(%rbp), %xmm0
	leave
	.cfi_def_cfa 7, 8
	ret
	.cfi_endproc
.LFE5376:
	.size	_ZNSt19normal_distributionIdEclISt23mersenne_twister_engineImLm32ELm624ELm397ELm31ELm2567483615ELm11ELm4294967295ELm7ELm2636928640ELm15ELm4022730752ELm18ELm1812433253EEEEdRT_, .-_ZNSt19normal_distributionIdEclISt23mersenne_twister_engineImLm32ELm624ELm397ELm31ELm2567483615ELm11ELm4294967295ELm7ELm2636928640ELm15ELm4022730752ELm18ELm1812433253EEEEdRT_
	.section	.text._ZN3tbb10interface626enumerable_thread_specificI17thread_local_varsNS_23cache_aligned_allocatorIS2_EELNS_18ets_key_usage_typeE1EE5localEv,"axG",@progbits,_ZN3tbb10interface626enumerable_thread_specificI17thread_local_varsNS_23cache_aligned_allocatorIS2_EELNS_18ets_key_usage_typeE1EE5localEv,comdat
	.align 2
	.weak	_ZN3tbb10interface626enumerable_thread_specificI17thread_local_varsNS_23cache_aligned_allocatorIS2_EELNS_18ets_key_usage_typeE1EE5localEv
	.type	_ZN3tbb10interface626enumerable_thread_specificI17thread_local_varsNS_23cache_aligned_allocatorIS2_EELNS_18ets_key_usage_typeE1EE5localEv, @function
_ZN3tbb10interface626enumerable_thread_specificI17thread_local_varsNS_23cache_aligned_allocatorIS2_EELNS_18ets_key_usage_typeE1EE5localEv:
.LFB5377:
	.cfi_startproc
	pushq	%rbp
	.cfi_def_cfa_offset 16
	.cfi_offset 6, -16
	movq	%rsp, %rbp
	.cfi_def_cfa_register 6
	subq	$32, %rsp
	movq	%rdi, -24(%rbp)
	movq	%fs:40, %rax
	movq	%rax, -8(%rbp)
	xorl	%eax, %eax
	leaq	-9(%rbp), %rdx
	movq	-24(%rbp), %rax
	movq	%rdx, %rsi
	movq	%rax, %rdi
	call	_ZN3tbb10interface626enumerable_thread_specificI17thread_local_varsNS_23cache_aligned_allocatorIS2_EELNS_18ets_key_usage_typeE1EE5localERb
	movq	-8(%rbp), %rcx
	xorq	%fs:40, %rcx
	je	.L269
	call	__stack_chk_fail@PLT
.L269:
	leave
	.cfi_def_cfa 7, 8
	ret
	.cfi_endproc
.LFE5377:
	.size	_ZN3tbb10interface626enumerable_thread_specificI17thread_local_varsNS_23cache_aligned_allocatorIS2_EELNS_18ets_key_usage_typeE1EE5localEv, .-_ZN3tbb10interface626enumerable_thread_specificI17thread_local_varsNS_23cache_aligned_allocatorIS2_EELNS_18ets_key_usage_typeE1EE5localEv
	.section	.text._ZNSt23mersenne_twister_engineImLm32ELm624ELm397ELm31ELm2567483615ELm11ELm4294967295ELm7ELm2636928640ELm15ELm4022730752ELm18ELm1812433253EEC2IjvEERT_,"axG",@progbits,_ZNSt23mersenne_twister_engineImLm32ELm624ELm397ELm31ELm2567483615ELm11ELm4294967295ELm7ELm2636928640ELm15ELm4022730752ELm18ELm1812433253EEC5IjvEERT_,comdat
	.align 2
	.weak	_ZNSt23mersenne_twister_engineImLm32ELm624ELm397ELm31ELm2567483615ELm11ELm4294967295ELm7ELm2636928640ELm15ELm4022730752ELm18ELm1812433253EEC2IjvEERT_
	.type	_ZNSt23mersenne_twister_engineImLm32ELm624ELm397ELm31ELm2567483615ELm11ELm4294967295ELm7ELm2636928640ELm15ELm4022730752ELm18ELm1812433253EEC2IjvEERT_, @function
_ZNSt23mersenne_twister_engineImLm32ELm624ELm397ELm31ELm2567483615ELm11ELm4294967295ELm7ELm2636928640ELm15ELm4022730752ELm18ELm1812433253EEC2IjvEERT_:
.LFB5383:
	.cfi_startproc
	pushq	%rbp
	.cfi_def_cfa_offset 16
	.cfi_offset 6, -16
	movq	%rsp, %rbp
	.cfi_def_cfa_register 6
	subq	$16, %rsp
	movq	%rdi, -8(%rbp)
	movq	%rsi, -16(%rbp)
	movq	-16(%rbp), %rax
	movl	(%rax), %eax
	movl	%eax, %edx
	movq	-8(%rbp), %rax
	movq	%rdx, %rsi
	movq	%rax, %rdi
	call	_ZNSt23mersenne_twister_engineImLm32ELm624ELm397ELm31ELm2567483615ELm11ELm4294967295ELm7ELm2636928640ELm15ELm4022730752ELm18ELm1812433253EE4seedEm
	nop
	leave
	.cfi_def_cfa 7, 8
	ret
	.cfi_endproc
.LFE5383:
	.size	_ZNSt23mersenne_twister_engineImLm32ELm624ELm397ELm31ELm2567483615ELm11ELm4294967295ELm7ELm2636928640ELm15ELm4022730752ELm18ELm1812433253EEC2IjvEERT_, .-_ZNSt23mersenne_twister_engineImLm32ELm624ELm397ELm31ELm2567483615ELm11ELm4294967295ELm7ELm2636928640ELm15ELm4022730752ELm18ELm1812433253EEC2IjvEERT_
	.weak	_ZNSt23mersenne_twister_engineImLm32ELm624ELm397ELm31ELm2567483615ELm11ELm4294967295ELm7ELm2636928640ELm15ELm4022730752ELm18ELm1812433253EEC1IjvEERT_
	.set	_ZNSt23mersenne_twister_engineImLm32ELm624ELm397ELm31ELm2567483615ELm11ELm4294967295ELm7ELm2636928640ELm15ELm4022730752ELm18ELm1812433253EEC1IjvEERT_,_ZNSt23mersenne_twister_engineImLm32ELm624ELm397ELm31ELm2567483615ELm11ELm4294967295ELm7ELm2636928640ELm15ELm4022730752ELm18ELm1812433253EEC2IjvEERT_
	.section	.text._ZNSt6vectorI9init_taskSaIS0_EEC2Ev,"axG",@progbits,_ZNSt6vectorI9init_taskSaIS0_EEC5Ev,comdat
	.align 2
	.weak	_ZNSt6vectorI9init_taskSaIS0_EEC2Ev
	.type	_ZNSt6vectorI9init_taskSaIS0_EEC2Ev, @function
_ZNSt6vectorI9init_taskSaIS0_EEC2Ev:
.LFB5386:
	.cfi_startproc
	.cfi_personality 0x9b,DW.ref.__gxx_personality_v0
	.cfi_lsda 0x1b,.LLSDA5386
	pushq	%rbp
	.cfi_def_cfa_offset 16
	.cfi_offset 6, -16
	movq	%rsp, %rbp
	.cfi_def_cfa_register 6
	subq	$16, %rsp
	movq	%rdi, -8(%rbp)
	movq	-8(%rbp), %rax
	movq	%rax, %rdi
	call	_ZNSt12_Vector_baseI9init_taskSaIS0_EEC2Ev
	nop
	leave
	.cfi_def_cfa 7, 8
	ret
	.cfi_endproc
.LFE5386:
	.section	.gcc_except_table
.LLSDA5386:
	.byte	0xff
	.byte	0xff
	.byte	0x1
	.uleb128 .LLSDACSE5386-.LLSDACSB5386
.LLSDACSB5386:
.LLSDACSE5386:
	.section	.text._ZNSt6vectorI9init_taskSaIS0_EEC2Ev,"axG",@progbits,_ZNSt6vectorI9init_taskSaIS0_EEC5Ev,comdat
	.size	_ZNSt6vectorI9init_taskSaIS0_EEC2Ev, .-_ZNSt6vectorI9init_taskSaIS0_EEC2Ev
	.weak	_ZNSt6vectorI9init_taskSaIS0_EEC1Ev
	.set	_ZNSt6vectorI9init_taskSaIS0_EEC1Ev,_ZNSt6vectorI9init_taskSaIS0_EEC2Ev
	.section	.text._ZNSt6vectorI9init_taskSaIS0_EED2Ev,"axG",@progbits,_ZNSt6vectorI9init_taskSaIS0_EED5Ev,comdat
	.align 2
	.weak	_ZNSt6vectorI9init_taskSaIS0_EED2Ev
	.type	_ZNSt6vectorI9init_taskSaIS0_EED2Ev, @function
_ZNSt6vectorI9init_taskSaIS0_EED2Ev:
.LFB5389:
	.cfi_startproc
	.cfi_personality 0x9b,DW.ref.__gxx_personality_v0
	.cfi_lsda 0x1b,.LLSDA5389
	pushq	%rbp
	.cfi_def_cfa_offset 16
	.cfi_offset 6, -16
	movq	%rsp, %rbp
	.cfi_def_cfa_register 6
	subq	$16, %rsp
	movq	%rdi, -8(%rbp)
	movq	-8(%rbp), %rax
	movq	%rax, %rdi
	call	_ZNSt12_Vector_baseI9init_taskSaIS0_EE19_M_get_Tp_allocatorEv
	movq	%rax, %rdx
	movq	-8(%rbp), %rax
	movq	8(%rax), %rcx
	movq	-8(%rbp), %rax
	movq	(%rax), %rax
	movq	%rcx, %rsi
	movq	%rax, %rdi
	call	_ZSt8_DestroyIP9init_taskS0_EvT_S2_RSaIT0_E
	movq	-8(%rbp), %rax
	movq	%rax, %rdi
	call	_ZNSt12_Vector_baseI9init_taskSaIS0_EED2Ev
	nop
	leave
	.cfi_def_cfa 7, 8
	ret
	.cfi_endproc
.LFE5389:
	.section	.gcc_except_table
.LLSDA5389:
	.byte	0xff
	.byte	0xff
	.byte	0x1
	.uleb128 .LLSDACSE5389-.LLSDACSB5389
.LLSDACSB5389:
.LLSDACSE5389:
	.section	.text._ZNSt6vectorI9init_taskSaIS0_EED2Ev,"axG",@progbits,_ZNSt6vectorI9init_taskSaIS0_EED5Ev,comdat
	.size	_ZNSt6vectorI9init_taskSaIS0_EED2Ev, .-_ZNSt6vectorI9init_taskSaIS0_EED2Ev
	.weak	_ZNSt6vectorI9init_taskSaIS0_EED1Ev
	.set	_ZNSt6vectorI9init_taskSaIS0_EED1Ev,_ZNSt6vectorI9init_taskSaIS0_EED2Ev
	.section	.text._ZNSt6vectorI11access_taskSaIS0_EEC2Ev,"axG",@progbits,_ZNSt6vectorI11access_taskSaIS0_EEC5Ev,comdat
	.align 2
	.weak	_ZNSt6vectorI11access_taskSaIS0_EEC2Ev
	.type	_ZNSt6vectorI11access_taskSaIS0_EEC2Ev, @function
_ZNSt6vectorI11access_taskSaIS0_EEC2Ev:
.LFB5392:
	.cfi_startproc
	.cfi_personality 0x9b,DW.ref.__gxx_personality_v0
	.cfi_lsda 0x1b,.LLSDA5392
	pushq	%rbp
	.cfi_def_cfa_offset 16
	.cfi_offset 6, -16
	movq	%rsp, %rbp
	.cfi_def_cfa_register 6
	subq	$16, %rsp
	movq	%rdi, -8(%rbp)
	movq	-8(%rbp), %rax
	movq	%rax, %rdi
	call	_ZNSt12_Vector_baseI11access_taskSaIS0_EEC2Ev
	nop
	leave
	.cfi_def_cfa 7, 8
	ret
	.cfi_endproc
.LFE5392:
	.section	.gcc_except_table
.LLSDA5392:
	.byte	0xff
	.byte	0xff
	.byte	0x1
	.uleb128 .LLSDACSE5392-.LLSDACSB5392
.LLSDACSB5392:
.LLSDACSE5392:
	.section	.text._ZNSt6vectorI11access_taskSaIS0_EEC2Ev,"axG",@progbits,_ZNSt6vectorI11access_taskSaIS0_EEC5Ev,comdat
	.size	_ZNSt6vectorI11access_taskSaIS0_EEC2Ev, .-_ZNSt6vectorI11access_taskSaIS0_EEC2Ev
	.weak	_ZNSt6vectorI11access_taskSaIS0_EEC1Ev
	.set	_ZNSt6vectorI11access_taskSaIS0_EEC1Ev,_ZNSt6vectorI11access_taskSaIS0_EEC2Ev
	.section	.text._ZNSt6vectorI11access_taskSaIS0_EED2Ev,"axG",@progbits,_ZNSt6vectorI11access_taskSaIS0_EED5Ev,comdat
	.align 2
	.weak	_ZNSt6vectorI11access_taskSaIS0_EED2Ev
	.type	_ZNSt6vectorI11access_taskSaIS0_EED2Ev, @function
_ZNSt6vectorI11access_taskSaIS0_EED2Ev:
.LFB5395:
	.cfi_startproc
	.cfi_personality 0x9b,DW.ref.__gxx_personality_v0
	.cfi_lsda 0x1b,.LLSDA5395
	pushq	%rbp
	.cfi_def_cfa_offset 16
	.cfi_offset 6, -16
	movq	%rsp, %rbp
	.cfi_def_cfa_register 6
	subq	$16, %rsp
	movq	%rdi, -8(%rbp)
	movq	-8(%rbp), %rax
	movq	%rax, %rdi
	call	_ZNSt12_Vector_baseI11access_taskSaIS0_EE19_M_get_Tp_allocatorEv
	movq	%rax, %rdx
	movq	-8(%rbp), %rax
	movq	8(%rax), %rcx
	movq	-8(%rbp), %rax
	movq	(%rax), %rax
	movq	%rcx, %rsi
	movq	%rax, %rdi
	call	_ZSt8_DestroyIP11access_taskS0_EvT_S2_RSaIT0_E
	movq	-8(%rbp), %rax
	movq	%rax, %rdi
	call	_ZNSt12_Vector_baseI11access_taskSaIS0_EED2Ev
	nop
	leave
	.cfi_def_cfa 7, 8
	ret
	.cfi_endproc
.LFE5395:
	.section	.gcc_except_table
.LLSDA5395:
	.byte	0xff
	.byte	0xff
	.byte	0x1
	.uleb128 .LLSDACSE5395-.LLSDACSB5395
.LLSDACSB5395:
.LLSDACSE5395:
	.section	.text._ZNSt6vectorI11access_taskSaIS0_EED2Ev,"axG",@progbits,_ZNSt6vectorI11access_taskSaIS0_EED5Ev,comdat
	.size	_ZNSt6vectorI11access_taskSaIS0_EED2Ev, .-_ZNSt6vectorI11access_taskSaIS0_EED2Ev
	.weak	_ZNSt6vectorI11access_taskSaIS0_EED1Ev
	.set	_ZNSt6vectorI11access_taskSaIS0_EED1Ev,_ZNSt6vectorI11access_taskSaIS0_EED2Ev
	.section	.text._ZNSt6vectorI14tear_down_taskSaIS0_EEC2Ev,"axG",@progbits,_ZNSt6vectorI14tear_down_taskSaIS0_EEC5Ev,comdat
	.align 2
	.weak	_ZNSt6vectorI14tear_down_taskSaIS0_EEC2Ev
	.type	_ZNSt6vectorI14tear_down_taskSaIS0_EEC2Ev, @function
_ZNSt6vectorI14tear_down_taskSaIS0_EEC2Ev:
.LFB5398:
	.cfi_startproc
	.cfi_personality 0x9b,DW.ref.__gxx_personality_v0
	.cfi_lsda 0x1b,.LLSDA5398
	pushq	%rbp
	.cfi_def_cfa_offset 16
	.cfi_offset 6, -16
	movq	%rsp, %rbp
	.cfi_def_cfa_register 6
	subq	$16, %rsp
	movq	%rdi, -8(%rbp)
	movq	-8(%rbp), %rax
	movq	%rax, %rdi
	call	_ZNSt12_Vector_baseI14tear_down_taskSaIS0_EEC2Ev
	nop
	leave
	.cfi_def_cfa 7, 8
	ret
	.cfi_endproc
.LFE5398:
	.section	.gcc_except_table
.LLSDA5398:
	.byte	0xff
	.byte	0xff
	.byte	0x1
	.uleb128 .LLSDACSE5398-.LLSDACSB5398
.LLSDACSB5398:
.LLSDACSE5398:
	.section	.text._ZNSt6vectorI14tear_down_taskSaIS0_EEC2Ev,"axG",@progbits,_ZNSt6vectorI14tear_down_taskSaIS0_EEC5Ev,comdat
	.size	_ZNSt6vectorI14tear_down_taskSaIS0_EEC2Ev, .-_ZNSt6vectorI14tear_down_taskSaIS0_EEC2Ev
	.weak	_ZNSt6vectorI14tear_down_taskSaIS0_EEC1Ev
	.set	_ZNSt6vectorI14tear_down_taskSaIS0_EEC1Ev,_ZNSt6vectorI14tear_down_taskSaIS0_EEC2Ev
	.section	.text._ZNSt6vectorI14tear_down_taskSaIS0_EED2Ev,"axG",@progbits,_ZNSt6vectorI14tear_down_taskSaIS0_EED5Ev,comdat
	.align 2
	.weak	_ZNSt6vectorI14tear_down_taskSaIS0_EED2Ev
	.type	_ZNSt6vectorI14tear_down_taskSaIS0_EED2Ev, @function
_ZNSt6vectorI14tear_down_taskSaIS0_EED2Ev:
.LFB5401:
	.cfi_startproc
	.cfi_personality 0x9b,DW.ref.__gxx_personality_v0
	.cfi_lsda 0x1b,.LLSDA5401
	pushq	%rbp
	.cfi_def_cfa_offset 16
	.cfi_offset 6, -16
	movq	%rsp, %rbp
	.cfi_def_cfa_register 6
	subq	$16, %rsp
	movq	%rdi, -8(%rbp)
	movq	-8(%rbp), %rax
	movq	%rax, %rdi
	call	_ZNSt12_Vector_baseI14tear_down_taskSaIS0_EE19_M_get_Tp_allocatorEv
	movq	%rax, %rdx
	movq	-8(%rbp), %rax
	movq	8(%rax), %rcx
	movq	-8(%rbp), %rax
	movq	(%rax), %rax
	movq	%rcx, %rsi
	movq	%rax, %rdi
	call	_ZSt8_DestroyIP14tear_down_taskS0_EvT_S2_RSaIT0_E
	movq	-8(%rbp), %rax
	movq	%rax, %rdi
	call	_ZNSt12_Vector_baseI14tear_down_taskSaIS0_EED2Ev
	nop
	leave
	.cfi_def_cfa 7, 8
	ret
	.cfi_endproc
.LFE5401:
	.section	.gcc_except_table
.LLSDA5401:
	.byte	0xff
	.byte	0xff
	.byte	0x1
	.uleb128 .LLSDACSE5401-.LLSDACSB5401
.LLSDACSB5401:
.LLSDACSE5401:
	.section	.text._ZNSt6vectorI14tear_down_taskSaIS0_EED2Ev,"axG",@progbits,_ZNSt6vectorI14tear_down_taskSaIS0_EED5Ev,comdat
	.size	_ZNSt6vectorI14tear_down_taskSaIS0_EED2Ev, .-_ZNSt6vectorI14tear_down_taskSaIS0_EED2Ev
	.weak	_ZNSt6vectorI14tear_down_taskSaIS0_EED1Ev
	.set	_ZNSt6vectorI14tear_down_taskSaIS0_EED1Ev,_ZNSt6vectorI14tear_down_taskSaIS0_EED2Ev
	.section	.text._ZSt4moveIR9init_taskEONSt16remove_referenceIT_E4typeEOS3_,"axG",@progbits,_ZSt4moveIR9init_taskEONSt16remove_referenceIT_E4typeEOS3_,comdat
	.weak	_ZSt4moveIR9init_taskEONSt16remove_referenceIT_E4typeEOS3_
	.type	_ZSt4moveIR9init_taskEONSt16remove_referenceIT_E4typeEOS3_, @function
_ZSt4moveIR9init_taskEONSt16remove_referenceIT_E4typeEOS3_:
.LFB5404:
	.cfi_startproc
	pushq	%rbp
	.cfi_def_cfa_offset 16
	.cfi_offset 6, -16
	movq	%rsp, %rbp
	.cfi_def_cfa_register 6
	movq	%rdi, -8(%rbp)
	movq	-8(%rbp), %rax
	popq	%rbp
	.cfi_def_cfa 7, 8
	ret
	.cfi_endproc
.LFE5404:
	.size	_ZSt4moveIR9init_taskEONSt16remove_referenceIT_E4typeEOS3_, .-_ZSt4moveIR9init_taskEONSt16remove_referenceIT_E4typeEOS3_
	.section	.text._ZNSt6vectorI9init_taskSaIS0_EE9push_backEOS0_,"axG",@progbits,_ZNSt6vectorI9init_taskSaIS0_EE9push_backEOS0_,comdat
	.align 2
	.weak	_ZNSt6vectorI9init_taskSaIS0_EE9push_backEOS0_
	.type	_ZNSt6vectorI9init_taskSaIS0_EE9push_backEOS0_, @function
_ZNSt6vectorI9init_taskSaIS0_EE9push_backEOS0_:
.LFB5403:
	.cfi_startproc
	pushq	%rbp
	.cfi_def_cfa_offset 16
	.cfi_offset 6, -16
	movq	%rsp, %rbp
	.cfi_def_cfa_register 6
	subq	$16, %rsp
	movq	%rdi, -8(%rbp)
	movq	%rsi, -16(%rbp)
	movq	-16(%rbp), %rax
	movq	%rax, %rdi
	call	_ZSt4moveIR9init_taskEONSt16remove_referenceIT_E4typeEOS3_
	movq	%rax, %rdx
	movq	-8(%rbp), %rax
	movq	%rdx, %rsi
	movq	%rax, %rdi
	call	_ZNSt6vectorI9init_taskSaIS0_EE12emplace_backIJS0_EEEvDpOT_
	nop
	leave
	.cfi_def_cfa 7, 8
	ret
	.cfi_endproc
.LFE5403:
	.size	_ZNSt6vectorI9init_taskSaIS0_EE9push_backEOS0_, .-_ZNSt6vectorI9init_taskSaIS0_EE9push_backEOS0_
	.section	.text._ZNSt6vectorI9init_taskSaIS0_EE5beginEv,"axG",@progbits,_ZNSt6vectorI9init_taskSaIS0_EE5beginEv,comdat
	.align 2
	.weak	_ZNSt6vectorI9init_taskSaIS0_EE5beginEv
	.type	_ZNSt6vectorI9init_taskSaIS0_EE5beginEv, @function
_ZNSt6vectorI9init_taskSaIS0_EE5beginEv:
.LFB5405:
	.cfi_startproc
	pushq	%rbp
	.cfi_def_cfa_offset 16
	.cfi_offset 6, -16
	movq	%rsp, %rbp
	.cfi_def_cfa_register 6
	subq	$32, %rsp
	movq	%rdi, -24(%rbp)
	movq	%fs:40, %rax
	movq	%rax, -8(%rbp)
	xorl	%eax, %eax
	movq	-24(%rbp), %rdx
	leaq	-16(%rbp), %rax
	movq	%rdx, %rsi
	movq	%rax, %rdi
	call	_ZN9__gnu_cxx17__normal_iteratorIP9init_taskSt6vectorIS1_SaIS1_EEEC1ERKS2_
	movq	-16(%rbp), %rax
	movq	-8(%rbp), %rcx
	xorq	%fs:40, %rcx
	je	.L282
	call	__stack_chk_fail@PLT
.L282:
	leave
	.cfi_def_cfa 7, 8
	ret
	.cfi_endproc
.LFE5405:
	.size	_ZNSt6vectorI9init_taskSaIS0_EE5beginEv, .-_ZNSt6vectorI9init_taskSaIS0_EE5beginEv
	.section	.text._ZNSt6vectorI9init_taskSaIS0_EE3endEv,"axG",@progbits,_ZNSt6vectorI9init_taskSaIS0_EE3endEv,comdat
	.align 2
	.weak	_ZNSt6vectorI9init_taskSaIS0_EE3endEv
	.type	_ZNSt6vectorI9init_taskSaIS0_EE3endEv, @function
_ZNSt6vectorI9init_taskSaIS0_EE3endEv:
.LFB5406:
	.cfi_startproc
	pushq	%rbp
	.cfi_def_cfa_offset 16
	.cfi_offset 6, -16
	movq	%rsp, %rbp
	.cfi_def_cfa_register 6
	subq	$32, %rsp
	movq	%rdi, -24(%rbp)
	movq	%fs:40, %rax
	movq	%rax, -8(%rbp)
	xorl	%eax, %eax
	movq	-24(%rbp), %rax
	leaq	8(%rax), %rdx
	leaq	-16(%rbp), %rax
	movq	%rdx, %rsi
	movq	%rax, %rdi
	call	_ZN9__gnu_cxx17__normal_iteratorIP9init_taskSt6vectorIS1_SaIS1_EEEC1ERKS2_
	movq	-16(%rbp), %rax
	movq	-8(%rbp), %rcx
	xorq	%fs:40, %rcx
	je	.L285
	call	__stack_chk_fail@PLT
.L285:
	leave
	.cfi_def_cfa 7, 8
	ret
	.cfi_endproc
.LFE5406:
	.size	_ZNSt6vectorI9init_taskSaIS0_EE3endEv, .-_ZNSt6vectorI9init_taskSaIS0_EE3endEv
	.section	.text._ZN3tbb17parallel_for_eachIN9__gnu_cxx17__normal_iteratorIP9init_taskSt6vectorIS3_SaIS3_EEEE7invokerIS3_EEEvT_SB_RKT0_,"axG",@progbits,_ZN3tbb17parallel_for_eachIN9__gnu_cxx17__normal_iteratorIP9init_taskSt6vectorIS3_SaIS3_EEEE7invokerIS3_EEEvT_SB_RKT0_,comdat
	.weak	_ZN3tbb17parallel_for_eachIN9__gnu_cxx17__normal_iteratorIP9init_taskSt6vectorIS3_SaIS3_EEEE7invokerIS3_EEEvT_SB_RKT0_
	.type	_ZN3tbb17parallel_for_eachIN9__gnu_cxx17__normal_iteratorIP9init_taskSt6vectorIS3_SaIS3_EEEE7invokerIS3_EEEvT_SB_RKT0_, @function
_ZN3tbb17parallel_for_eachIN9__gnu_cxx17__normal_iteratorIP9init_taskSt6vectorIS3_SaIS3_EEEE7invokerIS3_EEEvT_SB_RKT0_:
.LFB5407:
	.cfi_startproc
	pushq	%rbp
	.cfi_def_cfa_offset 16
	.cfi_offset 6, -16
	movq	%rsp, %rbp
	.cfi_def_cfa_register 6
	subq	$32, %rsp
	movq	%rdi, -8(%rbp)
	movq	%rsi, -16(%rbp)
	movq	%rdx, -24(%rbp)
	movq	-24(%rbp), %rdx
	movq	-16(%rbp), %rcx
	movq	-8(%rbp), %rax
	movq	%rcx, %rsi
	movq	%rax, %rdi
	call	_ZN3tbb8internal22parallel_for_each_implIN9__gnu_cxx17__normal_iteratorIP9init_taskSt6vectorIS4_SaIS4_EEEE7invokerIS4_ESt26random_access_iterator_tagE4doitES9_S9_RKSB_
	nop
	leave
	.cfi_def_cfa 7, 8
	ret
	.cfi_endproc
.LFE5407:
	.size	_ZN3tbb17parallel_for_eachIN9__gnu_cxx17__normal_iteratorIP9init_taskSt6vectorIS3_SaIS3_EEEE7invokerIS3_EEEvT_SB_RKT0_, .-_ZN3tbb17parallel_for_eachIN9__gnu_cxx17__normal_iteratorIP9init_taskSt6vectorIS3_SaIS3_EEEE7invokerIS3_EEEvT_SB_RKT0_
	.section	.text._ZSt4moveIR11access_taskEONSt16remove_referenceIT_E4typeEOS3_,"axG",@progbits,_ZSt4moveIR11access_taskEONSt16remove_referenceIT_E4typeEOS3_,comdat
	.weak	_ZSt4moveIR11access_taskEONSt16remove_referenceIT_E4typeEOS3_
	.type	_ZSt4moveIR11access_taskEONSt16remove_referenceIT_E4typeEOS3_, @function
_ZSt4moveIR11access_taskEONSt16remove_referenceIT_E4typeEOS3_:
.LFB5409:
	.cfi_startproc
	pushq	%rbp
	.cfi_def_cfa_offset 16
	.cfi_offset 6, -16
	movq	%rsp, %rbp
	.cfi_def_cfa_register 6
	movq	%rdi, -8(%rbp)
	movq	-8(%rbp), %rax
	popq	%rbp
	.cfi_def_cfa 7, 8
	ret
	.cfi_endproc
.LFE5409:
	.size	_ZSt4moveIR11access_taskEONSt16remove_referenceIT_E4typeEOS3_, .-_ZSt4moveIR11access_taskEONSt16remove_referenceIT_E4typeEOS3_
	.section	.text._ZNSt6vectorI11access_taskSaIS0_EE9push_backEOS0_,"axG",@progbits,_ZNSt6vectorI11access_taskSaIS0_EE9push_backEOS0_,comdat
	.align 2
	.weak	_ZNSt6vectorI11access_taskSaIS0_EE9push_backEOS0_
	.type	_ZNSt6vectorI11access_taskSaIS0_EE9push_backEOS0_, @function
_ZNSt6vectorI11access_taskSaIS0_EE9push_backEOS0_:
.LFB5408:
	.cfi_startproc
	pushq	%rbp
	.cfi_def_cfa_offset 16
	.cfi_offset 6, -16
	movq	%rsp, %rbp
	.cfi_def_cfa_register 6
	subq	$16, %rsp
	movq	%rdi, -8(%rbp)
	movq	%rsi, -16(%rbp)
	movq	-16(%rbp), %rax
	movq	%rax, %rdi
	call	_ZSt4moveIR11access_taskEONSt16remove_referenceIT_E4typeEOS3_
	movq	%rax, %rdx
	movq	-8(%rbp), %rax
	movq	%rdx, %rsi
	movq	%rax, %rdi
	call	_ZNSt6vectorI11access_taskSaIS0_EE12emplace_backIJS0_EEEvDpOT_
	nop
	leave
	.cfi_def_cfa 7, 8
	ret
	.cfi_endproc
.LFE5408:
	.size	_ZNSt6vectorI11access_taskSaIS0_EE9push_backEOS0_, .-_ZNSt6vectorI11access_taskSaIS0_EE9push_backEOS0_
	.section	.text._ZNSt6vectorI11access_taskSaIS0_EE5beginEv,"axG",@progbits,_ZNSt6vectorI11access_taskSaIS0_EE5beginEv,comdat
	.align 2
	.weak	_ZNSt6vectorI11access_taskSaIS0_EE5beginEv
	.type	_ZNSt6vectorI11access_taskSaIS0_EE5beginEv, @function
_ZNSt6vectorI11access_taskSaIS0_EE5beginEv:
.LFB5410:
	.cfi_startproc
	pushq	%rbp
	.cfi_def_cfa_offset 16
	.cfi_offset 6, -16
	movq	%rsp, %rbp
	.cfi_def_cfa_register 6
	subq	$32, %rsp
	movq	%rdi, -24(%rbp)
	movq	%fs:40, %rax
	movq	%rax, -8(%rbp)
	xorl	%eax, %eax
	movq	-24(%rbp), %rdx
	leaq	-16(%rbp), %rax
	movq	%rdx, %rsi
	movq	%rax, %rdi
	call	_ZN9__gnu_cxx17__normal_iteratorIP11access_taskSt6vectorIS1_SaIS1_EEEC1ERKS2_
	movq	-16(%rbp), %rax
	movq	-8(%rbp), %rcx
	xorq	%fs:40, %rcx
	je	.L292
	call	__stack_chk_fail@PLT
.L292:
	leave
	.cfi_def_cfa 7, 8
	ret
	.cfi_endproc
.LFE5410:
	.size	_ZNSt6vectorI11access_taskSaIS0_EE5beginEv, .-_ZNSt6vectorI11access_taskSaIS0_EE5beginEv
	.section	.text._ZNSt6vectorI11access_taskSaIS0_EE3endEv,"axG",@progbits,_ZNSt6vectorI11access_taskSaIS0_EE3endEv,comdat
	.align 2
	.weak	_ZNSt6vectorI11access_taskSaIS0_EE3endEv
	.type	_ZNSt6vectorI11access_taskSaIS0_EE3endEv, @function
_ZNSt6vectorI11access_taskSaIS0_EE3endEv:
.LFB5411:
	.cfi_startproc
	pushq	%rbp
	.cfi_def_cfa_offset 16
	.cfi_offset 6, -16
	movq	%rsp, %rbp
	.cfi_def_cfa_register 6
	subq	$32, %rsp
	movq	%rdi, -24(%rbp)
	movq	%fs:40, %rax
	movq	%rax, -8(%rbp)
	xorl	%eax, %eax
	movq	-24(%rbp), %rax
	leaq	8(%rax), %rdx
	leaq	-16(%rbp), %rax
	movq	%rdx, %rsi
	movq	%rax, %rdi
	call	_ZN9__gnu_cxx17__normal_iteratorIP11access_taskSt6vectorIS1_SaIS1_EEEC1ERKS2_
	movq	-16(%rbp), %rax
	movq	-8(%rbp), %rcx
	xorq	%fs:40, %rcx
	je	.L295
	call	__stack_chk_fail@PLT
.L295:
	leave
	.cfi_def_cfa 7, 8
	ret
	.cfi_endproc
.LFE5411:
	.size	_ZNSt6vectorI11access_taskSaIS0_EE3endEv, .-_ZNSt6vectorI11access_taskSaIS0_EE3endEv
	.section	.text._ZN3tbb17parallel_for_eachIN9__gnu_cxx17__normal_iteratorIP11access_taskSt6vectorIS3_SaIS3_EEEE7invokerIS3_EEEvT_SB_RKT0_,"axG",@progbits,_ZN3tbb17parallel_for_eachIN9__gnu_cxx17__normal_iteratorIP11access_taskSt6vectorIS3_SaIS3_EEEE7invokerIS3_EEEvT_SB_RKT0_,comdat
	.weak	_ZN3tbb17parallel_for_eachIN9__gnu_cxx17__normal_iteratorIP11access_taskSt6vectorIS3_SaIS3_EEEE7invokerIS3_EEEvT_SB_RKT0_
	.type	_ZN3tbb17parallel_for_eachIN9__gnu_cxx17__normal_iteratorIP11access_taskSt6vectorIS3_SaIS3_EEEE7invokerIS3_EEEvT_SB_RKT0_, @function
_ZN3tbb17parallel_for_eachIN9__gnu_cxx17__normal_iteratorIP11access_taskSt6vectorIS3_SaIS3_EEEE7invokerIS3_EEEvT_SB_RKT0_:
.LFB5412:
	.cfi_startproc
	pushq	%rbp
	.cfi_def_cfa_offset 16
	.cfi_offset 6, -16
	movq	%rsp, %rbp
	.cfi_def_cfa_register 6
	subq	$32, %rsp
	movq	%rdi, -8(%rbp)
	movq	%rsi, -16(%rbp)
	movq	%rdx, -24(%rbp)
	movq	-24(%rbp), %rdx
	movq	-16(%rbp), %rcx
	movq	-8(%rbp), %rax
	movq	%rcx, %rsi
	movq	%rax, %rdi
	call	_ZN3tbb8internal22parallel_for_each_implIN9__gnu_cxx17__normal_iteratorIP11access_taskSt6vectorIS4_SaIS4_EEEE7invokerIS4_ESt26random_access_iterator_tagE4doitES9_S9_RKSB_
	nop
	leave
	.cfi_def_cfa 7, 8
	ret
	.cfi_endproc
.LFE5412:
	.size	_ZN3tbb17parallel_for_eachIN9__gnu_cxx17__normal_iteratorIP11access_taskSt6vectorIS3_SaIS3_EEEE7invokerIS3_EEEvT_SB_RKT0_, .-_ZN3tbb17parallel_for_eachIN9__gnu_cxx17__normal_iteratorIP11access_taskSt6vectorIS3_SaIS3_EEEE7invokerIS3_EEEvT_SB_RKT0_
	.section	.text._ZSt4moveIR14tear_down_taskEONSt16remove_referenceIT_E4typeEOS3_,"axG",@progbits,_ZSt4moveIR14tear_down_taskEONSt16remove_referenceIT_E4typeEOS3_,comdat
	.weak	_ZSt4moveIR14tear_down_taskEONSt16remove_referenceIT_E4typeEOS3_
	.type	_ZSt4moveIR14tear_down_taskEONSt16remove_referenceIT_E4typeEOS3_, @function
_ZSt4moveIR14tear_down_taskEONSt16remove_referenceIT_E4typeEOS3_:
.LFB5414:
	.cfi_startproc
	pushq	%rbp
	.cfi_def_cfa_offset 16
	.cfi_offset 6, -16
	movq	%rsp, %rbp
	.cfi_def_cfa_register 6
	movq	%rdi, -8(%rbp)
	movq	-8(%rbp), %rax
	popq	%rbp
	.cfi_def_cfa 7, 8
	ret
	.cfi_endproc
.LFE5414:
	.size	_ZSt4moveIR14tear_down_taskEONSt16remove_referenceIT_E4typeEOS3_, .-_ZSt4moveIR14tear_down_taskEONSt16remove_referenceIT_E4typeEOS3_
	.section	.text._ZNSt6vectorI14tear_down_taskSaIS0_EE9push_backEOS0_,"axG",@progbits,_ZNSt6vectorI14tear_down_taskSaIS0_EE9push_backEOS0_,comdat
	.align 2
	.weak	_ZNSt6vectorI14tear_down_taskSaIS0_EE9push_backEOS0_
	.type	_ZNSt6vectorI14tear_down_taskSaIS0_EE9push_backEOS0_, @function
_ZNSt6vectorI14tear_down_taskSaIS0_EE9push_backEOS0_:
.LFB5413:
	.cfi_startproc
	pushq	%rbp
	.cfi_def_cfa_offset 16
	.cfi_offset 6, -16
	movq	%rsp, %rbp
	.cfi_def_cfa_register 6
	subq	$16, %rsp
	movq	%rdi, -8(%rbp)
	movq	%rsi, -16(%rbp)
	movq	-16(%rbp), %rax
	movq	%rax, %rdi
	call	_ZSt4moveIR14tear_down_taskEONSt16remove_referenceIT_E4typeEOS3_
	movq	%rax, %rdx
	movq	-8(%rbp), %rax
	movq	%rdx, %rsi
	movq	%rax, %rdi
	call	_ZNSt6vectorI14tear_down_taskSaIS0_EE12emplace_backIJS0_EEEvDpOT_
	nop
	leave
	.cfi_def_cfa 7, 8
	ret
	.cfi_endproc
.LFE5413:
	.size	_ZNSt6vectorI14tear_down_taskSaIS0_EE9push_backEOS0_, .-_ZNSt6vectorI14tear_down_taskSaIS0_EE9push_backEOS0_
	.section	.text._ZNSt6vectorI14tear_down_taskSaIS0_EE5beginEv,"axG",@progbits,_ZNSt6vectorI14tear_down_taskSaIS0_EE5beginEv,comdat
	.align 2
	.weak	_ZNSt6vectorI14tear_down_taskSaIS0_EE5beginEv
	.type	_ZNSt6vectorI14tear_down_taskSaIS0_EE5beginEv, @function
_ZNSt6vectorI14tear_down_taskSaIS0_EE5beginEv:
.LFB5415:
	.cfi_startproc
	pushq	%rbp
	.cfi_def_cfa_offset 16
	.cfi_offset 6, -16
	movq	%rsp, %rbp
	.cfi_def_cfa_register 6
	subq	$32, %rsp
	movq	%rdi, -24(%rbp)
	movq	%fs:40, %rax
	movq	%rax, -8(%rbp)
	xorl	%eax, %eax
	movq	-24(%rbp), %rdx
	leaq	-16(%rbp), %rax
	movq	%rdx, %rsi
	movq	%rax, %rdi
	call	_ZN9__gnu_cxx17__normal_iteratorIP14tear_down_taskSt6vectorIS1_SaIS1_EEEC1ERKS2_
	movq	-16(%rbp), %rax
	movq	-8(%rbp), %rcx
	xorq	%fs:40, %rcx
	je	.L302
	call	__stack_chk_fail@PLT
.L302:
	leave
	.cfi_def_cfa 7, 8
	ret
	.cfi_endproc
.LFE5415:
	.size	_ZNSt6vectorI14tear_down_taskSaIS0_EE5beginEv, .-_ZNSt6vectorI14tear_down_taskSaIS0_EE5beginEv
	.section	.text._ZNSt6vectorI14tear_down_taskSaIS0_EE3endEv,"axG",@progbits,_ZNSt6vectorI14tear_down_taskSaIS0_EE3endEv,comdat
	.align 2
	.weak	_ZNSt6vectorI14tear_down_taskSaIS0_EE3endEv
	.type	_ZNSt6vectorI14tear_down_taskSaIS0_EE3endEv, @function
_ZNSt6vectorI14tear_down_taskSaIS0_EE3endEv:
.LFB5416:
	.cfi_startproc
	pushq	%rbp
	.cfi_def_cfa_offset 16
	.cfi_offset 6, -16
	movq	%rsp, %rbp
	.cfi_def_cfa_register 6
	subq	$32, %rsp
	movq	%rdi, -24(%rbp)
	movq	%fs:40, %rax
	movq	%rax, -8(%rbp)
	xorl	%eax, %eax
	movq	-24(%rbp), %rax
	leaq	8(%rax), %rdx
	leaq	-16(%rbp), %rax
	movq	%rdx, %rsi
	movq	%rax, %rdi
	call	_ZN9__gnu_cxx17__normal_iteratorIP14tear_down_taskSt6vectorIS1_SaIS1_EEEC1ERKS2_
	movq	-16(%rbp), %rax
	movq	-8(%rbp), %rcx
	xorq	%fs:40, %rcx
	je	.L305
	call	__stack_chk_fail@PLT
.L305:
	leave
	.cfi_def_cfa 7, 8
	ret
	.cfi_endproc
.LFE5416:
	.size	_ZNSt6vectorI14tear_down_taskSaIS0_EE3endEv, .-_ZNSt6vectorI14tear_down_taskSaIS0_EE3endEv
	.section	.text._ZN3tbb17parallel_for_eachIN9__gnu_cxx17__normal_iteratorIP14tear_down_taskSt6vectorIS3_SaIS3_EEEE7invokerIS3_EEEvT_SB_RKT0_,"axG",@progbits,_ZN3tbb17parallel_for_eachIN9__gnu_cxx17__normal_iteratorIP14tear_down_taskSt6vectorIS3_SaIS3_EEEE7invokerIS3_EEEvT_SB_RKT0_,comdat
	.weak	_ZN3tbb17parallel_for_eachIN9__gnu_cxx17__normal_iteratorIP14tear_down_taskSt6vectorIS3_SaIS3_EEEE7invokerIS3_EEEvT_SB_RKT0_
	.type	_ZN3tbb17parallel_for_eachIN9__gnu_cxx17__normal_iteratorIP14tear_down_taskSt6vectorIS3_SaIS3_EEEE7invokerIS3_EEEvT_SB_RKT0_, @function
_ZN3tbb17parallel_for_eachIN9__gnu_cxx17__normal_iteratorIP14tear_down_taskSt6vectorIS3_SaIS3_EEEE7invokerIS3_EEEvT_SB_RKT0_:
.LFB5417:
	.cfi_startproc
	pushq	%rbp
	.cfi_def_cfa_offset 16
	.cfi_offset 6, -16
	movq	%rsp, %rbp
	.cfi_def_cfa_register 6
	subq	$32, %rsp
	movq	%rdi, -8(%rbp)
	movq	%rsi, -16(%rbp)
	movq	%rdx, -24(%rbp)
	movq	-24(%rbp), %rdx
	movq	-16(%rbp), %rcx
	movq	-8(%rbp), %rax
	movq	%rcx, %rsi
	movq	%rax, %rdi
	call	_ZN3tbb8internal22parallel_for_each_implIN9__gnu_cxx17__normal_iteratorIP14tear_down_taskSt6vectorIS4_SaIS4_EEEE7invokerIS4_ESt26random_access_iterator_tagE4doitES9_S9_RKSB_
	nop
	leave
	.cfi_def_cfa 7, 8
	ret
	.cfi_endproc
.LFE5417:
	.size	_ZN3tbb17parallel_for_eachIN9__gnu_cxx17__normal_iteratorIP14tear_down_taskSt6vectorIS3_SaIS3_EEEE7invokerIS3_EEEvT_SB_RKT0_, .-_ZN3tbb17parallel_for_eachIN9__gnu_cxx17__normal_iteratorIP14tear_down_taskSt6vectorIS3_SaIS3_EEEE7invokerIS3_EEEvT_SB_RKT0_
	.section	.text._ZN3tbb8internal24__TBB_store_with_releaseIllEEvRVT_T0_,"axG",@progbits,_ZN3tbb8internal24__TBB_store_with_releaseIllEEvRVT_T0_,comdat
	.weak	_ZN3tbb8internal24__TBB_store_with_releaseIllEEvRVT_T0_
	.type	_ZN3tbb8internal24__TBB_store_with_releaseIllEEvRVT_T0_, @function
_ZN3tbb8internal24__TBB_store_with_releaseIllEEvRVT_T0_:
.LFB5552:
	.cfi_startproc
	pushq	%rbp
	.cfi_def_cfa_offset 16
	.cfi_offset 6, -16
	movq	%rsp, %rbp
	.cfi_def_cfa_register 6
	subq	$16, %rsp
	movq	%rdi, -8(%rbp)
	movq	%rsi, -16(%rbp)
	movq	-16(%rbp), %rdx
	movq	-8(%rbp), %rax
	movq	%rdx, %rsi
	movq	%rax, %rdi
	call	_ZN3tbb8internal18machine_load_storeIlLm8EE18store_with_releaseERVll
	nop
	leave
	.cfi_def_cfa 7, 8
	ret
	.cfi_endproc
.LFE5552:
	.size	_ZN3tbb8internal24__TBB_store_with_releaseIllEEvRVT_T0_, .-_ZN3tbb8internal24__TBB_store_with_releaseIllEEvRVT_T0_
	.section	.text._ZN3tbb8internal23__TBB_load_with_acquireIlEET_RVKS2_,"axG",@progbits,_ZN3tbb8internal23__TBB_load_with_acquireIlEET_RVKS2_,comdat
	.weak	_ZN3tbb8internal23__TBB_load_with_acquireIlEET_RVKS2_
	.type	_ZN3tbb8internal23__TBB_load_with_acquireIlEET_RVKS2_, @function
_ZN3tbb8internal23__TBB_load_with_acquireIlEET_RVKS2_:
.LFB5554:
	.cfi_startproc
	pushq	%rbp
	.cfi_def_cfa_offset 16
	.cfi_offset 6, -16
	movq	%rsp, %rbp
	.cfi_def_cfa_register 6
	subq	$16, %rsp
	movq	%rdi, -8(%rbp)
	movq	-8(%rbp), %rax
	movq	%rax, %rdi
	call	_ZN3tbb8internal18machine_load_storeIlLm8EE17load_with_acquireERVKl
	leave
	.cfi_def_cfa 7, 8
	ret
	.cfi_endproc
.LFE5554:
	.size	_ZN3tbb8internal23__TBB_load_with_acquireIlEET_RVKS2_, .-_ZN3tbb8internal23__TBB_load_with_acquireIlEET_RVKS2_
	.section	.text._ZN3tbb8internal11atomic_implImE11to_bits_refImEERNS2_9converterIT_E9bits_typeERS5_,"axG",@progbits,_ZN3tbb8internal11atomic_implImE11to_bits_refImEERNS2_9converterIT_E9bits_typeERS5_,comdat
	.weak	_ZN3tbb8internal11atomic_implImE11to_bits_refImEERNS2_9converterIT_E9bits_typeERS5_
	.type	_ZN3tbb8internal11atomic_implImE11to_bits_refImEERNS2_9converterIT_E9bits_typeERS5_, @function
_ZN3tbb8internal11atomic_implImE11to_bits_refImEERNS2_9converterIT_E9bits_typeERS5_:
.LFB5582:
	.cfi_startproc
	pushq	%rbp
	.cfi_def_cfa_offset 16
	.cfi_offset 6, -16
	movq	%rsp, %rbp
	.cfi_def_cfa_register 6
	subq	$32, %rsp
	movq	%rdi, -24(%rbp)
	movq	%fs:40, %rax
	movq	%rax, -8(%rbp)
	xorl	%eax, %eax
	movq	-24(%rbp), %rdx
	leaq	-16(%rbp), %rax
	movq	%rdx, %rsi
	movq	%rax, %rdi
	call	_ZN3tbb8internal11atomic_implImE13ptr_converterIPmEC1ES4_
	movq	-16(%rbp), %rax
	movq	-8(%rbp), %rcx
	xorq	%fs:40, %rcx
	je	.L312
	call	__stack_chk_fail@PLT
.L312:
	leave
	.cfi_def_cfa 7, 8
	ret
	.cfi_endproc
.LFE5582:
	.size	_ZN3tbb8internal11atomic_implImE11to_bits_refImEERNS2_9converterIT_E9bits_typeERS5_, .-_ZN3tbb8internal11atomic_implImE11to_bits_refImEERNS2_9converterIT_E9bits_typeERS5_
	.section	.text._ZN3tbb8internal11atomic_implImE7to_bitsImEENS2_9converterIT_E9bits_typeES5_,"axG",@progbits,_ZN3tbb8internal11atomic_implImE7to_bitsImEENS2_9converterIT_E9bits_typeES5_,comdat
	.weak	_ZN3tbb8internal11atomic_implImE7to_bitsImEENS2_9converterIT_E9bits_typeES5_
	.type	_ZN3tbb8internal11atomic_implImE7to_bitsImEENS2_9converterIT_E9bits_typeES5_, @function
_ZN3tbb8internal11atomic_implImE7to_bitsImEENS2_9converterIT_E9bits_typeES5_:
.LFB5583:
	.cfi_startproc
	pushq	%rbp
	.cfi_def_cfa_offset 16
	.cfi_offset 6, -16
	movq	%rsp, %rbp
	.cfi_def_cfa_register 6
	subq	$32, %rsp
	movq	%rdi, -24(%rbp)
	movq	%fs:40, %rax
	movq	%rax, -8(%rbp)
	xorl	%eax, %eax
	movq	-24(%rbp), %rdx
	leaq	-16(%rbp), %rax
	movq	%rdx, %rsi
	movq	%rax, %rdi
	call	_ZN3tbb8internal11atomic_implImE9converterImEC1Em
	movq	-16(%rbp), %rax
	movq	-8(%rbp), %rcx
	xorq	%fs:40, %rcx
	je	.L315
	call	__stack_chk_fail@PLT
.L315:
	leave
	.cfi_def_cfa 7, 8
	ret
	.cfi_endproc
.LFE5583:
	.size	_ZN3tbb8internal11atomic_implImE7to_bitsImEENS2_9converterIT_E9bits_typeES5_, .-_ZN3tbb8internal11atomic_implImE7to_bitsImEENS2_9converterIT_E9bits_typeES5_
	.section	.text._ZN3tbb8internal11atomic_implImE8to_valueImEET_NS2_9converterIS4_E9bits_typeE,"axG",@progbits,_ZN3tbb8internal11atomic_implImE8to_valueImEET_NS2_9converterIS4_E9bits_typeE,comdat
	.weak	_ZN3tbb8internal11atomic_implImE8to_valueImEET_NS2_9converterIS4_E9bits_typeE
	.type	_ZN3tbb8internal11atomic_implImE8to_valueImEET_NS2_9converterIS4_E9bits_typeE, @function
_ZN3tbb8internal11atomic_implImE8to_valueImEET_NS2_9converterIS4_E9bits_typeE:
.LFB5585:
	.cfi_startproc
	pushq	%rbp
	.cfi_def_cfa_offset 16
	.cfi_offset 6, -16
	movq	%rsp, %rbp
	.cfi_def_cfa_register 6
	subq	$32, %rsp
	movq	%rdi, -24(%rbp)
	movq	%fs:40, %rax
	movq	%rax, -8(%rbp)
	xorl	%eax, %eax
	leaq	-16(%rbp), %rax
	movq	%rax, %rdi
	call	_ZN3tbb8internal11atomic_implImE9converterImEC1Ev
	movq	-24(%rbp), %rax
	movq	%rax, -16(%rbp)
	movq	-16(%rbp), %rax
	movq	-8(%rbp), %rdx
	xorq	%fs:40, %rdx
	je	.L318
	call	__stack_chk_fail@PLT
.L318:
	leave
	.cfi_def_cfa 7, 8
	ret
	.cfi_endproc
.LFE5585:
	.size	_ZN3tbb8internal11atomic_implImE8to_valueImEET_NS2_9converterIS4_E9bits_typeE, .-_ZN3tbb8internal11atomic_implImE8to_valueImEET_NS2_9converterIS4_E9bits_typeE
	.section	.text._ZN3tbb8internal24__TBB_store_with_releaseIaaEEvRVT_T0_,"axG",@progbits,_ZN3tbb8internal24__TBB_store_with_releaseIaaEEvRVT_T0_,comdat
	.weak	_ZN3tbb8internal24__TBB_store_with_releaseIaaEEvRVT_T0_
	.type	_ZN3tbb8internal24__TBB_store_with_releaseIaaEEvRVT_T0_, @function
_ZN3tbb8internal24__TBB_store_with_releaseIaaEEvRVT_T0_:
.LFB5638:
	.cfi_startproc
	pushq	%rbp
	.cfi_def_cfa_offset 16
	.cfi_offset 6, -16
	movq	%rsp, %rbp
	.cfi_def_cfa_register 6
	subq	$16, %rsp
	movq	%rdi, -8(%rbp)
	movl	%esi, %eax
	movb	%al, -12(%rbp)
	movsbl	-12(%rbp), %edx
	movq	-8(%rbp), %rax
	movl	%edx, %esi
	movq	%rax, %rdi
	call	_ZN3tbb8internal18machine_load_storeIaLm1EE18store_with_releaseERVaa
	nop
	leave
	.cfi_def_cfa 7, 8
	ret
	.cfi_endproc
.LFE5638:
	.size	_ZN3tbb8internal24__TBB_store_with_releaseIaaEEvRVT_T0_, .-_ZN3tbb8internal24__TBB_store_with_releaseIaaEEvRVT_T0_
	.section	.text._ZN3tbb8internal23__TBB_load_with_acquireIaEET_RVKS2_,"axG",@progbits,_ZN3tbb8internal23__TBB_load_with_acquireIaEET_RVKS2_,comdat
	.weak	_ZN3tbb8internal23__TBB_load_with_acquireIaEET_RVKS2_
	.type	_ZN3tbb8internal23__TBB_load_with_acquireIaEET_RVKS2_, @function
_ZN3tbb8internal23__TBB_load_with_acquireIaEET_RVKS2_:
.LFB5640:
	.cfi_startproc
	pushq	%rbp
	.cfi_def_cfa_offset 16
	.cfi_offset 6, -16
	movq	%rsp, %rbp
	.cfi_def_cfa_register 6
	subq	$16, %rsp
	movq	%rdi, -8(%rbp)
	movq	-8(%rbp), %rax
	movq	%rax, %rdi
	call	_ZN3tbb8internal18machine_load_storeIaLm1EE17load_with_acquireERVKa
	leave
	.cfi_def_cfa 7, 8
	ret
	.cfi_endproc
.LFE5640:
	.size	_ZN3tbb8internal23__TBB_load_with_acquireIaEET_RVKS2_, .-_ZN3tbb8internal23__TBB_load_with_acquireIaEET_RVKS2_
	.section	.text._ZN3tbb8internal11atomic_implIPvE11to_bits_refIS2_EERNS3_9converterIT_E9bits_typeERS6_,"axG",@progbits,_ZN3tbb8internal11atomic_implIPvE11to_bits_refIS2_EERNS3_9converterIT_E9bits_typeERS6_,comdat
	.weak	_ZN3tbb8internal11atomic_implIPvE11to_bits_refIS2_EERNS3_9converterIT_E9bits_typeERS6_
	.type	_ZN3tbb8internal11atomic_implIPvE11to_bits_refIS2_EERNS3_9converterIT_E9bits_typeERS6_, @function
_ZN3tbb8internal11atomic_implIPvE11to_bits_refIS2_EERNS3_9converterIT_E9bits_typeERS6_:
.LFB5672:
	.cfi_startproc
	pushq	%rbp
	.cfi_def_cfa_offset 16
	.cfi_offset 6, -16
	movq	%rsp, %rbp
	.cfi_def_cfa_register 6
	subq	$32, %rsp
	movq	%rdi, -24(%rbp)
	movq	%fs:40, %rax
	movq	%rax, -8(%rbp)
	xorl	%eax, %eax
	movq	-24(%rbp), %rdx
	leaq	-16(%rbp), %rax
	movq	%rdx, %rsi
	movq	%rax, %rdi
	call	_ZN3tbb8internal11atomic_implIPvE13ptr_converterIPS2_EC1ES5_
	movq	-16(%rbp), %rax
	movq	-8(%rbp), %rcx
	xorq	%fs:40, %rcx
	je	.L324
	call	__stack_chk_fail@PLT
.L324:
	leave
	.cfi_def_cfa 7, 8
	ret
	.cfi_endproc
.LFE5672:
	.size	_ZN3tbb8internal11atomic_implIPvE11to_bits_refIS2_EERNS3_9converterIT_E9bits_typeERS6_, .-_ZN3tbb8internal11atomic_implIPvE11to_bits_refIS2_EERNS3_9converterIT_E9bits_typeERS6_
	.section	.text._ZN3tbb8internal11atomic_implIPvE7to_bitsIS2_EENS3_9converterIT_E9bits_typeES6_,"axG",@progbits,_ZN3tbb8internal11atomic_implIPvE7to_bitsIS2_EENS3_9converterIT_E9bits_typeES6_,comdat
	.weak	_ZN3tbb8internal11atomic_implIPvE7to_bitsIS2_EENS3_9converterIT_E9bits_typeES6_
	.type	_ZN3tbb8internal11atomic_implIPvE7to_bitsIS2_EENS3_9converterIT_E9bits_typeES6_, @function
_ZN3tbb8internal11atomic_implIPvE7to_bitsIS2_EENS3_9converterIT_E9bits_typeES6_:
.LFB5673:
	.cfi_startproc
	pushq	%rbp
	.cfi_def_cfa_offset 16
	.cfi_offset 6, -16
	movq	%rsp, %rbp
	.cfi_def_cfa_register 6
	subq	$32, %rsp
	movq	%rdi, -24(%rbp)
	movq	%fs:40, %rax
	movq	%rax, -8(%rbp)
	xorl	%eax, %eax
	movq	-24(%rbp), %rdx
	leaq	-16(%rbp), %rax
	movq	%rdx, %rsi
	movq	%rax, %rdi
	call	_ZN3tbb8internal11atomic_implIPvE9converterIS2_EC1ES2_
	movq	-16(%rbp), %rax
	movq	-8(%rbp), %rcx
	xorq	%fs:40, %rcx
	je	.L327
	call	__stack_chk_fail@PLT
.L327:
	leave
	.cfi_def_cfa 7, 8
	ret
	.cfi_endproc
.LFE5673:
	.size	_ZN3tbb8internal11atomic_implIPvE7to_bitsIS2_EENS3_9converterIT_E9bits_typeES6_, .-_ZN3tbb8internal11atomic_implIPvE7to_bitsIS2_EENS3_9converterIT_E9bits_typeES6_
	.section	.text._ZN3tbb8internal11atomic_implIPvE8to_valueIS2_EET_NS3_9converterIS5_E9bits_typeE,"axG",@progbits,_ZN3tbb8internal11atomic_implIPvE8to_valueIS2_EET_NS3_9converterIS5_E9bits_typeE,comdat
	.weak	_ZN3tbb8internal11atomic_implIPvE8to_valueIS2_EET_NS3_9converterIS5_E9bits_typeE
	.type	_ZN3tbb8internal11atomic_implIPvE8to_valueIS2_EET_NS3_9converterIS5_E9bits_typeE, @function
_ZN3tbb8internal11atomic_implIPvE8to_valueIS2_EET_NS3_9converterIS5_E9bits_typeE:
.LFB5675:
	.cfi_startproc
	pushq	%rbp
	.cfi_def_cfa_offset 16
	.cfi_offset 6, -16
	movq	%rsp, %rbp
	.cfi_def_cfa_register 6
	subq	$32, %rsp
	movq	%rdi, -24(%rbp)
	movq	%fs:40, %rax
	movq	%rax, -8(%rbp)
	xorl	%eax, %eax
	leaq	-16(%rbp), %rax
	movq	%rax, %rdi
	call	_ZN3tbb8internal11atomic_implIPvE9converterIS2_EC1Ev
	movq	-24(%rbp), %rax
	movq	%rax, -16(%rbp)
	movq	-16(%rbp), %rax
	movq	-8(%rbp), %rdx
	xorq	%fs:40, %rdx
	je	.L330
	call	__stack_chk_fail@PLT
.L330:
	leave
	.cfi_def_cfa 7, 8
	ret
	.cfi_endproc
.LFE5675:
	.size	_ZN3tbb8internal11atomic_implIPvE8to_valueIS2_EET_NS3_9converterIS5_E9bits_typeE, .-_ZN3tbb8internal11atomic_implIPvE8to_valueIS2_EET_NS3_9converterIS5_E9bits_typeE
	.section	.text._ZN3tbb8internal11atomic_implIPvE11to_bits_refIKS2_EERNS3_9converterIT_E9bits_typeERS7_,"axG",@progbits,_ZN3tbb8internal11atomic_implIPvE11to_bits_refIKS2_EERNS3_9converterIT_E9bits_typeERS7_,comdat
	.weak	_ZN3tbb8internal11atomic_implIPvE11to_bits_refIKS2_EERNS3_9converterIT_E9bits_typeERS7_
	.type	_ZN3tbb8internal11atomic_implIPvE11to_bits_refIKS2_EERNS3_9converterIT_E9bits_typeERS7_, @function
_ZN3tbb8internal11atomic_implIPvE11to_bits_refIKS2_EERNS3_9converterIT_E9bits_typeERS7_:
.LFB5677:
	.cfi_startproc
	pushq	%rbp
	.cfi_def_cfa_offset 16
	.cfi_offset 6, -16
	movq	%rsp, %rbp
	.cfi_def_cfa_register 6
	subq	$32, %rsp
	movq	%rdi, -24(%rbp)
	movq	%fs:40, %rax
	movq	%rax, -8(%rbp)
	xorl	%eax, %eax
	movq	-24(%rbp), %rdx
	leaq	-16(%rbp), %rax
	movq	%rdx, %rsi
	movq	%rax, %rdi
	call	_ZN3tbb8internal11atomic_implIPvE13ptr_converterIPKS2_EC1ES6_
	movq	-16(%rbp), %rax
	movq	-8(%rbp), %rcx
	xorq	%fs:40, %rcx
	je	.L333
	call	__stack_chk_fail@PLT
.L333:
	leave
	.cfi_def_cfa 7, 8
	ret
	.cfi_endproc
.LFE5677:
	.size	_ZN3tbb8internal11atomic_implIPvE11to_bits_refIKS2_EERNS3_9converterIT_E9bits_typeERS7_, .-_ZN3tbb8internal11atomic_implIPvE11to_bits_refIKS2_EERNS3_9converterIT_E9bits_typeERS7_
	.section	.text._ZN3tbb8internal24atomic_load_store_traitsILNS_16memory_semanticsE3EE4loadIlEET_RVKS5_,"axG",@progbits,_ZN3tbb8internal24atomic_load_store_traitsILNS_16memory_semanticsE3EE4loadIlEET_RVKS5_,comdat
	.weak	_ZN3tbb8internal24atomic_load_store_traitsILNS_16memory_semanticsE3EE4loadIlEET_RVKS5_
	.type	_ZN3tbb8internal24atomic_load_store_traitsILNS_16memory_semanticsE3EE4loadIlEET_RVKS5_, @function
_ZN3tbb8internal24atomic_load_store_traitsILNS_16memory_semanticsE3EE4loadIlEET_RVKS5_:
.LFB5678:
	.cfi_startproc
	pushq	%rbp
	.cfi_def_cfa_offset 16
	.cfi_offset 6, -16
	movq	%rsp, %rbp
	.cfi_def_cfa_register 6
	subq	$16, %rsp
	movq	%rdi, -8(%rbp)
	movq	-8(%rbp), %rax
	movq	%rax, %rdi
	call	_ZN3tbb8internal18__TBB_load_relaxedIlEET_RVKS2_
	leave
	.cfi_def_cfa 7, 8
	ret
	.cfi_endproc
.LFE5678:
	.size	_ZN3tbb8internal24atomic_load_store_traitsILNS_16memory_semanticsE3EE4loadIlEET_RVKS5_, .-_ZN3tbb8internal24atomic_load_store_traitsILNS_16memory_semanticsE3EE4loadIlEET_RVKS5_
	.section	.text._ZN3tbb8internal24atomic_load_store_traitsILNS_16memory_semanticsE3EE5storeIlEEvRVT_S5_,"axG",@progbits,_ZN3tbb8internal24atomic_load_store_traitsILNS_16memory_semanticsE3EE5storeIlEEvRVT_S5_,comdat
	.weak	_ZN3tbb8internal24atomic_load_store_traitsILNS_16memory_semanticsE3EE5storeIlEEvRVT_S5_
	.type	_ZN3tbb8internal24atomic_load_store_traitsILNS_16memory_semanticsE3EE5storeIlEEvRVT_S5_, @function
_ZN3tbb8internal24atomic_load_store_traitsILNS_16memory_semanticsE3EE5storeIlEEvRVT_S5_:
.LFB5679:
	.cfi_startproc
	pushq	%rbp
	.cfi_def_cfa_offset 16
	.cfi_offset 6, -16
	movq	%rsp, %rbp
	.cfi_def_cfa_register 6
	subq	$16, %rsp
	movq	%rdi, -8(%rbp)
	movq	%rsi, -16(%rbp)
	movq	-16(%rbp), %rdx
	movq	-8(%rbp), %rax
	movq	%rdx, %rsi
	movq	%rax, %rdi
	call	_ZN3tbb8internal19__TBB_store_relaxedIllEEvRVT_T0_
	nop
	leave
	.cfi_def_cfa 7, 8
	ret
	.cfi_endproc
.LFE5679:
	.size	_ZN3tbb8internal24atomic_load_store_traitsILNS_16memory_semanticsE3EE5storeIlEEvRVT_S5_, .-_ZN3tbb8internal24atomic_load_store_traitsILNS_16memory_semanticsE3EE5storeIlEEvRVT_S5_
	.section	.text._ZN3tbb8internal11atomic_implIPNS0_25concurrent_vector_base_v39segment_tEE11to_bits_refIS4_EERNS5_9converterIT_E9bits_typeERS8_,"axG",@progbits,_ZN3tbb8internal11atomic_implIPNS0_25concurrent_vector_base_v39segment_tEE11to_bits_refIS4_EERNS5_9converterIT_E9bits_typeERS8_,comdat
	.weak	_ZN3tbb8internal11atomic_implIPNS0_25concurrent_vector_base_v39segment_tEE11to_bits_refIS4_EERNS5_9converterIT_E9bits_typeERS8_
	.type	_ZN3tbb8internal11atomic_implIPNS0_25concurrent_vector_base_v39segment_tEE11to_bits_refIS4_EERNS5_9converterIT_E9bits_typeERS8_, @function
_ZN3tbb8internal11atomic_implIPNS0_25concurrent_vector_base_v39segment_tEE11to_bits_refIS4_EERNS5_9converterIT_E9bits_typeERS8_:
.LFB5682:
	.cfi_startproc
	pushq	%rbp
	.cfi_def_cfa_offset 16
	.cfi_offset 6, -16
	movq	%rsp, %rbp
	.cfi_def_cfa_register 6
	subq	$32, %rsp
	movq	%rdi, -24(%rbp)
	movq	%fs:40, %rax
	movq	%rax, -8(%rbp)
	xorl	%eax, %eax
	movq	-24(%rbp), %rdx
	leaq	-16(%rbp), %rax
	movq	%rdx, %rsi
	movq	%rax, %rdi
	call	_ZN3tbb8internal11atomic_implIPNS0_25concurrent_vector_base_v39segment_tEE13ptr_converterIPS4_EC1ES7_
	movq	-16(%rbp), %rax
	movq	-8(%rbp), %rcx
	xorq	%fs:40, %rcx
	je	.L339
	call	__stack_chk_fail@PLT
.L339:
	leave
	.cfi_def_cfa 7, 8
	ret
	.cfi_endproc
.LFE5682:
	.size	_ZN3tbb8internal11atomic_implIPNS0_25concurrent_vector_base_v39segment_tEE11to_bits_refIS4_EERNS5_9converterIT_E9bits_typeERS8_, .-_ZN3tbb8internal11atomic_implIPNS0_25concurrent_vector_base_v39segment_tEE11to_bits_refIS4_EERNS5_9converterIT_E9bits_typeERS8_
	.section	.text._ZN3tbb8internal11atomic_implIPNS0_25concurrent_vector_base_v39segment_tEE7to_bitsIS4_EENS5_9converterIT_E9bits_typeES8_,"axG",@progbits,_ZN3tbb8internal11atomic_implIPNS0_25concurrent_vector_base_v39segment_tEE7to_bitsIS4_EENS5_9converterIT_E9bits_typeES8_,comdat
	.weak	_ZN3tbb8internal11atomic_implIPNS0_25concurrent_vector_base_v39segment_tEE7to_bitsIS4_EENS5_9converterIT_E9bits_typeES8_
	.type	_ZN3tbb8internal11atomic_implIPNS0_25concurrent_vector_base_v39segment_tEE7to_bitsIS4_EENS5_9converterIT_E9bits_typeES8_, @function
_ZN3tbb8internal11atomic_implIPNS0_25concurrent_vector_base_v39segment_tEE7to_bitsIS4_EENS5_9converterIT_E9bits_typeES8_:
.LFB5683:
	.cfi_startproc
	pushq	%rbp
	.cfi_def_cfa_offset 16
	.cfi_offset 6, -16
	movq	%rsp, %rbp
	.cfi_def_cfa_register 6
	subq	$32, %rsp
	movq	%rdi, -24(%rbp)
	movq	%fs:40, %rax
	movq	%rax, -8(%rbp)
	xorl	%eax, %eax
	movq	-24(%rbp), %rdx
	leaq	-16(%rbp), %rax
	movq	%rdx, %rsi
	movq	%rax, %rdi
	call	_ZN3tbb8internal11atomic_implIPNS0_25concurrent_vector_base_v39segment_tEE9converterIS4_EC1ES4_
	movq	-16(%rbp), %rax
	movq	-8(%rbp), %rcx
	xorq	%fs:40, %rcx
	je	.L342
	call	__stack_chk_fail@PLT
.L342:
	leave
	.cfi_def_cfa 7, 8
	ret
	.cfi_endproc
.LFE5683:
	.size	_ZN3tbb8internal11atomic_implIPNS0_25concurrent_vector_base_v39segment_tEE7to_bitsIS4_EENS5_9converterIT_E9bits_typeES8_, .-_ZN3tbb8internal11atomic_implIPNS0_25concurrent_vector_base_v39segment_tEE7to_bitsIS4_EENS5_9converterIT_E9bits_typeES8_
	.section	.text._ZN3tbb8internal11atomic_implImE16compare_and_swapILNS_16memory_semanticsE0EEEmmm,"axG",@progbits,_ZN3tbb8internal11atomic_implImE16compare_and_swapILNS_16memory_semanticsE0EEEmmm,comdat
	.align 2
	.weak	_ZN3tbb8internal11atomic_implImE16compare_and_swapILNS_16memory_semanticsE0EEEmmm
	.type	_ZN3tbb8internal11atomic_implImE16compare_and_swapILNS_16memory_semanticsE0EEEmmm, @function
_ZN3tbb8internal11atomic_implImE16compare_and_swapILNS_16memory_semanticsE0EEEmmm:
.LFB5684:
	.cfi_startproc
	pushq	%rbp
	.cfi_def_cfa_offset 16
	.cfi_offset 6, -16
	movq	%rsp, %rbp
	.cfi_def_cfa_register 6
	pushq	%rbx
	subq	$40, %rsp
	.cfi_offset 3, -24
	movq	%rdi, -24(%rbp)
	movq	%rsi, -32(%rbp)
	movq	%rdx, -40(%rbp)
	movq	-40(%rbp), %rax
	movq	%rax, %rdi
	call	_ZN3tbb8internal11atomic_implImE7to_bitsImEENS2_9converterIT_E9bits_typeES5_
	movq	%rax, %rbx
	movq	-32(%rbp), %rax
	movq	%rax, %rdi
	call	_ZN3tbb8internal11atomic_implImE7to_bitsImEENS2_9converterIT_E9bits_typeES5_
	movq	%rax, %rcx
	movq	-24(%rbp), %rax
	movq	%rbx, %rdx
	movq	%rcx, %rsi
	movq	%rax, %rdi
	call	_ZN3tbb8internal13atomic_traitsILm8ELNS_16memory_semanticsE0EE16compare_and_swapEPVvll
	movq	%rax, %rdi
	call	_ZN3tbb8internal11atomic_implImE8to_valueImEET_NS2_9converterIS4_E9bits_typeE
	addq	$40, %rsp
	popq	%rbx
	popq	%rbp
	.cfi_def_cfa 7, 8
	ret
	.cfi_endproc
.LFE5684:
	.size	_ZN3tbb8internal11atomic_implImE16compare_and_swapILNS_16memory_semanticsE0EEEmmm, .-_ZN3tbb8internal11atomic_implImE16compare_and_swapILNS_16memory_semanticsE0EEEmmm
	.section	.text._ZN3tbb6atomicIPNS_10interface68internal8ets_baseILNS_18ets_key_usage_typeE1EE5arrayEEaSES7_,"axG",@progbits,_ZN3tbb6atomicIPNS_10interface68internal8ets_baseILNS_18ets_key_usage_typeE1EE5arrayEEaSES7_,comdat
	.align 2
	.weak	_ZN3tbb6atomicIPNS_10interface68internal8ets_baseILNS_18ets_key_usage_typeE1EE5arrayEEaSES7_
	.type	_ZN3tbb6atomicIPNS_10interface68internal8ets_baseILNS_18ets_key_usage_typeE1EE5arrayEEaSES7_, @function
_ZN3tbb6atomicIPNS_10interface68internal8ets_baseILNS_18ets_key_usage_typeE1EE5arrayEEaSES7_:
.LFB5685:
	.cfi_startproc
	pushq	%rbp
	.cfi_def_cfa_offset 16
	.cfi_offset 6, -16
	movq	%rsp, %rbp
	.cfi_def_cfa_register 6
	subq	$16, %rsp
	movq	%rdi, -8(%rbp)
	movq	%rsi, -16(%rbp)
	movq	-8(%rbp), %rax
	movq	-16(%rbp), %rdx
	movq	%rdx, %rsi
	movq	%rax, %rdi
	call	_ZN3tbb8internal11atomic_implIPNS_10interface68internal8ets_baseILNS_18ets_key_usage_typeE1EE5arrayEE18store_with_releaseES8_
	leave
	.cfi_def_cfa 7, 8
	ret
	.cfi_endproc
.LFE5685:
	.size	_ZN3tbb6atomicIPNS_10interface68internal8ets_baseILNS_18ets_key_usage_typeE1EE5arrayEEaSES7_, .-_ZN3tbb6atomicIPNS_10interface68internal8ets_baseILNS_18ets_key_usage_typeE1EE5arrayEEaSES7_
	.section	.text._ZN3tbb8tbb_hashINS_8internal13tbb_thread_v32idEEC2Ev,"axG",@progbits,_ZN3tbb8tbb_hashINS_8internal13tbb_thread_v32idEEC5Ev,comdat
	.align 2
	.weak	_ZN3tbb8tbb_hashINS_8internal13tbb_thread_v32idEEC2Ev
	.type	_ZN3tbb8tbb_hashINS_8internal13tbb_thread_v32idEEC2Ev, @function
_ZN3tbb8tbb_hashINS_8internal13tbb_thread_v32idEEC2Ev:
.LFB5687:
	.cfi_startproc
	pushq	%rbp
	.cfi_def_cfa_offset 16
	.cfi_offset 6, -16
	movq	%rsp, %rbp
	.cfi_def_cfa_register 6
	movq	%rdi, -8(%rbp)
	nop
	popq	%rbp
	.cfi_def_cfa 7, 8
	ret
	.cfi_endproc
.LFE5687:
	.size	_ZN3tbb8tbb_hashINS_8internal13tbb_thread_v32idEEC2Ev, .-_ZN3tbb8tbb_hashINS_8internal13tbb_thread_v32idEEC2Ev
	.weak	_ZN3tbb8tbb_hashINS_8internal13tbb_thread_v32idEEC1Ev
	.set	_ZN3tbb8tbb_hashINS_8internal13tbb_thread_v32idEEC1Ev,_ZN3tbb8tbb_hashINS_8internal13tbb_thread_v32idEEC2Ev
	.section	.text._ZNK3tbb8tbb_hashINS_8internal13tbb_thread_v32idEEclERKS3_,"axG",@progbits,_ZNK3tbb8tbb_hashINS_8internal13tbb_thread_v32idEEclERKS3_,comdat
	.align 2
	.weak	_ZNK3tbb8tbb_hashINS_8internal13tbb_thread_v32idEEclERKS3_
	.type	_ZNK3tbb8tbb_hashINS_8internal13tbb_thread_v32idEEclERKS3_, @function
_ZNK3tbb8tbb_hashINS_8internal13tbb_thread_v32idEEclERKS3_:
.LFB5689:
	.cfi_startproc
	pushq	%rbp
	.cfi_def_cfa_offset 16
	.cfi_offset 6, -16
	movq	%rsp, %rbp
	.cfi_def_cfa_register 6
	subq	$16, %rsp
	movq	%rdi, -8(%rbp)
	movq	%rsi, -16(%rbp)
	movq	-16(%rbp), %rax
	movq	%rax, %rdi
	call	_ZN3tbb8internal10tbb_hasherERKNS0_13tbb_thread_v32idE
	leave
	.cfi_def_cfa 7, 8
	ret
	.cfi_endproc
.LFE5689:
	.size	_ZNK3tbb8tbb_hashINS_8internal13tbb_thread_v32idEEclERKS3_, .-_ZNK3tbb8tbb_hashINS_8internal13tbb_thread_v32idEEclERKS3_
	.section	.text._ZNVK3tbb8internal11atomic_implIPNS_10interface68internal8ets_baseILNS_18ets_key_usage_typeE1EE5arrayEEcvS8_Ev,"axG",@progbits,_ZNVK3tbb8internal11atomic_implIPNS_10interface68internal8ets_baseILNS_18ets_key_usage_typeE1EE5arrayEEcvS8_Ev,comdat
	.align 2
	.weak	_ZNVK3tbb8internal11atomic_implIPNS_10interface68internal8ets_baseILNS_18ets_key_usage_typeE1EE5arrayEEcvS8_Ev
	.type	_ZNVK3tbb8internal11atomic_implIPNS_10interface68internal8ets_baseILNS_18ets_key_usage_typeE1EE5arrayEEcvS8_Ev, @function
_ZNVK3tbb8internal11atomic_implIPNS_10interface68internal8ets_baseILNS_18ets_key_usage_typeE1EE5arrayEEcvS8_Ev:
.LFB5690:
	.cfi_startproc
	pushq	%rbp
	.cfi_def_cfa_offset 16
	.cfi_offset 6, -16
	movq	%rsp, %rbp
	.cfi_def_cfa_register 6
	subq	$16, %rsp
	movq	%rdi, -8(%rbp)
	movq	-8(%rbp), %rax
	movq	%rax, %rdi
	call	_ZN3tbb8internal11atomic_implIPNS_10interface68internal8ets_baseILNS_18ets_key_usage_typeE1EE5arrayEE11to_bits_refIVKS8_EERNS9_9converterIT_E9bits_typeERSD_
	movq	%rax, %rdi
	call	_ZN3tbb8internal23__TBB_load_with_acquireIlEET_RVKS2_
	movq	%rax, %rdi
	call	_ZN3tbb8internal11atomic_implIPNS_10interface68internal8ets_baseILNS_18ets_key_usage_typeE1EE5arrayEE8to_valueIS8_EET_NS9_9converterISB_E9bits_typeE
	leave
	.cfi_def_cfa 7, 8
	ret
	.cfi_endproc
.LFE5690:
	.size	_ZNVK3tbb8internal11atomic_implIPNS_10interface68internal8ets_baseILNS_18ets_key_usage_typeE1EE5arrayEEcvS8_Ev, .-_ZNVK3tbb8internal11atomic_implIPNS_10interface68internal8ets_baseILNS_18ets_key_usage_typeE1EE5arrayEEcvS8_Ev
	.section	.text._ZNK3tbb10interface68internal8ets_baseILNS_18ets_key_usage_typeE1EE5array4maskEv,"axG",@progbits,_ZNK3tbb10interface68internal8ets_baseILNS_18ets_key_usage_typeE1EE5array4maskEv,comdat
	.align 2
	.weak	_ZNK3tbb10interface68internal8ets_baseILNS_18ets_key_usage_typeE1EE5array4maskEv
	.type	_ZNK3tbb10interface68internal8ets_baseILNS_18ets_key_usage_typeE1EE5array4maskEv, @function
_ZNK3tbb10interface68internal8ets_baseILNS_18ets_key_usage_typeE1EE5array4maskEv:
.LFB5691:
	.cfi_startproc
	pushq	%rbp
	.cfi_def_cfa_offset 16
	.cfi_offset 6, -16
	movq	%rsp, %rbp
	.cfi_def_cfa_register 6
	subq	$16, %rsp
	movq	%rdi, -8(%rbp)
	movq	-8(%rbp), %rax
	movq	%rax, %rdi
	call	_ZNK3tbb10interface68internal8ets_baseILNS_18ets_key_usage_typeE1EE5array4sizeEv
	subq	$1, %rax
	leave
	.cfi_def_cfa 7, 8
	ret
	.cfi_endproc
.LFE5691:
	.size	_ZNK3tbb10interface68internal8ets_baseILNS_18ets_key_usage_typeE1EE5array4maskEv, .-_ZNK3tbb10interface68internal8ets_baseILNS_18ets_key_usage_typeE1EE5array4maskEv
	.section	.text._ZNK3tbb10interface68internal8ets_baseILNS_18ets_key_usage_typeE1EE5array5startEm,"axG",@progbits,_ZNK3tbb10interface68internal8ets_baseILNS_18ets_key_usage_typeE1EE5array5startEm,comdat
	.align 2
	.weak	_ZNK3tbb10interface68internal8ets_baseILNS_18ets_key_usage_typeE1EE5array5startEm
	.type	_ZNK3tbb10interface68internal8ets_baseILNS_18ets_key_usage_typeE1EE5array5startEm, @function
_ZNK3tbb10interface68internal8ets_baseILNS_18ets_key_usage_typeE1EE5array5startEm:
.LFB5692:
	.cfi_startproc
	pushq	%rbp
	.cfi_def_cfa_offset 16
	.cfi_offset 6, -16
	movq	%rsp, %rbp
	.cfi_def_cfa_register 6
	movq	%rdi, -8(%rbp)
	movq	%rsi, -16(%rbp)
	movq	-8(%rbp), %rax
	movq	8(%rax), %rax
	movl	$64, %edx
	subl	%eax, %edx
	movl	%edx, %eax
	movq	-16(%rbp), %rdx
	movl	%eax, %ecx
	shrq	%cl, %rdx
	movq	%rdx, %rax
	popq	%rbp
	.cfi_def_cfa 7, 8
	ret
	.cfi_endproc
.LFE5692:
	.size	_ZNK3tbb10interface68internal8ets_baseILNS_18ets_key_usage_typeE1EE5array5startEm, .-_ZNK3tbb10interface68internal8ets_baseILNS_18ets_key_usage_typeE1EE5array5startEm
	.section	.text._ZN3tbb10interface68internal8ets_baseILNS_18ets_key_usage_typeE1EE5array2atEm,"axG",@progbits,_ZN3tbb10interface68internal8ets_baseILNS_18ets_key_usage_typeE1EE5array2atEm,comdat
	.align 2
	.weak	_ZN3tbb10interface68internal8ets_baseILNS_18ets_key_usage_typeE1EE5array2atEm
	.type	_ZN3tbb10interface68internal8ets_baseILNS_18ets_key_usage_typeE1EE5array2atEm, @function
_ZN3tbb10interface68internal8ets_baseILNS_18ets_key_usage_typeE1EE5array2atEm:
.LFB5693:
	.cfi_startproc
	pushq	%rbp
	.cfi_def_cfa_offset 16
	.cfi_offset 6, -16
	movq	%rsp, %rbp
	.cfi_def_cfa_register 6
	movq	%rdi, -8(%rbp)
	movq	%rsi, -16(%rbp)
	movq	-16(%rbp), %rax
	addq	$1, %rax
	salq	$4, %rax
	movq	%rax, %rdx
	movq	-8(%rbp), %rax
	addq	%rdx, %rax
	popq	%rbp
	.cfi_def_cfa 7, 8
	ret
	.cfi_endproc
.LFE5693:
	.size	_ZN3tbb10interface68internal8ets_baseILNS_18ets_key_usage_typeE1EE5array2atEm, .-_ZN3tbb10interface68internal8ets_baseILNS_18ets_key_usage_typeE1EE5array2atEm
	.section	.text._ZNK3tbb10interface68internal8ets_baseILNS_18ets_key_usage_typeE1EE4slot5emptyEv,"axG",@progbits,_ZNK3tbb10interface68internal8ets_baseILNS_18ets_key_usage_typeE1EE4slot5emptyEv,comdat
	.align 2
	.weak	_ZNK3tbb10interface68internal8ets_baseILNS_18ets_key_usage_typeE1EE4slot5emptyEv
	.type	_ZNK3tbb10interface68internal8ets_baseILNS_18ets_key_usage_typeE1EE4slot5emptyEv, @function
_ZNK3tbb10interface68internal8ets_baseILNS_18ets_key_usage_typeE1EE4slot5emptyEv:
.LFB5694:
	.cfi_startproc
	pushq	%rbp
	.cfi_def_cfa_offset 16
	.cfi_offset 6, -16
	movq	%rsp, %rbp
	.cfi_def_cfa_register 6
	subq	$32, %rsp
	movq	%rdi, -24(%rbp)
	movq	%fs:40, %rax
	movq	%rax, -8(%rbp)
	xorl	%eax, %eax
	leaq	-16(%rbp), %rax
	movq	%rax, %rdi
	call	_ZN3tbb8internal13tbb_thread_v32idC1Ev
	movq	-16(%rbp), %rdx
	movq	-24(%rbp), %rax
	movq	%rdx, %rsi
	movq	(%rax), %rdi
	call	_ZN3tbb8internaleqENS0_13tbb_thread_v32idES2_
	movq	-8(%rbp), %rcx
	xorq	%fs:40, %rcx
	je	.L360
	call	__stack_chk_fail@PLT
.L360:
	leave
	.cfi_def_cfa 7, 8
	ret
	.cfi_endproc
.LFE5694:
	.size	_ZNK3tbb10interface68internal8ets_baseILNS_18ets_key_usage_typeE1EE4slot5emptyEv, .-_ZNK3tbb10interface68internal8ets_baseILNS_18ets_key_usage_typeE1EE4slot5emptyEv
	.section	.text._ZNK3tbb10interface68internal8ets_baseILNS_18ets_key_usage_typeE1EE4slot5matchENS_8internal13tbb_thread_v32idE,"axG",@progbits,_ZNK3tbb10interface68internal8ets_baseILNS_18ets_key_usage_typeE1EE4slot5matchENS_8internal13tbb_thread_v32idE,comdat
	.align 2
	.weak	_ZNK3tbb10interface68internal8ets_baseILNS_18ets_key_usage_typeE1EE4slot5matchENS_8internal13tbb_thread_v32idE
	.type	_ZNK3tbb10interface68internal8ets_baseILNS_18ets_key_usage_typeE1EE4slot5matchENS_8internal13tbb_thread_v32idE, @function
_ZNK3tbb10interface68internal8ets_baseILNS_18ets_key_usage_typeE1EE4slot5matchENS_8internal13tbb_thread_v32idE:
.LFB5695:
	.cfi_startproc
	pushq	%rbp
	.cfi_def_cfa_offset 16
	.cfi_offset 6, -16
	movq	%rsp, %rbp
	.cfi_def_cfa_register 6
	subq	$16, %rsp
	movq	%rdi, -8(%rbp)
	movq	%rsi, -16(%rbp)
	movq	-16(%rbp), %rdx
	movq	-8(%rbp), %rax
	movq	%rdx, %rsi
	movq	(%rax), %rdi
	call	_ZN3tbb8internaleqENS0_13tbb_thread_v32idES2_
	leave
	.cfi_def_cfa 7, 8
	ret
	.cfi_endproc
.LFE5695:
	.size	_ZNK3tbb10interface68internal8ets_baseILNS_18ets_key_usage_typeE1EE4slot5matchENS_8internal13tbb_thread_v32idE, .-_ZNK3tbb10interface68internal8ets_baseILNS_18ets_key_usage_typeE1EE4slot5matchENS_8internal13tbb_thread_v32idE
	.section	.text._ZN3tbb8internal27atomic_impl_with_arithmeticImmcEppEv,"axG",@progbits,_ZN3tbb8internal27atomic_impl_with_arithmeticImmcEppEv,comdat
	.align 2
	.weak	_ZN3tbb8internal27atomic_impl_with_arithmeticImmcEppEv
	.type	_ZN3tbb8internal27atomic_impl_with_arithmeticImmcEppEv, @function
_ZN3tbb8internal27atomic_impl_with_arithmeticImmcEppEv:
.LFB5696:
	.cfi_startproc
	pushq	%rbp
	.cfi_def_cfa_offset 16
	.cfi_offset 6, -16
	movq	%rsp, %rbp
	.cfi_def_cfa_register 6
	subq	$16, %rsp
	movq	%rdi, -8(%rbp)
	movq	-8(%rbp), %rax
	movl	$1, %esi
	movq	%rax, %rdi
	call	_ZN3tbb8internal27atomic_impl_with_arithmeticImmcE13fetch_and_addEm
	addq	$1, %rax
	leave
	.cfi_def_cfa 7, 8
	ret
	.cfi_endproc
.LFE5696:
	.size	_ZN3tbb8internal27atomic_impl_with_arithmeticImmcEppEv, .-_ZN3tbb8internal27atomic_impl_with_arithmeticImmcEppEv
	.section	.text._ZNK3tbb10interface68internal8ets_baseILNS_18ets_key_usage_typeE1EE5array4sizeEv,"axG",@progbits,_ZNK3tbb10interface68internal8ets_baseILNS_18ets_key_usage_typeE1EE5array4sizeEv,comdat
	.align 2
	.weak	_ZNK3tbb10interface68internal8ets_baseILNS_18ets_key_usage_typeE1EE5array4sizeEv
	.type	_ZNK3tbb10interface68internal8ets_baseILNS_18ets_key_usage_typeE1EE5array4sizeEv, @function
_ZNK3tbb10interface68internal8ets_baseILNS_18ets_key_usage_typeE1EE5array4sizeEv:
.LFB5697:
	.cfi_startproc
	pushq	%rbp
	.cfi_def_cfa_offset 16
	.cfi_offset 6, -16
	movq	%rsp, %rbp
	.cfi_def_cfa_register 6
	movq	%rdi, -8(%rbp)
	movq	-8(%rbp), %rax
	movq	8(%rax), %rax
	movl	$1, %edx
	movl	%eax, %ecx
	salq	%cl, %rdx
	movq	%rdx, %rax
	popq	%rbp
	.cfi_def_cfa 7, 8
	ret
	.cfi_endproc
.LFE5697:
	.size	_ZNK3tbb10interface68internal8ets_baseILNS_18ets_key_usage_typeE1EE5array4sizeEv, .-_ZNK3tbb10interface68internal8ets_baseILNS_18ets_key_usage_typeE1EE5array4sizeEv
	.section	.text._ZN3tbb10interface68internal8ets_baseILNS_18ets_key_usage_typeE1EE8allocateEm,"axG",@progbits,_ZN3tbb10interface68internal8ets_baseILNS_18ets_key_usage_typeE1EE8allocateEm,comdat
	.align 2
	.weak	_ZN3tbb10interface68internal8ets_baseILNS_18ets_key_usage_typeE1EE8allocateEm
	.type	_ZN3tbb10interface68internal8ets_baseILNS_18ets_key_usage_typeE1EE8allocateEm, @function
_ZN3tbb10interface68internal8ets_baseILNS_18ets_key_usage_typeE1EE8allocateEm:
.LFB5698:
	.cfi_startproc
	pushq	%rbp
	.cfi_def_cfa_offset 16
	.cfi_offset 6, -16
	movq	%rsp, %rbp
	.cfi_def_cfa_register 6
	subq	$32, %rsp
	movq	%rdi, -24(%rbp)
	movq	%rsi, -32(%rbp)
	movq	-32(%rbp), %rax
	movl	$1, %edx
	movl	%eax, %ecx
	salq	%cl, %rdx
	movq	%rdx, %rax
	movq	%rax, -16(%rbp)
	movq	-24(%rbp), %rax
	movq	(%rax), %rax
	addq	$8, %rax
	movq	(%rax), %rax
	movq	-16(%rbp), %rdx
	addq	$1, %rdx
	movq	%rdx, %rcx
	salq	$4, %rcx
	movq	-24(%rbp), %rdx
	movq	%rcx, %rsi
	movq	%rdx, %rdi
	call	*%rax
	movq	%rax, -8(%rbp)
	movq	-8(%rbp), %rax
	movq	-32(%rbp), %rdx
	movq	%rdx, 8(%rax)
	movq	-16(%rbp), %rax
	salq	$4, %rax
	movq	%rax, %rdx
	movq	-8(%rbp), %rax
	addq	$16, %rax
	movl	$0, %esi
	movq	%rax, %rdi
	call	memset@PLT
	movq	-8(%rbp), %rax
	leave
	.cfi_def_cfa 7, 8
	ret
	.cfi_endproc
.LFE5698:
	.size	_ZN3tbb10interface68internal8ets_baseILNS_18ets_key_usage_typeE1EE8allocateEm, .-_ZN3tbb10interface68internal8ets_baseILNS_18ets_key_usage_typeE1EE8allocateEm
	.section	.text._ZN3tbb8internal11atomic_implIPNS_10interface68internal8ets_baseILNS_18ets_key_usage_typeE1EE5arrayEE16compare_and_swapES8_S8_,"axG",@progbits,_ZN3tbb8internal11atomic_implIPNS_10interface68internal8ets_baseILNS_18ets_key_usage_typeE1EE5arrayEE16compare_and_swapES8_S8_,comdat
	.align 2
	.weak	_ZN3tbb8internal11atomic_implIPNS_10interface68internal8ets_baseILNS_18ets_key_usage_typeE1EE5arrayEE16compare_and_swapES8_S8_
	.type	_ZN3tbb8internal11atomic_implIPNS_10interface68internal8ets_baseILNS_18ets_key_usage_typeE1EE5arrayEE16compare_and_swapES8_S8_, @function
_ZN3tbb8internal11atomic_implIPNS_10interface68internal8ets_baseILNS_18ets_key_usage_typeE1EE5arrayEE16compare_and_swapES8_S8_:
.LFB5699:
	.cfi_startproc
	pushq	%rbp
	.cfi_def_cfa_offset 16
	.cfi_offset 6, -16
	movq	%rsp, %rbp
	.cfi_def_cfa_register 6
	subq	$32, %rsp
	movq	%rdi, -8(%rbp)
	movq	%rsi, -16(%rbp)
	movq	%rdx, -24(%rbp)
	movq	-24(%rbp), %rdx
	movq	-16(%rbp), %rcx
	movq	-8(%rbp), %rax
	movq	%rcx, %rsi
	movq	%rax, %rdi
	call	_ZN3tbb8internal11atomic_implIPNS_10interface68internal8ets_baseILNS_18ets_key_usage_typeE1EE5arrayEE16compare_and_swapILNS_16memory_semanticsE0EEES8_S8_S8_
	leave
	.cfi_def_cfa 7, 8
	ret
	.cfi_endproc
.LFE5699:
	.size	_ZN3tbb8internal11atomic_implIPNS_10interface68internal8ets_baseILNS_18ets_key_usage_typeE1EE5arrayEE16compare_and_swapES8_S8_, .-_ZN3tbb8internal11atomic_implIPNS_10interface68internal8ets_baseILNS_18ets_key_usage_typeE1EE5arrayEE16compare_and_swapES8_S8_
	.section	.text._ZN3tbb10interface68internal8ets_baseILNS_18ets_key_usage_typeE1EE4freeEPNS4_5arrayE,"axG",@progbits,_ZN3tbb10interface68internal8ets_baseILNS_18ets_key_usage_typeE1EE4freeEPNS4_5arrayE,comdat
	.align 2
	.weak	_ZN3tbb10interface68internal8ets_baseILNS_18ets_key_usage_typeE1EE4freeEPNS4_5arrayE
	.type	_ZN3tbb10interface68internal8ets_baseILNS_18ets_key_usage_typeE1EE4freeEPNS4_5arrayE, @function
_ZN3tbb10interface68internal8ets_baseILNS_18ets_key_usage_typeE1EE4freeEPNS4_5arrayE:
.LFB5700:
	.cfi_startproc
	pushq	%rbp
	.cfi_def_cfa_offset 16
	.cfi_offset 6, -16
	movq	%rsp, %rbp
	.cfi_def_cfa_register 6
	subq	$32, %rsp
	movq	%rdi, -24(%rbp)
	movq	%rsi, -32(%rbp)
	movq	-32(%rbp), %rax
	movq	8(%rax), %rax
	movl	$1, %edx
	movl	%eax, %ecx
	salq	%cl, %rdx
	movq	%rdx, %rax
	movq	%rax, -8(%rbp)
	movq	-24(%rbp), %rax
	movq	(%rax), %rax
	addq	$16, %rax
	movq	(%rax), %rax
	movq	-8(%rbp), %rdx
	addq	$1, %rdx
	salq	$4, %rdx
	movq	-32(%rbp), %rsi
	movq	-24(%rbp), %rcx
	movq	%rcx, %rdi
	call	*%rax
	nop
	leave
	.cfi_def_cfa 7, 8
	ret
	.cfi_endproc
.LFE5700:
	.size	_ZN3tbb10interface68internal8ets_baseILNS_18ets_key_usage_typeE1EE4freeEPNS4_5arrayE, .-_ZN3tbb10interface68internal8ets_baseILNS_18ets_key_usage_typeE1EE4freeEPNS4_5arrayE
	.section	.text._ZN3tbb10interface68internal8ets_baseILNS_18ets_key_usage_typeE1EE4slot5claimENS_8internal13tbb_thread_v32idE,"axG",@progbits,_ZN3tbb10interface68internal8ets_baseILNS_18ets_key_usage_typeE1EE4slot5claimENS_8internal13tbb_thread_v32idE,comdat
	.align 2
	.weak	_ZN3tbb10interface68internal8ets_baseILNS_18ets_key_usage_typeE1EE4slot5claimENS_8internal13tbb_thread_v32idE
	.type	_ZN3tbb10interface68internal8ets_baseILNS_18ets_key_usage_typeE1EE4slot5claimENS_8internal13tbb_thread_v32idE, @function
_ZN3tbb10interface68internal8ets_baseILNS_18ets_key_usage_typeE1EE4slot5claimENS_8internal13tbb_thread_v32idE:
.LFB5701:
	.cfi_startproc
	pushq	%rbp
	.cfi_def_cfa_offset 16
	.cfi_offset 6, -16
	movq	%rsp, %rbp
	.cfi_def_cfa_register 6
	subq	$48, %rsp
	movq	%rdi, -40(%rbp)
	movq	%rsi, -48(%rbp)
	movq	%fs:40, %rax
	movq	%rax, -8(%rbp)
	xorl	%eax, %eax
	leaq	-16(%rbp), %rax
	movq	%rax, %rdi
	call	_ZN3tbb8internal13tbb_thread_v32idC1Ev
	leaq	-24(%rbp), %rax
	movq	%rax, %rdi
	call	_ZN3tbb8internal13tbb_thread_v32idC1Ev
	movq	-40(%rbp), %rax
	leaq	-24(%rbp), %rdx
	leaq	-48(%rbp), %rcx
	movq	%rcx, %rsi
	movq	%rax, %rdi
	call	_ZN3tbb8internal23atomic_compare_and_swapERNS0_13tbb_thread_v32idERKS2_S5_
	movq	%rax, %rdx
	movq	-16(%rbp), %rax
	movq	%rax, %rsi
	movq	%rdx, %rdi
	call	_ZN3tbb8internaleqENS0_13tbb_thread_v32idES2_
	movq	-8(%rbp), %rcx
	xorq	%fs:40, %rcx
	je	.L374
	call	__stack_chk_fail@PLT
.L374:
	leave
	.cfi_def_cfa 7, 8
	ret
	.cfi_endproc
.LFE5701:
	.size	_ZN3tbb10interface68internal8ets_baseILNS_18ets_key_usage_typeE1EE4slot5claimENS_8internal13tbb_thread_v32idE, .-_ZN3tbb10interface68internal8ets_baseILNS_18ets_key_usage_typeE1EE4slot5claimENS_8internal13tbb_thread_v32idE
	.section	.text._ZN3tbb8internal11atomic_implIbE18store_with_releaseEb,"axG",@progbits,_ZN3tbb8internal11atomic_implIbE18store_with_releaseEb,comdat
	.align 2
	.weak	_ZN3tbb8internal11atomic_implIbE18store_with_releaseEb
	.type	_ZN3tbb8internal11atomic_implIbE18store_with_releaseEb, @function
_ZN3tbb8internal11atomic_implIbE18store_with_releaseEb:
.LFB5704:
	.cfi_startproc
	pushq	%rbp
	.cfi_def_cfa_offset 16
	.cfi_offset 6, -16
	movq	%rsp, %rbp
	.cfi_def_cfa_register 6
	pushq	%rbx
	subq	$24, %rsp
	.cfi_offset 3, -24
	movq	%rdi, -24(%rbp)
	movl	%esi, %eax
	movb	%al, -28(%rbp)
	movzbl	-28(%rbp), %eax
	movl	%eax, %edi
	call	_ZN3tbb8internal11atomic_implIbE7to_bitsIbEENS2_9converterIT_E9bits_typeES5_
	movsbl	%al, %ebx
	movq	-24(%rbp), %rax
	movq	%rax, %rdi
	call	_ZN3tbb8internal11atomic_implIbE11to_bits_refIbEERNS2_9converterIT_E9bits_typeERS5_
	movl	%ebx, %esi
	movq	%rax, %rdi
	call	_ZN3tbb8internal24__TBB_store_with_releaseIaaEEvRVT_T0_
	movzbl	-28(%rbp), %eax
	addq	$24, %rsp
	popq	%rbx
	popq	%rbp
	.cfi_def_cfa 7, 8
	ret
	.cfi_endproc
.LFE5704:
	.size	_ZN3tbb8internal11atomic_implIbE18store_with_releaseEb, .-_ZN3tbb8internal11atomic_implIbE18store_with_releaseEb
	.section	.text._ZN3tbb8internal11atomic_implIbE11to_bits_refIVKbEERNS2_9converterIT_E9bits_typeERS6_,"axG",@progbits,_ZN3tbb8internal11atomic_implIbE11to_bits_refIVKbEERNS2_9converterIT_E9bits_typeERS6_,comdat
	.weak	_ZN3tbb8internal11atomic_implIbE11to_bits_refIVKbEERNS2_9converterIT_E9bits_typeERS6_
	.type	_ZN3tbb8internal11atomic_implIbE11to_bits_refIVKbEERNS2_9converterIT_E9bits_typeERS6_, @function
_ZN3tbb8internal11atomic_implIbE11to_bits_refIVKbEERNS2_9converterIT_E9bits_typeERS6_:
.LFB5705:
	.cfi_startproc
	pushq	%rbp
	.cfi_def_cfa_offset 16
	.cfi_offset 6, -16
	movq	%rsp, %rbp
	.cfi_def_cfa_register 6
	subq	$32, %rsp
	movq	%rdi, -24(%rbp)
	movq	%fs:40, %rax
	movq	%rax, -8(%rbp)
	xorl	%eax, %eax
	movq	-24(%rbp), %rdx
	leaq	-16(%rbp), %rax
	movq	%rdx, %rsi
	movq	%rax, %rdi
	call	_ZN3tbb8internal11atomic_implIbE13ptr_converterIPVKbEC1ES5_
	movq	-16(%rbp), %rax
	movq	-8(%rbp), %rcx
	xorq	%fs:40, %rcx
	je	.L379
	call	__stack_chk_fail@PLT
.L379:
	leave
	.cfi_def_cfa 7, 8
	ret
	.cfi_endproc
.LFE5705:
	.size	_ZN3tbb8internal11atomic_implIbE11to_bits_refIVKbEERNS2_9converterIT_E9bits_typeERS6_, .-_ZN3tbb8internal11atomic_implIbE11to_bits_refIVKbEERNS2_9converterIT_E9bits_typeERS6_
	.section	.text._ZN3tbb8internal11atomic_implIbE8to_valueIbEET_NS2_9converterIS4_E9bits_typeE,"axG",@progbits,_ZN3tbb8internal11atomic_implIbE8to_valueIbEET_NS2_9converterIS4_E9bits_typeE,comdat
	.weak	_ZN3tbb8internal11atomic_implIbE8to_valueIbEET_NS2_9converterIS4_E9bits_typeE
	.type	_ZN3tbb8internal11atomic_implIbE8to_valueIbEET_NS2_9converterIS4_E9bits_typeE, @function
_ZN3tbb8internal11atomic_implIbE8to_valueIbEET_NS2_9converterIS4_E9bits_typeE:
.LFB5706:
	.cfi_startproc
	pushq	%rbp
	.cfi_def_cfa_offset 16
	.cfi_offset 6, -16
	movq	%rsp, %rbp
	.cfi_def_cfa_register 6
	subq	$32, %rsp
	movl	%edi, %eax
	movb	%al, -20(%rbp)
	movq	%fs:40, %rax
	movq	%rax, -8(%rbp)
	xorl	%eax, %eax
	leaq	-9(%rbp), %rax
	movq	%rax, %rdi
	call	_ZN3tbb8internal11atomic_implIbE9converterIbEC1Ev
	movzbl	-20(%rbp), %eax
	movb	%al, -9(%rbp)
	movzbl	-9(%rbp), %eax
	movq	-8(%rbp), %rdx
	xorq	%fs:40, %rdx
	je	.L382
	call	__stack_chk_fail@PLT
.L382:
	leave
	.cfi_def_cfa 7, 8
	ret
	.cfi_endproc
.LFE5706:
	.size	_ZN3tbb8internal11atomic_implIbE8to_valueIbEET_NS2_9converterIS4_E9bits_typeE, .-_ZN3tbb8internal11atomic_implIbE8to_valueIbEET_NS2_9converterIS4_E9bits_typeE
	.section	.text._ZN3tbb10interface98internal26unbalancing_partition_typeINS1_13adaptive_modeINS1_19auto_partition_typeEEEEC2Ev,"axG",@progbits,_ZN3tbb10interface98internal26unbalancing_partition_typeINS1_13adaptive_modeINS1_19auto_partition_typeEEEEC5Ev,comdat
	.align 2
	.weak	_ZN3tbb10interface98internal26unbalancing_partition_typeINS1_13adaptive_modeINS1_19auto_partition_typeEEEEC2Ev
	.type	_ZN3tbb10interface98internal26unbalancing_partition_typeINS1_13adaptive_modeINS1_19auto_partition_typeEEEEC2Ev, @function
_ZN3tbb10interface98internal26unbalancing_partition_typeINS1_13adaptive_modeINS1_19auto_partition_typeEEEEC2Ev:
.LFB5708:
	.cfi_startproc
	pushq	%rbp
	.cfi_def_cfa_offset 16
	.cfi_offset 6, -16
	movq	%rsp, %rbp
	.cfi_def_cfa_register 6
	subq	$16, %rsp
	movq	%rdi, -8(%rbp)
	movq	-8(%rbp), %rax
	movq	%rax, %rdi
	call	_ZN3tbb10interface98internal13adaptive_modeINS1_19auto_partition_typeEEC2Ev
	nop
	leave
	.cfi_def_cfa 7, 8
	ret
	.cfi_endproc
.LFE5708:
	.size	_ZN3tbb10interface98internal26unbalancing_partition_typeINS1_13adaptive_modeINS1_19auto_partition_typeEEEEC2Ev, .-_ZN3tbb10interface98internal26unbalancing_partition_typeINS1_13adaptive_modeINS1_19auto_partition_typeEEEEC2Ev
	.weak	_ZN3tbb10interface98internal26unbalancing_partition_typeINS1_13adaptive_modeINS1_19auto_partition_typeEEEEC1Ev
	.set	_ZN3tbb10interface98internal26unbalancing_partition_typeINS1_13adaptive_modeINS1_19auto_partition_typeEEEEC1Ev,_ZN3tbb10interface98internal26unbalancing_partition_typeINS1_13adaptive_modeINS1_19auto_partition_typeEEEEC2Ev
	.section	.text._ZN3tbb10interface98internal26unbalancing_partition_typeINS1_13adaptive_modeINS1_19auto_partition_typeEEEEC2ERS6_NS_5splitE,"axG",@progbits,_ZN3tbb10interface98internal26unbalancing_partition_typeINS1_13adaptive_modeINS1_19auto_partition_typeEEEEC5ERS6_NS_5splitE,comdat
	.align 2
	.weak	_ZN3tbb10interface98internal26unbalancing_partition_typeINS1_13adaptive_modeINS1_19auto_partition_typeEEEEC2ERS6_NS_5splitE
	.type	_ZN3tbb10interface98internal26unbalancing_partition_typeINS1_13adaptive_modeINS1_19auto_partition_typeEEEEC2ERS6_NS_5splitE, @function
_ZN3tbb10interface98internal26unbalancing_partition_typeINS1_13adaptive_modeINS1_19auto_partition_typeEEEEC2ERS6_NS_5splitE:
.LFB5711:
	.cfi_startproc
	pushq	%rbp
	.cfi_def_cfa_offset 16
	.cfi_offset 6, -16
	movq	%rsp, %rbp
	.cfi_def_cfa_register 6
	subq	$32, %rsp
	movq	%rdi, -24(%rbp)
	movq	%rsi, -32(%rbp)
	movq	%fs:40, %rax
	movq	%rax, -8(%rbp)
	xorl	%eax, %eax
	movq	-24(%rbp), %rax
	movq	-32(%rbp), %rdx
	subq	$8, %rsp
	pushq	%rcx
	movq	%rdx, %rsi
	movq	%rax, %rdi
	call	_ZN3tbb10interface98internal13adaptive_modeINS1_19auto_partition_typeEEC2ERS4_NS_5splitE
	addq	$16, %rsp
	nop
	movq	-8(%rbp), %rax
	xorq	%fs:40, %rax
	je	.L385
	call	__stack_chk_fail@PLT
.L385:
	leave
	.cfi_def_cfa 7, 8
	ret
	.cfi_endproc
.LFE5711:
	.size	_ZN3tbb10interface98internal26unbalancing_partition_typeINS1_13adaptive_modeINS1_19auto_partition_typeEEEEC2ERS6_NS_5splitE, .-_ZN3tbb10interface98internal26unbalancing_partition_typeINS1_13adaptive_modeINS1_19auto_partition_typeEEEEC2ERS6_NS_5splitE
	.weak	_ZN3tbb10interface98internal26unbalancing_partition_typeINS1_13adaptive_modeINS1_19auto_partition_typeEEEEC1ERS6_NS_5splitE
	.set	_ZN3tbb10interface98internal26unbalancing_partition_typeINS1_13adaptive_modeINS1_19auto_partition_typeEEEEC1ERS6_NS_5splitE,_ZN3tbb10interface98internal26unbalancing_partition_typeINS1_13adaptive_modeINS1_19auto_partition_typeEEEEC2ERS6_NS_5splitE
	.section	.text._ZN3tbb10interface68internal13callback_leafI17thread_local_varsNS1_17construct_by_argsIS3_JjEEEE4makeIJjEEEPNS1_13callback_baseIS3_EEDpOT_,"axG",@progbits,_ZN3tbb10interface68internal13callback_leafI17thread_local_varsNS1_17construct_by_argsIS3_JjEEEE4makeIJjEEEPNS1_13callback_baseIS3_EEDpOT_,comdat
	.weak	_ZN3tbb10interface68internal13callback_leafI17thread_local_varsNS1_17construct_by_argsIS3_JjEEEE4makeIJjEEEPNS1_13callback_baseIS3_EEDpOT_
	.type	_ZN3tbb10interface68internal13callback_leafI17thread_local_varsNS1_17construct_by_argsIS3_JjEEEE4makeIJjEEEPNS1_13callback_baseIS3_EEDpOT_, @function
_ZN3tbb10interface68internal13callback_leafI17thread_local_varsNS1_17construct_by_argsIS3_JjEEEE4makeIJjEEEPNS1_13callback_baseIS3_EEDpOT_:
.LFB5731:
	.cfi_startproc
	.cfi_personality 0x9b,DW.ref.__gxx_personality_v0
	.cfi_lsda 0x1b,.LLSDA5731
	pushq	%rbp
	.cfi_def_cfa_offset 16
	.cfi_offset 6, -16
	movq	%rsp, %rbp
	.cfi_def_cfa_register 6
	pushq	%r13
	pushq	%r12
	pushq	%rbx
	subq	$56, %rsp
	.cfi_offset 13, -24
	.cfi_offset 12, -32
	.cfi_offset 3, -40
	movq	%rdi, -72(%rbp)
	movq	%fs:40, %rax
	movq	%rax, -40(%rbp)
	xorl	%eax, %eax
	leaq	-49(%rbp), %rax
	movq	%rax, %rdi
	call	_ZN3tbb13tbb_allocatorINS_10interface68internal13callback_leafI17thread_local_varsNS2_17construct_by_argsIS4_JjEEEEEEC1Ev
	leaq	-49(%rbp), %rax
	movl	$0, %edx
	movl	$1, %esi
	movq	%rax, %rdi
.LEHB15:
	call	_ZN3tbb13tbb_allocatorINS_10interface68internal13callback_leafI17thread_local_varsNS2_17construct_by_argsIS4_JjEEEEEE8allocateEmPKv
.LEHE15:
	movq	%rax, -48(%rbp)
	movq	-72(%rbp), %rax
	movq	%rax, %rdi
	call	_ZSt7forwardIjEOT_RNSt16remove_referenceIS0_E4typeE
	movq	%rax, %r13
	movq	-48(%rbp), %r12
	movq	%r12, %rsi
	movl	$16, %edi
	call	_ZnwmPv
	movq	%rax, %rbx
	testq	%rbx, %rbx
	je	.L387
	movq	%r13, %rsi
	movq	%rbx, %rdi
.LEHB16:
	call	_ZN3tbb10interface68internal13callback_leafI17thread_local_varsNS1_17construct_by_argsIS3_JjEEEEC1IJjEEEDpOT_
.LEHE16:
	movq	%rbx, %rax
	jmp	.L389
.L387:
	movq	%rbx, %rax
.L389:
	movq	-40(%rbp), %rcx
	xorq	%fs:40, %rcx
	je	.L391
	jmp	.L393
.L392:
	movq	%rax, %r13
	movq	%r12, %rsi
	movq	%rbx, %rdi
	call	_ZdlPvS_
	movq	%r13, %rax
	movq	%rax, %rdi
.LEHB17:
	call	_Unwind_Resume@PLT
.LEHE17:
.L393:
	call	__stack_chk_fail@PLT
.L391:
	addq	$56, %rsp
	popq	%rbx
	popq	%r12
	popq	%r13
	popq	%rbp
	.cfi_def_cfa 7, 8
	ret
	.cfi_endproc
.LFE5731:
	.section	.gcc_except_table
.LLSDA5731:
	.byte	0xff
	.byte	0xff
	.byte	0x1
	.uleb128 .LLSDACSE5731-.LLSDACSB5731
.LLSDACSB5731:
	.uleb128 .LEHB15-.LFB5731
	.uleb128 .LEHE15-.LEHB15
	.uleb128 0
	.uleb128 0
	.uleb128 .LEHB16-.LFB5731
	.uleb128 .LEHE16-.LEHB16
	.uleb128 .L392-.LFB5731
	.uleb128 0
	.uleb128 .LEHB17-.LFB5731
	.uleb128 .LEHE17-.LEHB17
	.uleb128 0
	.uleb128 0
.LLSDACSE5731:
	.section	.text._ZN3tbb10interface68internal13callback_leafI17thread_local_varsNS1_17construct_by_argsIS3_JjEEEE4makeIJjEEEPNS1_13callback_baseIS3_EEDpOT_,"axG",@progbits,_ZN3tbb10interface68internal13callback_leafI17thread_local_varsNS1_17construct_by_argsIS3_JjEEEE4makeIJjEEEPNS1_13callback_baseIS3_EEDpOT_,comdat
	.size	_ZN3tbb10interface68internal13callback_leafI17thread_local_varsNS1_17construct_by_argsIS3_JjEEEE4makeIJjEEEPNS1_13callback_baseIS3_EEDpOT_, .-_ZN3tbb10interface68internal13callback_leafI17thread_local_varsNS1_17construct_by_argsIS3_JjEEEE4makeIJjEEEPNS1_13callback_baseIS3_EEDpOT_
	.section	.text._ZN3tbb23cache_aligned_allocatorINS_8internal6paddedINS_10interface68internal11ets_elementI17thread_local_varsEELm128EEEEC2Ev,"axG",@progbits,_ZN3tbb23cache_aligned_allocatorINS_8internal6paddedINS_10interface68internal11ets_elementI17thread_local_varsEELm128EEEEC5Ev,comdat
	.align 2
	.weak	_ZN3tbb23cache_aligned_allocatorINS_8internal6paddedINS_10interface68internal11ets_elementI17thread_local_varsEELm128EEEEC2Ev
	.type	_ZN3tbb23cache_aligned_allocatorINS_8internal6paddedINS_10interface68internal11ets_elementI17thread_local_varsEELm128EEEEC2Ev, @function
_ZN3tbb23cache_aligned_allocatorINS_8internal6paddedINS_10interface68internal11ets_elementI17thread_local_varsEELm128EEEEC2Ev:
.LFB5733:
	.cfi_startproc
	pushq	%rbp
	.cfi_def_cfa_offset 16
	.cfi_offset 6, -16
	movq	%rsp, %rbp
	.cfi_def_cfa_register 6
	movq	%rdi, -8(%rbp)
	nop
	popq	%rbp
	.cfi_def_cfa 7, 8
	ret
	.cfi_endproc
.LFE5733:
	.size	_ZN3tbb23cache_aligned_allocatorINS_8internal6paddedINS_10interface68internal11ets_elementI17thread_local_varsEELm128EEEEC2Ev, .-_ZN3tbb23cache_aligned_allocatorINS_8internal6paddedINS_10interface68internal11ets_elementI17thread_local_varsEELm128EEEEC2Ev
	.weak	_ZN3tbb23cache_aligned_allocatorINS_8internal6paddedINS_10interface68internal11ets_elementI17thread_local_varsEELm128EEEEC1Ev
	.set	_ZN3tbb23cache_aligned_allocatorINS_8internal6paddedINS_10interface68internal11ets_elementI17thread_local_varsEELm128EEEEC1Ev,_ZN3tbb23cache_aligned_allocatorINS_8internal6paddedINS_10interface68internal11ets_elementI17thread_local_varsEELm128EEEEC2Ev
	.section	.text._ZN3tbb17concurrent_vectorINS_8internal6paddedINS_10interface68internal11ets_elementI17thread_local_varsEELm128EEENS_23cache_aligned_allocatorIS8_EEEC2ERKSA_,"axG",@progbits,_ZN3tbb17concurrent_vectorINS_8internal6paddedINS_10interface68internal11ets_elementI17thread_local_varsEELm128EEENS_23cache_aligned_allocatorIS8_EEEC5ERKSA_,comdat
	.align 2
	.weak	_ZN3tbb17concurrent_vectorINS_8internal6paddedINS_10interface68internal11ets_elementI17thread_local_varsEELm128EEENS_23cache_aligned_allocatorIS8_EEEC2ERKSA_
	.type	_ZN3tbb17concurrent_vectorINS_8internal6paddedINS_10interface68internal11ets_elementI17thread_local_varsEELm128EEENS_23cache_aligned_allocatorIS8_EEEC2ERKSA_, @function
_ZN3tbb17concurrent_vectorINS_8internal6paddedINS_10interface68internal11ets_elementI17thread_local_varsEELm128EEENS_23cache_aligned_allocatorIS8_EEEC2ERKSA_:
.LFB5736:
	.cfi_startproc
	pushq	%rbp
	.cfi_def_cfa_offset 16
	.cfi_offset 6, -16
	movq	%rsp, %rbp
	.cfi_def_cfa_register 6
	subq	$16, %rsp
	movq	%rdi, -8(%rbp)
	movq	%rsi, -16(%rbp)
	movq	-8(%rbp), %rax
	movq	-16(%rbp), %rdx
	movq	%rdx, %rsi
	movq	%rax, %rdi
	call	_ZN3tbb8internal14allocator_baseINS0_6paddedINS_10interface68internal11ets_elementI17thread_local_varsEELm128EEENS_23cache_aligned_allocatorIS8_EEEC2ERKSA_
	movq	-8(%rbp), %rax
	addq	$8, %rax
	movq	%rax, %rdi
	call	_ZN3tbb8internal25concurrent_vector_base_v3C2Ev
	movq	-8(%rbp), %rax
	leaq	_ZN3tbb17concurrent_vectorINS_8internal6paddedINS_10interface68internal11ets_elementI17thread_local_varsEELm128EEENS_23cache_aligned_allocatorIS8_EEE18internal_allocatorERNS1_25concurrent_vector_base_v3Em(%rip), %rdx
	movq	%rdx, 8(%rax)
	nop
	leave
	.cfi_def_cfa 7, 8
	ret
	.cfi_endproc
.LFE5736:
	.size	_ZN3tbb17concurrent_vectorINS_8internal6paddedINS_10interface68internal11ets_elementI17thread_local_varsEELm128EEENS_23cache_aligned_allocatorIS8_EEEC2ERKSA_, .-_ZN3tbb17concurrent_vectorINS_8internal6paddedINS_10interface68internal11ets_elementI17thread_local_varsEELm128EEENS_23cache_aligned_allocatorIS8_EEEC2ERKSA_
	.weak	_ZN3tbb17concurrent_vectorINS_8internal6paddedINS_10interface68internal11ets_elementI17thread_local_varsEELm128EEENS_23cache_aligned_allocatorIS8_EEEC1ERKSA_
	.set	_ZN3tbb17concurrent_vectorINS_8internal6paddedINS_10interface68internal11ets_elementI17thread_local_varsEELm128EEENS_23cache_aligned_allocatorIS8_EEEC1ERKSA_,_ZN3tbb17concurrent_vectorINS_8internal6paddedINS_10interface68internal11ets_elementI17thread_local_varsEELm128EEENS_23cache_aligned_allocatorIS8_EEEC2ERKSA_
	.section	.text._ZN3tbb17concurrent_vectorINS_8internal6paddedINS_10interface68internal11ets_elementI17thread_local_varsEELm128EEENS_23cache_aligned_allocatorIS8_EEED2Ev,"axG",@progbits,_ZN3tbb17concurrent_vectorINS_8internal6paddedINS_10interface68internal11ets_elementI17thread_local_varsEELm128EEENS_23cache_aligned_allocatorIS8_EEED5Ev,comdat
	.align 2
	.weak	_ZN3tbb17concurrent_vectorINS_8internal6paddedINS_10interface68internal11ets_elementI17thread_local_varsEELm128EEENS_23cache_aligned_allocatorIS8_EEED2Ev
	.type	_ZN3tbb17concurrent_vectorINS_8internal6paddedINS_10interface68internal11ets_elementI17thread_local_varsEELm128EEENS_23cache_aligned_allocatorIS8_EEED2Ev, @function
_ZN3tbb17concurrent_vectorINS_8internal6paddedINS_10interface68internal11ets_elementI17thread_local_varsEELm128EEENS_23cache_aligned_allocatorIS8_EEED2Ev:
.LFB5739:
	.cfi_startproc
	.cfi_personality 0x9b,DW.ref.__gxx_personality_v0
	.cfi_lsda 0x1b,.LLSDA5739
	pushq	%rbp
	.cfi_def_cfa_offset 16
	.cfi_offset 6, -16
	movq	%rsp, %rbp
	.cfi_def_cfa_register 6
	pushq	%rbx
	subq	$40, %rsp
	.cfi_offset 3, -24
	movq	%rdi, -40(%rbp)
	movq	-40(%rbp), %rax
	addq	$32, %rax
	movq	%rax, %rdi
	call	_ZNK3tbb8internal11atomic_implIPNS0_25concurrent_vector_base_v39segment_tEE4loadILNS_16memory_semanticsE3EEES4_v
	movq	%rax, -24(%rbp)
	movq	-40(%rbp), %rax
	addq	$16, %rax
	movq	%rax, %rdi
	call	_ZNK3tbb8internal11atomic_implImE4loadILNS_16memory_semanticsE3EEEmv
	movq	%rax, %rbx
	movq	-40(%rbp), %rax
	addq	$8, %rax
	leaq	_ZN3tbb17concurrent_vectorINS_8internal6paddedINS_10interface68internal11ets_elementI17thread_local_varsEELm128EEENS_23cache_aligned_allocatorIS8_EEE13destroy_arrayEPvm(%rip), %rsi
	movq	%rax, %rdi
	call	_ZN3tbb8internal25concurrent_vector_base_v314internal_clearEPFvPvmE@PLT
	movq	%rax, %rdx
	movq	-24(%rbp), %rsi
	movq	-40(%rbp), %rax
	movq	%rbx, %rcx
	movq	%rax, %rdi
	call	_ZN3tbb17concurrent_vectorINS_8internal6paddedINS_10interface68internal11ets_elementI17thread_local_varsEELm128EEENS_23cache_aligned_allocatorIS8_EEE22internal_free_segmentsEPNS1_25concurrent_vector_base_v39segment_tEmm
	movq	-40(%rbp), %rax
	addq	$8, %rax
	movq	%rax, %rdi
	call	_ZN3tbb8internal25concurrent_vector_base_v3D2Ev@PLT
	nop
	addq	$40, %rsp
	popq	%rbx
	popq	%rbp
	.cfi_def_cfa 7, 8
	ret
	.cfi_endproc
.LFE5739:
	.section	.gcc_except_table
.LLSDA5739:
	.byte	0xff
	.byte	0xff
	.byte	0x1
	.uleb128 .LLSDACSE5739-.LLSDACSB5739
.LLSDACSB5739:
.LLSDACSE5739:
	.section	.text._ZN3tbb17concurrent_vectorINS_8internal6paddedINS_10interface68internal11ets_elementI17thread_local_varsEELm128EEENS_23cache_aligned_allocatorIS8_EEED2Ev,"axG",@progbits,_ZN3tbb17concurrent_vectorINS_8internal6paddedINS_10interface68internal11ets_elementI17thread_local_varsEELm128EEENS_23cache_aligned_allocatorIS8_EEED5Ev,comdat
	.size	_ZN3tbb17concurrent_vectorINS_8internal6paddedINS_10interface68internal11ets_elementI17thread_local_varsEELm128EEENS_23cache_aligned_allocatorIS8_EEED2Ev, .-_ZN3tbb17concurrent_vectorINS_8internal6paddedINS_10interface68internal11ets_elementI17thread_local_varsEELm128EEENS_23cache_aligned_allocatorIS8_EEED2Ev
	.weak	_ZN3tbb17concurrent_vectorINS_8internal6paddedINS_10interface68internal11ets_elementI17thread_local_varsEELm128EEENS_23cache_aligned_allocatorIS8_EEED1Ev
	.set	_ZN3tbb17concurrent_vectorINS_8internal6paddedINS_10interface68internal11ets_elementI17thread_local_varsEELm128EEENS_23cache_aligned_allocatorIS8_EEED1Ev,_ZN3tbb17concurrent_vectorINS_8internal6paddedINS_10interface68internal11ets_elementI17thread_local_varsEELm128EEENS_23cache_aligned_allocatorIS8_EEED2Ev
	.section	.text._ZNSt24uniform_int_distributionIjE10param_typeC2Ejj,"axG",@progbits,_ZNSt24uniform_int_distributionIjE10param_typeC5Ejj,comdat
	.align 2
	.weak	_ZNSt24uniform_int_distributionIjE10param_typeC2Ejj
	.type	_ZNSt24uniform_int_distributionIjE10param_typeC2Ejj, @function
_ZNSt24uniform_int_distributionIjE10param_typeC2Ejj:
.LFB5742:
	.cfi_startproc
	pushq	%rbp
	.cfi_def_cfa_offset 16
	.cfi_offset 6, -16
	movq	%rsp, %rbp
	.cfi_def_cfa_register 6
	movq	%rdi, -8(%rbp)
	movl	%esi, -12(%rbp)
	movl	%edx, -16(%rbp)
	movq	-8(%rbp), %rax
	movl	-12(%rbp), %edx
	movl	%edx, (%rax)
	movq	-8(%rbp), %rax
	movl	-16(%rbp), %edx
	movl	%edx, 4(%rax)
	nop
	popq	%rbp
	.cfi_def_cfa 7, 8
	ret
	.cfi_endproc
.LFE5742:
	.size	_ZNSt24uniform_int_distributionIjE10param_typeC2Ejj, .-_ZNSt24uniform_int_distributionIjE10param_typeC2Ejj
	.weak	_ZNSt24uniform_int_distributionIjE10param_typeC1Ejj
	.set	_ZNSt24uniform_int_distributionIjE10param_typeC1Ejj,_ZNSt24uniform_int_distributionIjE10param_typeC2Ejj
	.section	.text._ZNSt23mersenne_twister_engineImLm32ELm624ELm397ELm31ELm2567483615ELm11ELm4294967295ELm7ELm2636928640ELm15ELm4022730752ELm18ELm1812433253EE3minEv,"axG",@progbits,_ZNSt23mersenne_twister_engineImLm32ELm624ELm397ELm31ELm2567483615ELm11ELm4294967295ELm7ELm2636928640ELm15ELm4022730752ELm18ELm1812433253EE3minEv,comdat
	.weak	_ZNSt23mersenne_twister_engineImLm32ELm624ELm397ELm31ELm2567483615ELm11ELm4294967295ELm7ELm2636928640ELm15ELm4022730752ELm18ELm1812433253EE3minEv
	.type	_ZNSt23mersenne_twister_engineImLm32ELm624ELm397ELm31ELm2567483615ELm11ELm4294967295ELm7ELm2636928640ELm15ELm4022730752ELm18ELm1812433253EE3minEv, @function
_ZNSt23mersenne_twister_engineImLm32ELm624ELm397ELm31ELm2567483615ELm11ELm4294967295ELm7ELm2636928640ELm15ELm4022730752ELm18ELm1812433253EE3minEv:
.LFB5745:
	.cfi_startproc
	pushq	%rbp
	.cfi_def_cfa_offset 16
	.cfi_offset 6, -16
	movq	%rsp, %rbp
	.cfi_def_cfa_register 6
	movl	$0, %eax
	popq	%rbp
	.cfi_def_cfa 7, 8
	ret
	.cfi_endproc
.LFE5745:
	.size	_ZNSt23mersenne_twister_engineImLm32ELm624ELm397ELm31ELm2567483615ELm11ELm4294967295ELm7ELm2636928640ELm15ELm4022730752ELm18ELm1812433253EE3minEv, .-_ZNSt23mersenne_twister_engineImLm32ELm624ELm397ELm31ELm2567483615ELm11ELm4294967295ELm7ELm2636928640ELm15ELm4022730752ELm18ELm1812433253EE3minEv
	.section	.text._ZNSt24uniform_int_distributionIjEclISt23mersenne_twister_engineImLm32ELm624ELm397ELm31ELm2567483615ELm11ELm4294967295ELm7ELm2636928640ELm15ELm4022730752ELm18ELm1812433253EEEEjRT_RKNS0_10param_typeE,"axG",@progbits,_ZNSt24uniform_int_distributionIjEclISt23mersenne_twister_engineImLm32ELm624ELm397ELm31ELm2567483615ELm11ELm4294967295ELm7ELm2636928640ELm15ELm4022730752ELm18ELm1812433253EEEEjRT_RKNS0_10param_typeE,comdat
	.align 2
	.weak	_ZNSt24uniform_int_distributionIjEclISt23mersenne_twister_engineImLm32ELm624ELm397ELm31ELm2567483615ELm11ELm4294967295ELm7ELm2636928640ELm15ELm4022730752ELm18ELm1812433253EEEEjRT_RKNS0_10param_typeE
	.type	_ZNSt24uniform_int_distributionIjEclISt23mersenne_twister_engineImLm32ELm624ELm397ELm31ELm2567483615ELm11ELm4294967295ELm7ELm2636928640ELm15ELm4022730752ELm18ELm1812433253EEEEjRT_RKNS0_10param_typeE, @function
_ZNSt24uniform_int_distributionIjEclISt23mersenne_twister_engineImLm32ELm624ELm397ELm31ELm2567483615ELm11ELm4294967295ELm7ELm2636928640ELm15ELm4022730752ELm18ELm1812433253EEEEjRT_RKNS0_10param_typeE:
.LFB5744:
	.cfi_startproc
	pushq	%rbp
	.cfi_def_cfa_offset 16
	.cfi_offset 6, -16
	movq	%rsp, %rbp
	.cfi_def_cfa_register 6
	pushq	%rbx
	subq	$136, %rsp
	.cfi_offset 3, -24
	movq	%rdi, -120(%rbp)
	movq	%rsi, -128(%rbp)
	movq	%rdx, -136(%rbp)
	movq	%fs:40, %rax
	movq	%rax, -24(%rbp)
	xorl	%eax, %eax
	movq	$0, -104(%rbp)
	movl	$4294967295, %eax
	movq	%rax, -96(%rbp)
	movq	%rax, -88(%rbp)
	movq	-136(%rbp), %rax
	movq	%rax, %rdi
	call	_ZNKSt24uniform_int_distributionIjE10param_type1bEv
	movl	%eax, %ebx
	movq	-136(%rbp), %rax
	movq	%rax, %rdi
	call	_ZNKSt24uniform_int_distributionIjE10param_type1aEv
	movl	%eax, %eax
	subq	%rax, %rbx
	movq	%rbx, %rax
	movq	%rax, -80(%rbp)
	movl	$4294967294, %eax
	cmpq	%rax, -80(%rbp)
	ja	.L401
	movq	-80(%rbp), %rax
	addq	$1, %rax
	movq	%rax, -56(%rbp)
	movl	$4294967295, %eax
	movl	$0, %edx
	divq	-56(%rbp)
	movq	%rax, -48(%rbp)
	movq	-56(%rbp), %rax
	imulq	-48(%rbp), %rax
	movq	%rax, -40(%rbp)
.L403:
	movq	-128(%rbp), %rax
	movq	%rax, %rdi
	call	_ZNSt23mersenne_twister_engineImLm32ELm624ELm397ELm31ELm2567483615ELm11ELm4294967295ELm7ELm2636928640ELm15ELm4022730752ELm18ELm1812433253EEclEv
	movq	%rax, -112(%rbp)
	movq	-112(%rbp), %rax
	cmpq	-40(%rbp), %rax
	jb	.L402
	jmp	.L403
.L402:
	movq	-112(%rbp), %rax
	movl	$0, %edx
	divq	-48(%rbp)
	movq	%rax, -112(%rbp)
	jmp	.L404
.L401:
	movl	$4294967295, %eax
	cmpq	%rax, -80(%rbp)
	jbe	.L405
.L408:
	movabsq	$4294967296, %rax
	movq	%rax, -72(%rbp)
	movq	-80(%rbp), %rax
	shrq	$32, %rax
	movl	%eax, %edx
	leaq	-32(%rbp), %rax
	movl	$0, %esi
	movq	%rax, %rdi
	call	_ZNSt24uniform_int_distributionIjE10param_typeC1Ejj
	leaq	-32(%rbp), %rdx
	movq	-128(%rbp), %rcx
	movq	-120(%rbp), %rax
	movq	%rcx, %rsi
	movq	%rax, %rdi
	call	_ZNSt24uniform_int_distributionIjEclISt23mersenne_twister_engineImLm32ELm624ELm397ELm31ELm2567483615ELm11ELm4294967295ELm7ELm2636928640ELm15ELm4022730752ELm18ELm1812433253EEEEjRT_RKNS0_10param_typeE
	movl	%eax, %eax
	salq	$32, %rax
	movq	%rax, -64(%rbp)
	movq	-128(%rbp), %rax
	movq	%rax, %rdi
	call	_ZNSt23mersenne_twister_engineImLm32ELm624ELm397ELm31ELm2567483615ELm11ELm4294967295ELm7ELm2636928640ELm15ELm4022730752ELm18ELm1812433253EEclEv
	movq	%rax, %rdx
	movq	-64(%rbp), %rax
	addq	%rdx, %rax
	movq	%rax, -112(%rbp)
	movq	-112(%rbp), %rax
	cmpq	-80(%rbp), %rax
	ja	.L408
	movq	-112(%rbp), %rax
	cmpq	-64(%rbp), %rax
	jnb	.L404
	jmp	.L408
.L405:
	movq	-128(%rbp), %rax
	movq	%rax, %rdi
	call	_ZNSt23mersenne_twister_engineImLm32ELm624ELm397ELm31ELm2567483615ELm11ELm4294967295ELm7ELm2636928640ELm15ELm4022730752ELm18ELm1812433253EEclEv
	movq	%rax, -112(%rbp)
.L404:
	movq	-136(%rbp), %rax
	movq	%rax, %rdi
	call	_ZNKSt24uniform_int_distributionIjE10param_type1aEv
	movl	%eax, %edx
	movq	-112(%rbp), %rax
	addl	%edx, %eax
	movq	-24(%rbp), %rcx
	xorq	%fs:40, %rcx
	je	.L410
	call	__stack_chk_fail@PLT
.L410:
	addq	$136, %rsp
	popq	%rbx
	popq	%rbp
	.cfi_def_cfa 7, 8
	ret
	.cfi_endproc
.LFE5744:
	.size	_ZNSt24uniform_int_distributionIjEclISt23mersenne_twister_engineImLm32ELm624ELm397ELm31ELm2567483615ELm11ELm4294967295ELm7ELm2636928640ELm15ELm4022730752ELm18ELm1812433253EEEEjRT_RKNS0_10param_typeE, .-_ZNSt24uniform_int_distributionIjEclISt23mersenne_twister_engineImLm32ELm624ELm397ELm31ELm2567483615ELm11ELm4294967295ELm7ELm2636928640ELm15ELm4022730752ELm18ELm1812433253EEEEjRT_RKNS0_10param_typeE
	.section	.text._ZNSt19normal_distributionIdE10param_typeC2Edd,"axG",@progbits,_ZNSt19normal_distributionIdE10param_typeC5Edd,comdat
	.align 2
	.weak	_ZNSt19normal_distributionIdE10param_typeC2Edd
	.type	_ZNSt19normal_distributionIdE10param_typeC2Edd, @function
_ZNSt19normal_distributionIdE10param_typeC2Edd:
.LFB5748:
	.cfi_startproc
	pushq	%rbp
	.cfi_def_cfa_offset 16
	.cfi_offset 6, -16
	movq	%rsp, %rbp
	.cfi_def_cfa_register 6
	movq	%rdi, -8(%rbp)
	movsd	%xmm0, -16(%rbp)
	movsd	%xmm1, -24(%rbp)
	movq	-8(%rbp), %rax
	movsd	-16(%rbp), %xmm0
	movsd	%xmm0, (%rax)
	movq	-8(%rbp), %rax
	movsd	-24(%rbp), %xmm0
	movsd	%xmm0, 8(%rax)
	nop
	popq	%rbp
	.cfi_def_cfa 7, 8
	ret
	.cfi_endproc
.LFE5748:
	.size	_ZNSt19normal_distributionIdE10param_typeC2Edd, .-_ZNSt19normal_distributionIdE10param_typeC2Edd
	.weak	_ZNSt19normal_distributionIdE10param_typeC1Edd
	.set	_ZNSt19normal_distributionIdE10param_typeC1Edd,_ZNSt19normal_distributionIdE10param_typeC2Edd
	.section	.text._ZNSt19normal_distributionIdEclISt23mersenne_twister_engineImLm32ELm624ELm397ELm31ELm2567483615ELm11ELm4294967295ELm7ELm2636928640ELm15ELm4022730752ELm18ELm1812433253EEEEdRT_RKNS0_10param_typeE,"axG",@progbits,_ZNSt19normal_distributionIdEclISt23mersenne_twister_engineImLm32ELm624ELm397ELm31ELm2567483615ELm11ELm4294967295ELm7ELm2636928640ELm15ELm4022730752ELm18ELm1812433253EEEEdRT_RKNS0_10param_typeE,comdat
	.align 2
	.weak	_ZNSt19normal_distributionIdEclISt23mersenne_twister_engineImLm32ELm624ELm397ELm31ELm2567483615ELm11ELm4294967295ELm7ELm2636928640ELm15ELm4022730752ELm18ELm1812433253EEEEdRT_RKNS0_10param_typeE
	.type	_ZNSt19normal_distributionIdEclISt23mersenne_twister_engineImLm32ELm624ELm397ELm31ELm2567483615ELm11ELm4294967295ELm7ELm2636928640ELm15ELm4022730752ELm18ELm1812433253EEEEdRT_RKNS0_10param_typeE, @function
_ZNSt19normal_distributionIdEclISt23mersenne_twister_engineImLm32ELm624ELm397ELm31ELm2567483615ELm11ELm4294967295ELm7ELm2636928640ELm15ELm4022730752ELm18ELm1812433253EEEEdRT_RKNS0_10param_typeE:
.LFB5750:
	.cfi_startproc
	pushq	%rbp
	.cfi_def_cfa_offset 16
	.cfi_offset 6, -16
	movq	%rsp, %rbp
	.cfi_def_cfa_register 6
	subq	$96, %rsp
	movq	%rdi, -72(%rbp)
	movq	%rsi, -80(%rbp)
	movq	%rdx, -88(%rbp)
	movq	%fs:40, %rax
	movq	%rax, -8(%rbp)
	xorl	%eax, %eax
	movq	-80(%rbp), %rdx
	leaq	-56(%rbp), %rax
	movq	%rdx, %rsi
	movq	%rax, %rdi
	call	_ZNSt8__detail8_AdaptorISt23mersenne_twister_engineImLm32ELm624ELm397ELm31ELm2567483615ELm11ELm4294967295ELm7ELm2636928640ELm15ELm4022730752ELm18ELm1812433253EEdEC1ERS2_
	movq	-72(%rbp), %rax
	movzbl	24(%rax), %eax
	testb	%al, %al
	je	.L413
	movq	-72(%rbp), %rax
	movb	$0, 24(%rax)
	movq	-72(%rbp), %rax
	movsd	16(%rax), %xmm0
	movsd	%xmm0, -48(%rbp)
	jmp	.L414
.L413:
	leaq	-56(%rbp), %rax
	movq	%rax, %rdi
	call	_ZNSt8__detail8_AdaptorISt23mersenne_twister_engineImLm32ELm624ELm397ELm31ELm2567483615ELm11ELm4294967295ELm7ELm2636928640ELm15ELm4022730752ELm18ELm1812433253EEdEclEv
	addsd	%xmm0, %xmm0
	movsd	.LC0(%rip), %xmm1
	subsd	%xmm1, %xmm0
	movsd	%xmm0, -40(%rbp)
	leaq	-56(%rbp), %rax
	movq	%rax, %rdi
	call	_ZNSt8__detail8_AdaptorISt23mersenne_twister_engineImLm32ELm624ELm397ELm31ELm2567483615ELm11ELm4294967295ELm7ELm2636928640ELm15ELm4022730752ELm18ELm1812433253EEdEclEv
	addsd	%xmm0, %xmm0
	movsd	.LC0(%rip), %xmm1
	subsd	%xmm1, %xmm0
	movsd	%xmm0, -32(%rbp)
	movsd	-40(%rbp), %xmm0
	movapd	%xmm0, %xmm1
	mulsd	-40(%rbp), %xmm1
	movsd	-32(%rbp), %xmm0
	mulsd	-32(%rbp), %xmm0
	addsd	%xmm1, %xmm0
	movsd	%xmm0, -24(%rbp)
	movsd	-24(%rbp), %xmm0
	movsd	.LC0(%rip), %xmm1
	ucomisd	%xmm1, %xmm0
	seta	%al
	xorl	$1, %eax
	testb	%al, %al
	je	.L413
	pxor	%xmm0, %xmm0
	ucomisd	-24(%rbp), %xmm0
	jp	.L416
	pxor	%xmm0, %xmm0
	ucomisd	-24(%rbp), %xmm0
	jne	.L416
	jmp	.L413
.L416:
	movq	-24(%rbp), %rax
	movq	%rax, -96(%rbp)
	movsd	-96(%rbp), %xmm0
	call	log@PLT
	movapd	%xmm0, %xmm1
	movsd	.LC21(%rip), %xmm0
	mulsd	%xmm1, %xmm0
	divsd	-24(%rbp), %xmm0
	call	sqrt@PLT
	movq	%xmm0, %rax
	movq	%rax, -16(%rbp)
	movsd	-40(%rbp), %xmm0
	mulsd	-16(%rbp), %xmm0
	movq	-72(%rbp), %rax
	movsd	%xmm0, 16(%rax)
	movq	-72(%rbp), %rax
	movb	$1, 24(%rax)
	movsd	-32(%rbp), %xmm0
	mulsd	-16(%rbp), %xmm0
	movsd	%xmm0, -48(%rbp)
.L414:
	movq	-88(%rbp), %rax
	movq	%rax, %rdi
	call	_ZNKSt19normal_distributionIdE10param_type6stddevEv
	mulsd	-48(%rbp), %xmm0
	movsd	%xmm0, -96(%rbp)
	movq	-88(%rbp), %rax
	movq	%rax, %rdi
	call	_ZNKSt19normal_distributionIdE10param_type4meanEv
	addsd	-96(%rbp), %xmm0
	movsd	%xmm0, -48(%rbp)
	movsd	-48(%rbp), %xmm0
	movq	-8(%rbp), %rax
	xorq	%fs:40, %rax
	je	.L418
	call	__stack_chk_fail@PLT
.L418:
	leave
	.cfi_def_cfa 7, 8
	ret
	.cfi_endproc
.LFE5750:
	.size	_ZNSt19normal_distributionIdEclISt23mersenne_twister_engineImLm32ELm624ELm397ELm31ELm2567483615ELm11ELm4294967295ELm7ELm2636928640ELm15ELm4022730752ELm18ELm1812433253EEEEdRT_RKNS0_10param_typeE, .-_ZNSt19normal_distributionIdEclISt23mersenne_twister_engineImLm32ELm624ELm397ELm31ELm2567483615ELm11ELm4294967295ELm7ELm2636928640ELm15ELm4022730752ELm18ELm1812433253EEEEdRT_RKNS0_10param_typeE
	.section	.text._ZN3tbb10interface626enumerable_thread_specificI17thread_local_varsNS_23cache_aligned_allocatorIS2_EELNS_18ets_key_usage_typeE1EE5localERb,"axG",@progbits,_ZN3tbb10interface626enumerable_thread_specificI17thread_local_varsNS_23cache_aligned_allocatorIS2_EELNS_18ets_key_usage_typeE1EE5localERb,comdat
	.align 2
	.weak	_ZN3tbb10interface626enumerable_thread_specificI17thread_local_varsNS_23cache_aligned_allocatorIS2_EELNS_18ets_key_usage_typeE1EE5localERb
	.type	_ZN3tbb10interface626enumerable_thread_specificI17thread_local_varsNS_23cache_aligned_allocatorIS2_EELNS_18ets_key_usage_typeE1EE5localERb, @function
_ZN3tbb10interface626enumerable_thread_specificI17thread_local_varsNS_23cache_aligned_allocatorIS2_EELNS_18ets_key_usage_typeE1EE5localERb:
.LFB5751:
	.cfi_startproc
	pushq	%rbp
	.cfi_def_cfa_offset 16
	.cfi_offset 6, -16
	movq	%rsp, %rbp
	.cfi_def_cfa_register 6
	subq	$32, %rsp
	movq	%rdi, -24(%rbp)
	movq	%rsi, -32(%rbp)
	movq	-24(%rbp), %rax
	movq	-32(%rbp), %rdx
	movq	%rdx, %rsi
	movq	%rax, %rdi
	call	_ZN3tbb10interface68internal8ets_baseILNS_18ets_key_usage_typeE1EE12table_lookupERb
	movq	%rax, -8(%rbp)
	movq	-8(%rbp), %rax
	leave
	.cfi_def_cfa 7, 8
	ret
	.cfi_endproc
.LFE5751:
	.size	_ZN3tbb10interface626enumerable_thread_specificI17thread_local_varsNS_23cache_aligned_allocatorIS2_EELNS_18ets_key_usage_typeE1EE5localERb, .-_ZN3tbb10interface626enumerable_thread_specificI17thread_local_varsNS_23cache_aligned_allocatorIS2_EELNS_18ets_key_usage_typeE1EE5localERb
	.section	.text._ZNSt23mersenne_twister_engineImLm32ELm624ELm397ELm31ELm2567483615ELm11ELm4294967295ELm7ELm2636928640ELm15ELm4022730752ELm18ELm1812433253EE4seedEm,"axG",@progbits,_ZNSt23mersenne_twister_engineImLm32ELm624ELm397ELm31ELm2567483615ELm11ELm4294967295ELm7ELm2636928640ELm15ELm4022730752ELm18ELm1812433253EE4seedEm,comdat
	.align 2
	.weak	_ZNSt23mersenne_twister_engineImLm32ELm624ELm397ELm31ELm2567483615ELm11ELm4294967295ELm7ELm2636928640ELm15ELm4022730752ELm18ELm1812433253EE4seedEm
	.type	_ZNSt23mersenne_twister_engineImLm32ELm624ELm397ELm31ELm2567483615ELm11ELm4294967295ELm7ELm2636928640ELm15ELm4022730752ELm18ELm1812433253EE4seedEm, @function
_ZNSt23mersenne_twister_engineImLm32ELm624ELm397ELm31ELm2567483615ELm11ELm4294967295ELm7ELm2636928640ELm15ELm4022730752ELm18ELm1812433253EE4seedEm:
.LFB5755:
	.cfi_startproc
	pushq	%rbp
	.cfi_def_cfa_offset 16
	.cfi_offset 6, -16
	movq	%rsp, %rbp
	.cfi_def_cfa_register 6
	subq	$32, %rsp
	movq	%rdi, -24(%rbp)
	movq	%rsi, -32(%rbp)
	movq	-32(%rbp), %rax
	movq	%rax, %rdi
	call	_ZNSt8__detail5__modImLm4294967296ELm1ELm0EEET_S1_
	movq	%rax, %rdx
	movq	-24(%rbp), %rax
	movq	%rdx, (%rax)
	movq	$1, -16(%rbp)
.L423:
	cmpq	$623, -16(%rbp)
	ja	.L422
	movq	-16(%rbp), %rax
	leaq	-1(%rax), %rdx
	movq	-24(%rbp), %rax
	movq	(%rax,%rdx,8), %rax
	movq	%rax, -8(%rbp)
	movq	-8(%rbp), %rax
	shrq	$30, %rax
	xorq	%rax, -8(%rbp)
	movq	-8(%rbp), %rax
	imulq	$1812433253, %rax, %rax
	movq	%rax, -8(%rbp)
	movq	-16(%rbp), %rax
	movq	%rax, %rdi
	call	_ZNSt8__detail5__modImLm624ELm1ELm0EEET_S1_
	addq	%rax, -8(%rbp)
	movq	-8(%rbp), %rax
	movq	%rax, %rdi
	call	_ZNSt8__detail5__modImLm4294967296ELm1ELm0EEET_S1_
	movq	%rax, %rcx
	movq	-24(%rbp), %rax
	movq	-16(%rbp), %rdx
	movq	%rcx, (%rax,%rdx,8)
	addq	$1, -16(%rbp)
	jmp	.L423
.L422:
	movq	-24(%rbp), %rax
	movq	$624, 4992(%rax)
	nop
	leave
	.cfi_def_cfa 7, 8
	ret
	.cfi_endproc
.LFE5755:
	.size	_ZNSt23mersenne_twister_engineImLm32ELm624ELm397ELm31ELm2567483615ELm11ELm4294967295ELm7ELm2636928640ELm15ELm4022730752ELm18ELm1812433253EE4seedEm, .-_ZNSt23mersenne_twister_engineImLm32ELm624ELm397ELm31ELm2567483615ELm11ELm4294967295ELm7ELm2636928640ELm15ELm4022730752ELm18ELm1812433253EE4seedEm
	.section	.text._ZNSt12_Vector_baseI9init_taskSaIS0_EE12_Vector_implD2Ev,"axG",@progbits,_ZNSt12_Vector_baseI9init_taskSaIS0_EE12_Vector_implD5Ev,comdat
	.align 2
	.weak	_ZNSt12_Vector_baseI9init_taskSaIS0_EE12_Vector_implD2Ev
	.type	_ZNSt12_Vector_baseI9init_taskSaIS0_EE12_Vector_implD2Ev, @function
_ZNSt12_Vector_baseI9init_taskSaIS0_EE12_Vector_implD2Ev:
.LFB5758:
	.cfi_startproc
	pushq	%rbp
	.cfi_def_cfa_offset 16
	.cfi_offset 6, -16
	movq	%rsp, %rbp
	.cfi_def_cfa_register 6
	subq	$16, %rsp
	movq	%rdi, -8(%rbp)
	movq	-8(%rbp), %rax
	movq	%rax, %rdi
	call	_ZNSaI9init_taskED2Ev
	nop
	leave
	.cfi_def_cfa 7, 8
	ret
	.cfi_endproc
.LFE5758:
	.size	_ZNSt12_Vector_baseI9init_taskSaIS0_EE12_Vector_implD2Ev, .-_ZNSt12_Vector_baseI9init_taskSaIS0_EE12_Vector_implD2Ev
	.weak	_ZNSt12_Vector_baseI9init_taskSaIS0_EE12_Vector_implD1Ev
	.set	_ZNSt12_Vector_baseI9init_taskSaIS0_EE12_Vector_implD1Ev,_ZNSt12_Vector_baseI9init_taskSaIS0_EE12_Vector_implD2Ev
	.section	.text._ZNSt12_Vector_baseI9init_taskSaIS0_EEC2Ev,"axG",@progbits,_ZNSt12_Vector_baseI9init_taskSaIS0_EEC5Ev,comdat
	.align 2
	.weak	_ZNSt12_Vector_baseI9init_taskSaIS0_EEC2Ev
	.type	_ZNSt12_Vector_baseI9init_taskSaIS0_EEC2Ev, @function
_ZNSt12_Vector_baseI9init_taskSaIS0_EEC2Ev:
.LFB5760:
	.cfi_startproc
	pushq	%rbp
	.cfi_def_cfa_offset 16
	.cfi_offset 6, -16
	movq	%rsp, %rbp
	.cfi_def_cfa_register 6
	subq	$16, %rsp
	movq	%rdi, -8(%rbp)
	movq	-8(%rbp), %rax
	movq	%rax, %rdi
	call	_ZNSt12_Vector_baseI9init_taskSaIS0_EE12_Vector_implC1Ev
	nop
	leave
	.cfi_def_cfa 7, 8
	ret
	.cfi_endproc
.LFE5760:
	.size	_ZNSt12_Vector_baseI9init_taskSaIS0_EEC2Ev, .-_ZNSt12_Vector_baseI9init_taskSaIS0_EEC2Ev
	.weak	_ZNSt12_Vector_baseI9init_taskSaIS0_EEC1Ev
	.set	_ZNSt12_Vector_baseI9init_taskSaIS0_EEC1Ev,_ZNSt12_Vector_baseI9init_taskSaIS0_EEC2Ev
	.section	.text._ZNSt12_Vector_baseI9init_taskSaIS0_EED2Ev,"axG",@progbits,_ZNSt12_Vector_baseI9init_taskSaIS0_EED5Ev,comdat
	.align 2
	.weak	_ZNSt12_Vector_baseI9init_taskSaIS0_EED2Ev
	.type	_ZNSt12_Vector_baseI9init_taskSaIS0_EED2Ev, @function
_ZNSt12_Vector_baseI9init_taskSaIS0_EED2Ev:
.LFB5763:
	.cfi_startproc
	.cfi_personality 0x9b,DW.ref.__gxx_personality_v0
	.cfi_lsda 0x1b,.LLSDA5763
	pushq	%rbp
	.cfi_def_cfa_offset 16
	.cfi_offset 6, -16
	movq	%rsp, %rbp
	.cfi_def_cfa_register 6
	subq	$16, %rsp
	movq	%rdi, -8(%rbp)
	movq	-8(%rbp), %rax
	movq	16(%rax), %rax
	movq	%rax, %rdx
	movq	-8(%rbp), %rax
	movq	(%rax), %rax
	subq	%rax, %rdx
	movq	%rdx, %rax
	sarq	$4, %rax
	movq	%rax, %rdx
	movq	-8(%rbp), %rax
	movq	(%rax), %rcx
	movq	-8(%rbp), %rax
	movq	%rcx, %rsi
	movq	%rax, %rdi
	call	_ZNSt12_Vector_baseI9init_taskSaIS0_EE13_M_deallocateEPS0_m
	movq	-8(%rbp), %rax
	movq	%rax, %rdi
	call	_ZNSt12_Vector_baseI9init_taskSaIS0_EE12_Vector_implD1Ev
	nop
	leave
	.cfi_def_cfa 7, 8
	ret
	.cfi_endproc
.LFE5763:
	.section	.gcc_except_table
.LLSDA5763:
	.byte	0xff
	.byte	0xff
	.byte	0x1
	.uleb128 .LLSDACSE5763-.LLSDACSB5763
.LLSDACSB5763:
.LLSDACSE5763:
	.section	.text._ZNSt12_Vector_baseI9init_taskSaIS0_EED2Ev,"axG",@progbits,_ZNSt12_Vector_baseI9init_taskSaIS0_EED5Ev,comdat
	.size	_ZNSt12_Vector_baseI9init_taskSaIS0_EED2Ev, .-_ZNSt12_Vector_baseI9init_taskSaIS0_EED2Ev
	.weak	_ZNSt12_Vector_baseI9init_taskSaIS0_EED1Ev
	.set	_ZNSt12_Vector_baseI9init_taskSaIS0_EED1Ev,_ZNSt12_Vector_baseI9init_taskSaIS0_EED2Ev
	.section	.text._ZNSt12_Vector_baseI9init_taskSaIS0_EE19_M_get_Tp_allocatorEv,"axG",@progbits,_ZNSt12_Vector_baseI9init_taskSaIS0_EE19_M_get_Tp_allocatorEv,comdat
	.align 2
	.weak	_ZNSt12_Vector_baseI9init_taskSaIS0_EE19_M_get_Tp_allocatorEv
	.type	_ZNSt12_Vector_baseI9init_taskSaIS0_EE19_M_get_Tp_allocatorEv, @function
_ZNSt12_Vector_baseI9init_taskSaIS0_EE19_M_get_Tp_allocatorEv:
.LFB5765:
	.cfi_startproc
	pushq	%rbp
	.cfi_def_cfa_offset 16
	.cfi_offset 6, -16
	movq	%rsp, %rbp
	.cfi_def_cfa_register 6
	movq	%rdi, -8(%rbp)
	movq	-8(%rbp), %rax
	popq	%rbp
	.cfi_def_cfa 7, 8
	ret
	.cfi_endproc
.LFE5765:
	.size	_ZNSt12_Vector_baseI9init_taskSaIS0_EE19_M_get_Tp_allocatorEv, .-_ZNSt12_Vector_baseI9init_taskSaIS0_EE19_M_get_Tp_allocatorEv
	.section	.text._ZSt8_DestroyIP9init_taskS0_EvT_S2_RSaIT0_E,"axG",@progbits,_ZSt8_DestroyIP9init_taskS0_EvT_S2_RSaIT0_E,comdat
	.weak	_ZSt8_DestroyIP9init_taskS0_EvT_S2_RSaIT0_E
	.type	_ZSt8_DestroyIP9init_taskS0_EvT_S2_RSaIT0_E, @function
_ZSt8_DestroyIP9init_taskS0_EvT_S2_RSaIT0_E:
.LFB5766:
	.cfi_startproc
	pushq	%rbp
	.cfi_def_cfa_offset 16
	.cfi_offset 6, -16
	movq	%rsp, %rbp
	.cfi_def_cfa_register 6
	subq	$32, %rsp
	movq	%rdi, -8(%rbp)
	movq	%rsi, -16(%rbp)
	movq	%rdx, -24(%rbp)
	movq	-16(%rbp), %rdx
	movq	-8(%rbp), %rax
	movq	%rdx, %rsi
	movq	%rax, %rdi
	call	_ZSt8_DestroyIP9init_taskEvT_S2_
	nop
	leave
	.cfi_def_cfa 7, 8
	ret
	.cfi_endproc
.LFE5766:
	.size	_ZSt8_DestroyIP9init_taskS0_EvT_S2_RSaIT0_E, .-_ZSt8_DestroyIP9init_taskS0_EvT_S2_RSaIT0_E
	.section	.text._ZNSt12_Vector_baseI11access_taskSaIS0_EE12_Vector_implD2Ev,"axG",@progbits,_ZNSt12_Vector_baseI11access_taskSaIS0_EE12_Vector_implD5Ev,comdat
	.align 2
	.weak	_ZNSt12_Vector_baseI11access_taskSaIS0_EE12_Vector_implD2Ev
	.type	_ZNSt12_Vector_baseI11access_taskSaIS0_EE12_Vector_implD2Ev, @function
_ZNSt12_Vector_baseI11access_taskSaIS0_EE12_Vector_implD2Ev:
.LFB5769:
	.cfi_startproc
	pushq	%rbp
	.cfi_def_cfa_offset 16
	.cfi_offset 6, -16
	movq	%rsp, %rbp
	.cfi_def_cfa_register 6
	subq	$16, %rsp
	movq	%rdi, -8(%rbp)
	movq	-8(%rbp), %rax
	movq	%rax, %rdi
	call	_ZNSaI11access_taskED2Ev
	nop
	leave
	.cfi_def_cfa 7, 8
	ret
	.cfi_endproc
.LFE5769:
	.size	_ZNSt12_Vector_baseI11access_taskSaIS0_EE12_Vector_implD2Ev, .-_ZNSt12_Vector_baseI11access_taskSaIS0_EE12_Vector_implD2Ev
	.weak	_ZNSt12_Vector_baseI11access_taskSaIS0_EE12_Vector_implD1Ev
	.set	_ZNSt12_Vector_baseI11access_taskSaIS0_EE12_Vector_implD1Ev,_ZNSt12_Vector_baseI11access_taskSaIS0_EE12_Vector_implD2Ev
	.section	.text._ZNSt12_Vector_baseI11access_taskSaIS0_EEC2Ev,"axG",@progbits,_ZNSt12_Vector_baseI11access_taskSaIS0_EEC5Ev,comdat
	.align 2
	.weak	_ZNSt12_Vector_baseI11access_taskSaIS0_EEC2Ev
	.type	_ZNSt12_Vector_baseI11access_taskSaIS0_EEC2Ev, @function
_ZNSt12_Vector_baseI11access_taskSaIS0_EEC2Ev:
.LFB5771:
	.cfi_startproc
	pushq	%rbp
	.cfi_def_cfa_offset 16
	.cfi_offset 6, -16
	movq	%rsp, %rbp
	.cfi_def_cfa_register 6
	subq	$16, %rsp
	movq	%rdi, -8(%rbp)
	movq	-8(%rbp), %rax
	movq	%rax, %rdi
	call	_ZNSt12_Vector_baseI11access_taskSaIS0_EE12_Vector_implC1Ev
	nop
	leave
	.cfi_def_cfa 7, 8
	ret
	.cfi_endproc
.LFE5771:
	.size	_ZNSt12_Vector_baseI11access_taskSaIS0_EEC2Ev, .-_ZNSt12_Vector_baseI11access_taskSaIS0_EEC2Ev
	.weak	_ZNSt12_Vector_baseI11access_taskSaIS0_EEC1Ev
	.set	_ZNSt12_Vector_baseI11access_taskSaIS0_EEC1Ev,_ZNSt12_Vector_baseI11access_taskSaIS0_EEC2Ev
	.section	.text._ZNSt12_Vector_baseI11access_taskSaIS0_EED2Ev,"axG",@progbits,_ZNSt12_Vector_baseI11access_taskSaIS0_EED5Ev,comdat
	.align 2
	.weak	_ZNSt12_Vector_baseI11access_taskSaIS0_EED2Ev
	.type	_ZNSt12_Vector_baseI11access_taskSaIS0_EED2Ev, @function
_ZNSt12_Vector_baseI11access_taskSaIS0_EED2Ev:
.LFB5774:
	.cfi_startproc
	.cfi_personality 0x9b,DW.ref.__gxx_personality_v0
	.cfi_lsda 0x1b,.LLSDA5774
	pushq	%rbp
	.cfi_def_cfa_offset 16
	.cfi_offset 6, -16
	movq	%rsp, %rbp
	.cfi_def_cfa_register 6
	subq	$16, %rsp
	movq	%rdi, -8(%rbp)
	movq	-8(%rbp), %rax
	movq	16(%rax), %rax
	movq	%rax, %rdx
	movq	-8(%rbp), %rax
	movq	(%rax), %rax
	subq	%rax, %rdx
	movq	%rdx, %rax
	movq	%rax, %rdx
	movq	-8(%rbp), %rax
	movq	(%rax), %rcx
	movq	-8(%rbp), %rax
	movq	%rcx, %rsi
	movq	%rax, %rdi
	call	_ZNSt12_Vector_baseI11access_taskSaIS0_EE13_M_deallocateEPS0_m
	movq	-8(%rbp), %rax
	movq	%rax, %rdi
	call	_ZNSt12_Vector_baseI11access_taskSaIS0_EE12_Vector_implD1Ev
	nop
	leave
	.cfi_def_cfa 7, 8
	ret
	.cfi_endproc
.LFE5774:
	.section	.gcc_except_table
.LLSDA5774:
	.byte	0xff
	.byte	0xff
	.byte	0x1
	.uleb128 .LLSDACSE5774-.LLSDACSB5774
.LLSDACSB5774:
.LLSDACSE5774:
	.section	.text._ZNSt12_Vector_baseI11access_taskSaIS0_EED2Ev,"axG",@progbits,_ZNSt12_Vector_baseI11access_taskSaIS0_EED5Ev,comdat
	.size	_ZNSt12_Vector_baseI11access_taskSaIS0_EED2Ev, .-_ZNSt12_Vector_baseI11access_taskSaIS0_EED2Ev
	.weak	_ZNSt12_Vector_baseI11access_taskSaIS0_EED1Ev
	.set	_ZNSt12_Vector_baseI11access_taskSaIS0_EED1Ev,_ZNSt12_Vector_baseI11access_taskSaIS0_EED2Ev
	.section	.text._ZNSt12_Vector_baseI11access_taskSaIS0_EE19_M_get_Tp_allocatorEv,"axG",@progbits,_ZNSt12_Vector_baseI11access_taskSaIS0_EE19_M_get_Tp_allocatorEv,comdat
	.align 2
	.weak	_ZNSt12_Vector_baseI11access_taskSaIS0_EE19_M_get_Tp_allocatorEv
	.type	_ZNSt12_Vector_baseI11access_taskSaIS0_EE19_M_get_Tp_allocatorEv, @function
_ZNSt12_Vector_baseI11access_taskSaIS0_EE19_M_get_Tp_allocatorEv:
.LFB5776:
	.cfi_startproc
	pushq	%rbp
	.cfi_def_cfa_offset 16
	.cfi_offset 6, -16
	movq	%rsp, %rbp
	.cfi_def_cfa_register 6
	movq	%rdi, -8(%rbp)
	movq	-8(%rbp), %rax
	popq	%rbp
	.cfi_def_cfa 7, 8
	ret
	.cfi_endproc
.LFE5776:
	.size	_ZNSt12_Vector_baseI11access_taskSaIS0_EE19_M_get_Tp_allocatorEv, .-_ZNSt12_Vector_baseI11access_taskSaIS0_EE19_M_get_Tp_allocatorEv
	.section	.text._ZSt8_DestroyIP11access_taskS0_EvT_S2_RSaIT0_E,"axG",@progbits,_ZSt8_DestroyIP11access_taskS0_EvT_S2_RSaIT0_E,comdat
	.weak	_ZSt8_DestroyIP11access_taskS0_EvT_S2_RSaIT0_E
	.type	_ZSt8_DestroyIP11access_taskS0_EvT_S2_RSaIT0_E, @function
_ZSt8_DestroyIP11access_taskS0_EvT_S2_RSaIT0_E:
.LFB5777:
	.cfi_startproc
	pushq	%rbp
	.cfi_def_cfa_offset 16
	.cfi_offset 6, -16
	movq	%rsp, %rbp
	.cfi_def_cfa_register 6
	subq	$32, %rsp
	movq	%rdi, -8(%rbp)
	movq	%rsi, -16(%rbp)
	movq	%rdx, -24(%rbp)
	movq	-16(%rbp), %rdx
	movq	-8(%rbp), %rax
	movq	%rdx, %rsi
	movq	%rax, %rdi
	call	_ZSt8_DestroyIP11access_taskEvT_S2_
	nop
	leave
	.cfi_def_cfa 7, 8
	ret
	.cfi_endproc
.LFE5777:
	.size	_ZSt8_DestroyIP11access_taskS0_EvT_S2_RSaIT0_E, .-_ZSt8_DestroyIP11access_taskS0_EvT_S2_RSaIT0_E
	.section	.text._ZNSt12_Vector_baseI14tear_down_taskSaIS0_EE12_Vector_implD2Ev,"axG",@progbits,_ZNSt12_Vector_baseI14tear_down_taskSaIS0_EE12_Vector_implD5Ev,comdat
	.align 2
	.weak	_ZNSt12_Vector_baseI14tear_down_taskSaIS0_EE12_Vector_implD2Ev
	.type	_ZNSt12_Vector_baseI14tear_down_taskSaIS0_EE12_Vector_implD2Ev, @function
_ZNSt12_Vector_baseI14tear_down_taskSaIS0_EE12_Vector_implD2Ev:
.LFB5780:
	.cfi_startproc
	pushq	%rbp
	.cfi_def_cfa_offset 16
	.cfi_offset 6, -16
	movq	%rsp, %rbp
	.cfi_def_cfa_register 6
	subq	$16, %rsp
	movq	%rdi, -8(%rbp)
	movq	-8(%rbp), %rax
	movq	%rax, %rdi
	call	_ZNSaI14tear_down_taskED2Ev
	nop
	leave
	.cfi_def_cfa 7, 8
	ret
	.cfi_endproc
.LFE5780:
	.size	_ZNSt12_Vector_baseI14tear_down_taskSaIS0_EE12_Vector_implD2Ev, .-_ZNSt12_Vector_baseI14tear_down_taskSaIS0_EE12_Vector_implD2Ev
	.weak	_ZNSt12_Vector_baseI14tear_down_taskSaIS0_EE12_Vector_implD1Ev
	.set	_ZNSt12_Vector_baseI14tear_down_taskSaIS0_EE12_Vector_implD1Ev,_ZNSt12_Vector_baseI14tear_down_taskSaIS0_EE12_Vector_implD2Ev
	.section	.text._ZNSt12_Vector_baseI14tear_down_taskSaIS0_EEC2Ev,"axG",@progbits,_ZNSt12_Vector_baseI14tear_down_taskSaIS0_EEC5Ev,comdat
	.align 2
	.weak	_ZNSt12_Vector_baseI14tear_down_taskSaIS0_EEC2Ev
	.type	_ZNSt12_Vector_baseI14tear_down_taskSaIS0_EEC2Ev, @function
_ZNSt12_Vector_baseI14tear_down_taskSaIS0_EEC2Ev:
.LFB5782:
	.cfi_startproc
	pushq	%rbp
	.cfi_def_cfa_offset 16
	.cfi_offset 6, -16
	movq	%rsp, %rbp
	.cfi_def_cfa_register 6
	subq	$16, %rsp
	movq	%rdi, -8(%rbp)
	movq	-8(%rbp), %rax
	movq	%rax, %rdi
	call	_ZNSt12_Vector_baseI14tear_down_taskSaIS0_EE12_Vector_implC1Ev
	nop
	leave
	.cfi_def_cfa 7, 8
	ret
	.cfi_endproc
.LFE5782:
	.size	_ZNSt12_Vector_baseI14tear_down_taskSaIS0_EEC2Ev, .-_ZNSt12_Vector_baseI14tear_down_taskSaIS0_EEC2Ev
	.weak	_ZNSt12_Vector_baseI14tear_down_taskSaIS0_EEC1Ev
	.set	_ZNSt12_Vector_baseI14tear_down_taskSaIS0_EEC1Ev,_ZNSt12_Vector_baseI14tear_down_taskSaIS0_EEC2Ev
	.section	.text._ZNSt12_Vector_baseI14tear_down_taskSaIS0_EED2Ev,"axG",@progbits,_ZNSt12_Vector_baseI14tear_down_taskSaIS0_EED5Ev,comdat
	.align 2
	.weak	_ZNSt12_Vector_baseI14tear_down_taskSaIS0_EED2Ev
	.type	_ZNSt12_Vector_baseI14tear_down_taskSaIS0_EED2Ev, @function
_ZNSt12_Vector_baseI14tear_down_taskSaIS0_EED2Ev:
.LFB5785:
	.cfi_startproc
	.cfi_personality 0x9b,DW.ref.__gxx_personality_v0
	.cfi_lsda 0x1b,.LLSDA5785
	pushq	%rbp
	.cfi_def_cfa_offset 16
	.cfi_offset 6, -16
	movq	%rsp, %rbp
	.cfi_def_cfa_register 6
	subq	$16, %rsp
	movq	%rdi, -8(%rbp)
	movq	-8(%rbp), %rax
	movq	16(%rax), %rax
	movq	%rax, %rdx
	movq	-8(%rbp), %rax
	movq	(%rax), %rax
	subq	%rax, %rdx
	movq	%rdx, %rax
	movq	%rax, %rdx
	movq	-8(%rbp), %rax
	movq	(%rax), %rcx
	movq	-8(%rbp), %rax
	movq	%rcx, %rsi
	movq	%rax, %rdi
	call	_ZNSt12_Vector_baseI14tear_down_taskSaIS0_EE13_M_deallocateEPS0_m
	movq	-8(%rbp), %rax
	movq	%rax, %rdi
	call	_ZNSt12_Vector_baseI14tear_down_taskSaIS0_EE12_Vector_implD1Ev
	nop
	leave
	.cfi_def_cfa 7, 8
	ret
	.cfi_endproc
.LFE5785:
	.section	.gcc_except_table
.LLSDA5785:
	.byte	0xff
	.byte	0xff
	.byte	0x1
	.uleb128 .LLSDACSE5785-.LLSDACSB5785
.LLSDACSB5785:
.LLSDACSE5785:
	.section	.text._ZNSt12_Vector_baseI14tear_down_taskSaIS0_EED2Ev,"axG",@progbits,_ZNSt12_Vector_baseI14tear_down_taskSaIS0_EED5Ev,comdat
	.size	_ZNSt12_Vector_baseI14tear_down_taskSaIS0_EED2Ev, .-_ZNSt12_Vector_baseI14tear_down_taskSaIS0_EED2Ev
	.weak	_ZNSt12_Vector_baseI14tear_down_taskSaIS0_EED1Ev
	.set	_ZNSt12_Vector_baseI14tear_down_taskSaIS0_EED1Ev,_ZNSt12_Vector_baseI14tear_down_taskSaIS0_EED2Ev
	.section	.text._ZNSt12_Vector_baseI14tear_down_taskSaIS0_EE19_M_get_Tp_allocatorEv,"axG",@progbits,_ZNSt12_Vector_baseI14tear_down_taskSaIS0_EE19_M_get_Tp_allocatorEv,comdat
	.align 2
	.weak	_ZNSt12_Vector_baseI14tear_down_taskSaIS0_EE19_M_get_Tp_allocatorEv
	.type	_ZNSt12_Vector_baseI14tear_down_taskSaIS0_EE19_M_get_Tp_allocatorEv, @function
_ZNSt12_Vector_baseI14tear_down_taskSaIS0_EE19_M_get_Tp_allocatorEv:
.LFB5787:
	.cfi_startproc
	pushq	%rbp
	.cfi_def_cfa_offset 16
	.cfi_offset 6, -16
	movq	%rsp, %rbp
	.cfi_def_cfa_register 6
	movq	%rdi, -8(%rbp)
	movq	-8(%rbp), %rax
	popq	%rbp
	.cfi_def_cfa 7, 8
	ret
	.cfi_endproc
.LFE5787:
	.size	_ZNSt12_Vector_baseI14tear_down_taskSaIS0_EE19_M_get_Tp_allocatorEv, .-_ZNSt12_Vector_baseI14tear_down_taskSaIS0_EE19_M_get_Tp_allocatorEv
	.section	.text._ZSt8_DestroyIP14tear_down_taskS0_EvT_S2_RSaIT0_E,"axG",@progbits,_ZSt8_DestroyIP14tear_down_taskS0_EvT_S2_RSaIT0_E,comdat
	.weak	_ZSt8_DestroyIP14tear_down_taskS0_EvT_S2_RSaIT0_E
	.type	_ZSt8_DestroyIP14tear_down_taskS0_EvT_S2_RSaIT0_E, @function
_ZSt8_DestroyIP14tear_down_taskS0_EvT_S2_RSaIT0_E:
.LFB5788:
	.cfi_startproc
	pushq	%rbp
	.cfi_def_cfa_offset 16
	.cfi_offset 6, -16
	movq	%rsp, %rbp
	.cfi_def_cfa_register 6
	subq	$32, %rsp
	movq	%rdi, -8(%rbp)
	movq	%rsi, -16(%rbp)
	movq	%rdx, -24(%rbp)
	movq	-16(%rbp), %rdx
	movq	-8(%rbp), %rax
	movq	%rdx, %rsi
	movq	%rax, %rdi
	call	_ZSt8_DestroyIP14tear_down_taskEvT_S2_
	nop
	leave
	.cfi_def_cfa 7, 8
	ret
	.cfi_endproc
.LFE5788:
	.size	_ZSt8_DestroyIP14tear_down_taskS0_EvT_S2_RSaIT0_E, .-_ZSt8_DestroyIP14tear_down_taskS0_EvT_S2_RSaIT0_E
	.section	.text._ZSt7forwardI9init_taskEOT_RNSt16remove_referenceIS1_E4typeE,"axG",@progbits,_ZSt7forwardI9init_taskEOT_RNSt16remove_referenceIS1_E4typeE,comdat
	.weak	_ZSt7forwardI9init_taskEOT_RNSt16remove_referenceIS1_E4typeE
	.type	_ZSt7forwardI9init_taskEOT_RNSt16remove_referenceIS1_E4typeE, @function
_ZSt7forwardI9init_taskEOT_RNSt16remove_referenceIS1_E4typeE:
.LFB5790:
	.cfi_startproc
	pushq	%rbp
	.cfi_def_cfa_offset 16
	.cfi_offset 6, -16
	movq	%rsp, %rbp
	.cfi_def_cfa_register 6
	movq	%rdi, -8(%rbp)
	movq	-8(%rbp), %rax
	popq	%rbp
	.cfi_def_cfa 7, 8
	ret
	.cfi_endproc
.LFE5790:
	.size	_ZSt7forwardI9init_taskEOT_RNSt16remove_referenceIS1_E4typeE, .-_ZSt7forwardI9init_taskEOT_RNSt16remove_referenceIS1_E4typeE
	.section	.text._ZNSt6vectorI9init_taskSaIS0_EE12emplace_backIJS0_EEEvDpOT_,"axG",@progbits,_ZNSt6vectorI9init_taskSaIS0_EE12emplace_backIJS0_EEEvDpOT_,comdat
	.align 2
	.weak	_ZNSt6vectorI9init_taskSaIS0_EE12emplace_backIJS0_EEEvDpOT_
	.type	_ZNSt6vectorI9init_taskSaIS0_EE12emplace_backIJS0_EEEvDpOT_, @function
_ZNSt6vectorI9init_taskSaIS0_EE12emplace_backIJS0_EEEvDpOT_:
.LFB5789:
	.cfi_startproc
	pushq	%rbp
	.cfi_def_cfa_offset 16
	.cfi_offset 6, -16
	movq	%rsp, %rbp
	.cfi_def_cfa_register 6
	pushq	%rbx
	subq	$24, %rsp
	.cfi_offset 3, -24
	movq	%rdi, -24(%rbp)
	movq	%rsi, -32(%rbp)
	movq	-24(%rbp), %rax
	movq	8(%rax), %rdx
	movq	-24(%rbp), %rax
	movq	16(%rax), %rax
	cmpq	%rax, %rdx
	je	.L445
	movq	-32(%rbp), %rax
	movq	%rax, %rdi
	call	_ZSt7forwardI9init_taskEOT_RNSt16remove_referenceIS1_E4typeE
	movq	%rax, %rdx
	movq	-24(%rbp), %rax
	movq	8(%rax), %rcx
	movq	-24(%rbp), %rax
	movq	%rcx, %rsi
	movq	%rax, %rdi
	call	_ZNSt16allocator_traitsISaI9init_taskEE9constructIS0_JS0_EEEvRS1_PT_DpOT0_
	movq	-24(%rbp), %rax
	movq	8(%rax), %rax
	leaq	16(%rax), %rdx
	movq	-24(%rbp), %rax
	movq	%rdx, 8(%rax)
	jmp	.L447
.L445:
	movq	-32(%rbp), %rax
	movq	%rax, %rdi
	call	_ZSt7forwardI9init_taskEOT_RNSt16remove_referenceIS1_E4typeE
	movq	%rax, %rbx
	movq	-24(%rbp), %rax
	movq	%rax, %rdi
	call	_ZNSt6vectorI9init_taskSaIS0_EE3endEv
	movq	%rax, %rcx
	movq	-24(%rbp), %rax
	movq	%rbx, %rdx
	movq	%rcx, %rsi
	movq	%rax, %rdi
	call	_ZNSt6vectorI9init_taskSaIS0_EE17_M_realloc_insertIJS0_EEEvN9__gnu_cxx17__normal_iteratorIPS0_S2_EEDpOT_
.L447:
	nop
	addq	$24, %rsp
	popq	%rbx
	popq	%rbp
	.cfi_def_cfa 7, 8
	ret
	.cfi_endproc
.LFE5789:
	.size	_ZNSt6vectorI9init_taskSaIS0_EE12emplace_backIJS0_EEEvDpOT_, .-_ZNSt6vectorI9init_taskSaIS0_EE12emplace_backIJS0_EEEvDpOT_
	.section	.text._ZN9__gnu_cxx17__normal_iteratorIP9init_taskSt6vectorIS1_SaIS1_EEEC2ERKS2_,"axG",@progbits,_ZN9__gnu_cxx17__normal_iteratorIP9init_taskSt6vectorIS1_SaIS1_EEEC5ERKS2_,comdat
	.align 2
	.weak	_ZN9__gnu_cxx17__normal_iteratorIP9init_taskSt6vectorIS1_SaIS1_EEEC2ERKS2_
	.type	_ZN9__gnu_cxx17__normal_iteratorIP9init_taskSt6vectorIS1_SaIS1_EEEC2ERKS2_, @function
_ZN9__gnu_cxx17__normal_iteratorIP9init_taskSt6vectorIS1_SaIS1_EEEC2ERKS2_:
.LFB5792:
	.cfi_startproc
	pushq	%rbp
	.cfi_def_cfa_offset 16
	.cfi_offset 6, -16
	movq	%rsp, %rbp
	.cfi_def_cfa_register 6
	movq	%rdi, -8(%rbp)
	movq	%rsi, -16(%rbp)
	movq	-16(%rbp), %rax
	movq	(%rax), %rdx
	movq	-8(%rbp), %rax
	movq	%rdx, (%rax)
	nop
	popq	%rbp
	.cfi_def_cfa 7, 8
	ret
	.cfi_endproc
.LFE5792:
	.size	_ZN9__gnu_cxx17__normal_iteratorIP9init_taskSt6vectorIS1_SaIS1_EEEC2ERKS2_, .-_ZN9__gnu_cxx17__normal_iteratorIP9init_taskSt6vectorIS1_SaIS1_EEEC2ERKS2_
	.weak	_ZN9__gnu_cxx17__normal_iteratorIP9init_taskSt6vectorIS1_SaIS1_EEEC1ERKS2_
	.set	_ZN9__gnu_cxx17__normal_iteratorIP9init_taskSt6vectorIS1_SaIS1_EEEC1ERKS2_,_ZN9__gnu_cxx17__normal_iteratorIP9init_taskSt6vectorIS1_SaIS1_EEEC2ERKS2_
	.section	.text._ZN3tbb8internal22parallel_for_each_implIN9__gnu_cxx17__normal_iteratorIP9init_taskSt6vectorIS4_SaIS4_EEEE7invokerIS4_ESt26random_access_iterator_tagE4doitES9_S9_RKSB_,"axG",@progbits,_ZN3tbb8internal22parallel_for_each_implIN9__gnu_cxx17__normal_iteratorIP9init_taskSt6vectorIS4_SaIS4_EEEE7invokerIS4_ESt26random_access_iterator_tagE4doitES9_S9_RKSB_,comdat
	.weak	_ZN3tbb8internal22parallel_for_each_implIN9__gnu_cxx17__normal_iteratorIP9init_taskSt6vectorIS4_SaIS4_EEEE7invokerIS4_ESt26random_access_iterator_tagE4doitES9_S9_RKSB_
	.type	_ZN3tbb8internal22parallel_for_each_implIN9__gnu_cxx17__normal_iteratorIP9init_taskSt6vectorIS4_SaIS4_EEEE7invokerIS4_ESt26random_access_iterator_tagE4doitES9_S9_RKSB_, @function
_ZN3tbb8internal22parallel_for_each_implIN9__gnu_cxx17__normal_iteratorIP9init_taskSt6vectorIS4_SaIS4_EEEE7invokerIS4_ESt26random_access_iterator_tagE4doitES9_S9_RKSB_:
.LFB5794:
	.cfi_startproc
	pushq	%rbp
	.cfi_def_cfa_offset 16
	.cfi_offset 6, -16
	movq	%rsp, %rbp
	.cfi_def_cfa_register 6
	subq	$80, %rsp
	movq	%rdi, -56(%rbp)
	movq	%rsi, -64(%rbp)
	movq	%rdx, -72(%rbp)
	movq	%fs:40, %rax
	movq	%rax, -8(%rbp)
	xorl	%eax, %eax
	movq	-72(%rbp), %rdx
	leaq	-40(%rbp), %rax
	movq	%rdx, %rsi
	movq	%rax, %rdi
	call	_ZN3tbb8internal26parallel_for_each_body_forI7invokerI9init_taskEN9__gnu_cxx17__normal_iteratorIPS3_St6vectorIS3_SaIS3_EEEEEC1ERKS4_
	movq	-64(%rbp), %rdx
	movq	-56(%rbp), %rsi
	leaq	-32(%rbp), %rax
	movl	$1, %ecx
	movq	%rax, %rdi
	call	_ZN3tbb13blocked_rangeIN9__gnu_cxx17__normal_iteratorIP9init_taskSt6vectorIS3_SaIS3_EEEEEC1ES8_S8_m
	leaq	-40(%rbp), %rdx
	leaq	-32(%rbp), %rax
	movq	%rdx, %rsi
	movq	%rax, %rdi
	call	_ZN3tbb12parallel_forINS_13blocked_rangeIN9__gnu_cxx17__normal_iteratorIP9init_taskSt6vectorIS4_SaIS4_EEEEEENS_8internal26parallel_for_each_body_forI7invokerIS4_ES9_EEEEvRKT_RKT0_
	nop
	movq	-8(%rbp), %rax
	xorq	%fs:40, %rax
	je	.L450
	call	__stack_chk_fail@PLT
.L450:
	leave
	.cfi_def_cfa 7, 8
	ret
	.cfi_endproc
.LFE5794:
	.size	_ZN3tbb8internal22parallel_for_each_implIN9__gnu_cxx17__normal_iteratorIP9init_taskSt6vectorIS4_SaIS4_EEEE7invokerIS4_ESt26random_access_iterator_tagE4doitES9_S9_RKSB_, .-_ZN3tbb8internal22parallel_for_each_implIN9__gnu_cxx17__normal_iteratorIP9init_taskSt6vectorIS4_SaIS4_EEEE7invokerIS4_ESt26random_access_iterator_tagE4doitES9_S9_RKSB_
	.section	.text._ZSt7forwardI11access_taskEOT_RNSt16remove_referenceIS1_E4typeE,"axG",@progbits,_ZSt7forwardI11access_taskEOT_RNSt16remove_referenceIS1_E4typeE,comdat
	.weak	_ZSt7forwardI11access_taskEOT_RNSt16remove_referenceIS1_E4typeE
	.type	_ZSt7forwardI11access_taskEOT_RNSt16remove_referenceIS1_E4typeE, @function
_ZSt7forwardI11access_taskEOT_RNSt16remove_referenceIS1_E4typeE:
.LFB5796:
	.cfi_startproc
	pushq	%rbp
	.cfi_def_cfa_offset 16
	.cfi_offset 6, -16
	movq	%rsp, %rbp
	.cfi_def_cfa_register 6
	movq	%rdi, -8(%rbp)
	movq	-8(%rbp), %rax
	popq	%rbp
	.cfi_def_cfa 7, 8
	ret
	.cfi_endproc
.LFE5796:
	.size	_ZSt7forwardI11access_taskEOT_RNSt16remove_referenceIS1_E4typeE, .-_ZSt7forwardI11access_taskEOT_RNSt16remove_referenceIS1_E4typeE
	.section	.text._ZNSt6vectorI11access_taskSaIS0_EE12emplace_backIJS0_EEEvDpOT_,"axG",@progbits,_ZNSt6vectorI11access_taskSaIS0_EE12emplace_backIJS0_EEEvDpOT_,comdat
	.align 2
	.weak	_ZNSt6vectorI11access_taskSaIS0_EE12emplace_backIJS0_EEEvDpOT_
	.type	_ZNSt6vectorI11access_taskSaIS0_EE12emplace_backIJS0_EEEvDpOT_, @function
_ZNSt6vectorI11access_taskSaIS0_EE12emplace_backIJS0_EEEvDpOT_:
.LFB5795:
	.cfi_startproc
	pushq	%rbp
	.cfi_def_cfa_offset 16
	.cfi_offset 6, -16
	movq	%rsp, %rbp
	.cfi_def_cfa_register 6
	pushq	%rbx
	subq	$24, %rsp
	.cfi_offset 3, -24
	movq	%rdi, -24(%rbp)
	movq	%rsi, -32(%rbp)
	movq	-24(%rbp), %rax
	movq	8(%rax), %rdx
	movq	-24(%rbp), %rax
	movq	16(%rax), %rax
	cmpq	%rax, %rdx
	je	.L454
	movq	-32(%rbp), %rax
	movq	%rax, %rdi
	call	_ZSt7forwardI11access_taskEOT_RNSt16remove_referenceIS1_E4typeE
	movq	%rax, %rdx
	movq	-24(%rbp), %rax
	movq	8(%rax), %rcx
	movq	-24(%rbp), %rax
	movq	%rcx, %rsi
	movq	%rax, %rdi
	call	_ZNSt16allocator_traitsISaI11access_taskEE9constructIS0_JS0_EEEvRS1_PT_DpOT0_
	movq	-24(%rbp), %rax
	movq	8(%rax), %rax
	leaq	1(%rax), %rdx
	movq	-24(%rbp), %rax
	movq	%rdx, 8(%rax)
	jmp	.L456
.L454:
	movq	-32(%rbp), %rax
	movq	%rax, %rdi
	call	_ZSt7forwardI11access_taskEOT_RNSt16remove_referenceIS1_E4typeE
	movq	%rax, %rbx
	movq	-24(%rbp), %rax
	movq	%rax, %rdi
	call	_ZNSt6vectorI11access_taskSaIS0_EE3endEv
	movq	%rax, %rcx
	movq	-24(%rbp), %rax
	movq	%rbx, %rdx
	movq	%rcx, %rsi
	movq	%rax, %rdi
	call	_ZNSt6vectorI11access_taskSaIS0_EE17_M_realloc_insertIJS0_EEEvN9__gnu_cxx17__normal_iteratorIPS0_S2_EEDpOT_
.L456:
	nop
	addq	$24, %rsp
	popq	%rbx
	popq	%rbp
	.cfi_def_cfa 7, 8
	ret
	.cfi_endproc
.LFE5795:
	.size	_ZNSt6vectorI11access_taskSaIS0_EE12emplace_backIJS0_EEEvDpOT_, .-_ZNSt6vectorI11access_taskSaIS0_EE12emplace_backIJS0_EEEvDpOT_
	.section	.text._ZN9__gnu_cxx17__normal_iteratorIP11access_taskSt6vectorIS1_SaIS1_EEEC2ERKS2_,"axG",@progbits,_ZN9__gnu_cxx17__normal_iteratorIP11access_taskSt6vectorIS1_SaIS1_EEEC5ERKS2_,comdat
	.align 2
	.weak	_ZN9__gnu_cxx17__normal_iteratorIP11access_taskSt6vectorIS1_SaIS1_EEEC2ERKS2_
