	.file	"main.cpp"
	.text
	.section	.text._ZN3tbb10interface98internal9flag_task7executeEv,"axG",@progbits,_ZN3tbb10interface98internal9flag_task7executeEv,comdat
	.align 2
	.p2align 4,,15
	.weak	_ZN3tbb10interface98internal9flag_task7executeEv
	.type	_ZN3tbb10interface98internal9flag_task7executeEv, @function
_ZN3tbb10interface98internal9flag_task7executeEv:
.LFB5023:
	.cfi_startproc
	xorl	%eax, %eax
	ret
	.cfi_endproc
.LFE5023:
	.size	_ZN3tbb10interface98internal9flag_task7executeEv, .-_ZN3tbb10interface98internal9flag_task7executeEv
	.section	.text._ZN3tbb17concurrent_vectorINS_8internal6paddedINS_10interface68internal11ets_elementI17thread_local_varsEELm128EEENS_23cache_aligned_allocatorIS8_EEE13destroy_arrayEPvm,"axG",@progbits,_ZN3tbb17concurrent_vectorINS_8internal6paddedINS_10interface68internal11ets_elementI17thread_local_varsEELm128EEENS_23cache_aligned_allocatorIS8_EEE13destroy_arrayEPvm,comdat
	.align 2
	.p2align 4,,15
	.weak	_ZN3tbb17concurrent_vectorINS_8internal6paddedINS_10interface68internal11ets_elementI17thread_local_varsEELm128EEENS_23cache_aligned_allocatorIS8_EEE13destroy_arrayEPvm
	.type	_ZN3tbb17concurrent_vectorINS_8internal6paddedINS_10interface68internal11ets_elementI17thread_local_varsEELm128EEENS_23cache_aligned_allocatorIS8_EEE13destroy_arrayEPvm, @function
_ZN3tbb17concurrent_vectorINS_8internal6paddedINS_10interface68internal11ets_elementI17thread_local_varsEELm128EEENS_23cache_aligned_allocatorIS8_EEE13destroy_arrayEPvm:
.LFB6192:
	.cfi_startproc
	rep ret
	.cfi_endproc
.LFE6192:
	.size	_ZN3tbb17concurrent_vectorINS_8internal6paddedINS_10interface68internal11ets_elementI17thread_local_varsEELm128EEENS_23cache_aligned_allocatorIS8_EEE13destroy_arrayEPvm, .-_ZN3tbb17concurrent_vectorINS_8internal6paddedINS_10interface68internal11ets_elementI17thread_local_varsEELm128EEENS_23cache_aligned_allocatorIS8_EEE13destroy_arrayEPvm
	.section	.text._ZN3tbb10interface98internal9start_forINS_13blocked_rangeIN9__gnu_cxx17__normal_iteratorIP14tear_down_taskSt6vectorIS6_SaIS6_EEEEEENS_8internal26parallel_for_each_body_forI7invokerIS6_ESB_EEKNS_16auto_partitionerEED2Ev,"axG",@progbits,_ZN3tbb10interface98internal9start_forINS_13blocked_rangeIN9__gnu_cxx17__normal_iteratorIP14tear_down_taskSt6vectorIS6_SaIS6_EEEEEENS_8internal26parallel_for_each_body_forI7invokerIS6_ESB_EEKNS_16auto_partitionerEED5Ev,comdat
	.align 2
	.p2align 4,,15
	.weak	_ZN3tbb10interface98internal9start_forINS_13blocked_rangeIN9__gnu_cxx17__normal_iteratorIP14tear_down_taskSt6vectorIS6_SaIS6_EEEEEENS_8internal26parallel_for_each_body_forI7invokerIS6_ESB_EEKNS_16auto_partitionerEED2Ev
	.type	_ZN3tbb10interface98internal9start_forINS_13blocked_rangeIN9__gnu_cxx17__normal_iteratorIP14tear_down_taskSt6vectorIS6_SaIS6_EEEEEENS_8internal26parallel_for_each_body_forI7invokerIS6_ESB_EEKNS_16auto_partitionerEED2Ev, @function
_ZN3tbb10interface98internal9start_forINS_13blocked_rangeIN9__gnu_cxx17__normal_iteratorIP14tear_down_taskSt6vectorIS6_SaIS6_EEEEEENS_8internal26parallel_for_each_body_forI7invokerIS6_ESB_EEKNS_16auto_partitionerEED2Ev:
.LFB6604:
	.cfi_startproc
	rep ret
	.cfi_endproc
.LFE6604:
	.size	_ZN3tbb10interface98internal9start_forINS_13blocked_rangeIN9__gnu_cxx17__normal_iteratorIP14tear_down_taskSt6vectorIS6_SaIS6_EEEEEENS_8internal26parallel_for_each_body_forI7invokerIS6_ESB_EEKNS_16auto_partitionerEED2Ev, .-_ZN3tbb10interface98internal9start_forINS_13blocked_rangeIN9__gnu_cxx17__normal_iteratorIP14tear_down_taskSt6vectorIS6_SaIS6_EEEEEENS_8internal26parallel_for_each_body_forI7invokerIS6_ESB_EEKNS_16auto_partitionerEED2Ev
	.weak	_ZN3tbb10interface98internal9start_forINS_13blocked_rangeIN9__gnu_cxx17__normal_iteratorIP14tear_down_taskSt6vectorIS6_SaIS6_EEEEEENS_8internal26parallel_for_each_body_forI7invokerIS6_ESB_EEKNS_16auto_partitionerEED1Ev
	.set	_ZN3tbb10interface98internal9start_forINS_13blocked_rangeIN9__gnu_cxx17__normal_iteratorIP14tear_down_taskSt6vectorIS6_SaIS6_EEEEEENS_8internal26parallel_for_each_body_forI7invokerIS6_ESB_EEKNS_16auto_partitionerEED1Ev,_ZN3tbb10interface98internal9start_forINS_13blocked_rangeIN9__gnu_cxx17__normal_iteratorIP14tear_down_taskSt6vectorIS6_SaIS6_EEEEEENS_8internal26parallel_for_each_body_forI7invokerIS6_ESB_EEKNS_16auto_partitionerEED2Ev
	.section	.text._ZN3tbb10interface98internal9start_forINS_13blocked_rangeIN9__gnu_cxx17__normal_iteratorIP11access_taskSt6vectorIS6_SaIS6_EEEEEENS_8internal26parallel_for_each_body_forI7invokerIS6_ESB_EEKNS_16auto_partitionerEED2Ev,"axG",@progbits,_ZN3tbb10interface98internal9start_forINS_13blocked_rangeIN9__gnu_cxx17__normal_iteratorIP11access_taskSt6vectorIS6_SaIS6_EEEEEENS_8internal26parallel_for_each_body_forI7invokerIS6_ESB_EEKNS_16auto_partitionerEED5Ev,comdat
	.align 2
	.p2align 4,,15
	.weak	_ZN3tbb10interface98internal9start_forINS_13blocked_rangeIN9__gnu_cxx17__normal_iteratorIP11access_taskSt6vectorIS6_SaIS6_EEEEEENS_8internal26parallel_for_each_body_forI7invokerIS6_ESB_EEKNS_16auto_partitionerEED2Ev
	.type	_ZN3tbb10interface98internal9start_forINS_13blocked_rangeIN9__gnu_cxx17__normal_iteratorIP11access_taskSt6vectorIS6_SaIS6_EEEEEENS_8internal26parallel_for_each_body_forI7invokerIS6_ESB_EEKNS_16auto_partitionerEED2Ev, @function
_ZN3tbb10interface98internal9start_forINS_13blocked_rangeIN9__gnu_cxx17__normal_iteratorIP11access_taskSt6vectorIS6_SaIS6_EEEEEENS_8internal26parallel_for_each_body_forI7invokerIS6_ESB_EEKNS_16auto_partitionerEED2Ev:
.LFB6608:
	.cfi_startproc
	rep ret
	.cfi_endproc
.LFE6608:
	.size	_ZN3tbb10interface98internal9start_forINS_13blocked_rangeIN9__gnu_cxx17__normal_iteratorIP11access_taskSt6vectorIS6_SaIS6_EEEEEENS_8internal26parallel_for_each_body_forI7invokerIS6_ESB_EEKNS_16auto_partitionerEED2Ev, .-_ZN3tbb10interface98internal9start_forINS_13blocked_rangeIN9__gnu_cxx17__normal_iteratorIP11access_taskSt6vectorIS6_SaIS6_EEEEEENS_8internal26parallel_for_each_body_forI7invokerIS6_ESB_EEKNS_16auto_partitionerEED2Ev
	.weak	_ZN3tbb10interface98internal9start_forINS_13blocked_rangeIN9__gnu_cxx17__normal_iteratorIP11access_taskSt6vectorIS6_SaIS6_EEEEEENS_8internal26parallel_for_each_body_forI7invokerIS6_ESB_EEKNS_16auto_partitionerEED1Ev
	.set	_ZN3tbb10interface98internal9start_forINS_13blocked_rangeIN9__gnu_cxx17__normal_iteratorIP11access_taskSt6vectorIS6_SaIS6_EEEEEENS_8internal26parallel_for_each_body_forI7invokerIS6_ESB_EEKNS_16auto_partitionerEED1Ev,_ZN3tbb10interface98internal9start_forINS_13blocked_rangeIN9__gnu_cxx17__normal_iteratorIP11access_taskSt6vectorIS6_SaIS6_EEEEEENS_8internal26parallel_for_each_body_forI7invokerIS6_ESB_EEKNS_16auto_partitionerEED2Ev
	.section	.text._ZN3tbb10interface98internal9start_forINS_13blocked_rangeIN9__gnu_cxx17__normal_iteratorIP9init_taskSt6vectorIS6_SaIS6_EEEEEENS_8internal26parallel_for_each_body_forI7invokerIS6_ESB_EEKNS_16auto_partitionerEED2Ev,"axG",@progbits,_ZN3tbb10interface98internal9start_forINS_13blocked_rangeIN9__gnu_cxx17__normal_iteratorIP9init_taskSt6vectorIS6_SaIS6_EEEEEENS_8internal26parallel_for_each_body_forI7invokerIS6_ESB_EEKNS_16auto_partitionerEED5Ev,comdat
	.align 2
	.p2align 4,,15
	.weak	_ZN3tbb10interface98internal9start_forINS_13blocked_rangeIN9__gnu_cxx17__normal_iteratorIP9init_taskSt6vectorIS6_SaIS6_EEEEEENS_8internal26parallel_for_each_body_forI7invokerIS6_ESB_EEKNS_16auto_partitionerEED2Ev
	.type	_ZN3tbb10interface98internal9start_forINS_13blocked_rangeIN9__gnu_cxx17__normal_iteratorIP9init_taskSt6vectorIS6_SaIS6_EEEEEENS_8internal26parallel_for_each_body_forI7invokerIS6_ESB_EEKNS_16auto_partitionerEED2Ev, @function
_ZN3tbb10interface98internal9start_forINS_13blocked_rangeIN9__gnu_cxx17__normal_iteratorIP9init_taskSt6vectorIS6_SaIS6_EEEEEENS_8internal26parallel_for_each_body_forI7invokerIS6_ESB_EEKNS_16auto_partitionerEED2Ev:
.LFB6612:
	.cfi_startproc
	rep ret
	.cfi_endproc
.LFE6612:
	.size	_ZN3tbb10interface98internal9start_forINS_13blocked_rangeIN9__gnu_cxx17__normal_iteratorIP9init_taskSt6vectorIS6_SaIS6_EEEEEENS_8internal26parallel_for_each_body_forI7invokerIS6_ESB_EEKNS_16auto_partitionerEED2Ev, .-_ZN3tbb10interface98internal9start_forINS_13blocked_rangeIN9__gnu_cxx17__normal_iteratorIP9init_taskSt6vectorIS6_SaIS6_EEEEEENS_8internal26parallel_for_each_body_forI7invokerIS6_ESB_EEKNS_16auto_partitionerEED2Ev
	.weak	_ZN3tbb10interface98internal9start_forINS_13blocked_rangeIN9__gnu_cxx17__normal_iteratorIP9init_taskSt6vectorIS6_SaIS6_EEEEEENS_8internal26parallel_for_each_body_forI7invokerIS6_ESB_EEKNS_16auto_partitionerEED1Ev
	.set	_ZN3tbb10interface98internal9start_forINS_13blocked_rangeIN9__gnu_cxx17__normal_iteratorIP9init_taskSt6vectorIS6_SaIS6_EEEEEENS_8internal26parallel_for_each_body_forI7invokerIS6_ESB_EEKNS_16auto_partitionerEED1Ev,_ZN3tbb10interface98internal9start_forINS_13blocked_rangeIN9__gnu_cxx17__normal_iteratorIP9init_taskSt6vectorIS6_SaIS6_EEEEEENS_8internal26parallel_for_each_body_forI7invokerIS6_ESB_EEKNS_16auto_partitionerEED2Ev
	.section	.text._ZN3tbb10interface68internal13callback_leafI17thread_local_varsNS1_17construct_by_argsIS3_JjEEEED2Ev,"axG",@progbits,_ZN3tbb10interface68internal13callback_leafI17thread_local_varsNS1_17construct_by_argsIS3_JjEEEED5Ev,comdat
	.align 2
	.p2align 4,,15
	.weak	_ZN3tbb10interface68internal13callback_leafI17thread_local_varsNS1_17construct_by_argsIS3_JjEEEED2Ev
	.type	_ZN3tbb10interface68internal13callback_leafI17thread_local_varsNS1_17construct_by_argsIS3_JjEEEED2Ev, @function
_ZN3tbb10interface68internal13callback_leafI17thread_local_varsNS1_17construct_by_argsIS3_JjEEEED2Ev:
.LFB6616:
	.cfi_startproc
	rep ret
	.cfi_endproc
.LFE6616:
	.size	_ZN3tbb10interface68internal13callback_leafI17thread_local_varsNS1_17construct_by_argsIS3_JjEEEED2Ev, .-_ZN3tbb10interface68internal13callback_leafI17thread_local_varsNS1_17construct_by_argsIS3_JjEEEED2Ev
	.weak	_ZN3tbb10interface68internal13callback_leafI17thread_local_varsNS1_17construct_by_argsIS3_JjEEEED1Ev
	.set	_ZN3tbb10interface68internal13callback_leafI17thread_local_varsNS1_17construct_by_argsIS3_JjEEEED1Ev,_ZN3tbb10interface68internal13callback_leafI17thread_local_varsNS1_17construct_by_argsIS3_JjEEEED2Ev
	.section	.text._ZN3tbb10interface98internal9flag_taskD2Ev,"axG",@progbits,_ZN3tbb10interface98internal9flag_taskD5Ev,comdat
	.align 2
	.p2align 4,,15
	.weak	_ZN3tbb10interface98internal9flag_taskD2Ev
	.type	_ZN3tbb10interface98internal9flag_taskD2Ev, @function
_ZN3tbb10interface98internal9flag_taskD2Ev:
.LFB6620:
	.cfi_startproc
	rep ret
	.cfi_endproc
.LFE6620:
	.size	_ZN3tbb10interface98internal9flag_taskD2Ev, .-_ZN3tbb10interface98internal9flag_taskD2Ev
	.weak	_ZN3tbb10interface98internal9flag_taskD1Ev
	.set	_ZN3tbb10interface98internal9flag_taskD1Ev,_ZN3tbb10interface98internal9flag_taskD2Ev
	.section	.text._ZN3tbb10interface98internal9start_forINS_13blocked_rangeIN9__gnu_cxx17__normal_iteratorIP14tear_down_taskSt6vectorIS6_SaIS6_EEEEEENS_8internal26parallel_for_each_body_forI7invokerIS6_ESB_EEKNS_16auto_partitionerEE13note_affinityEt,"axG",@progbits,_ZN3tbb10interface98internal9start_forINS_13blocked_rangeIN9__gnu_cxx17__normal_iteratorIP14tear_down_taskSt6vectorIS6_SaIS6_EEEEEENS_8internal26parallel_for_each_body_forI7invokerIS6_ESB_EEKNS_16auto_partitionerEE13note_affinityEt,comdat
	.align 2
	.p2align 4,,15
	.weak	_ZN3tbb10interface98internal9start_forINS_13blocked_rangeIN9__gnu_cxx17__normal_iteratorIP14tear_down_taskSt6vectorIS6_SaIS6_EEEEEENS_8internal26parallel_for_each_body_forI7invokerIS6_ESB_EEKNS_16auto_partitionerEE13note_affinityEt
	.type	_ZN3tbb10interface98internal9start_forINS_13blocked_rangeIN9__gnu_cxx17__normal_iteratorIP14tear_down_taskSt6vectorIS6_SaIS6_EEEEEENS_8internal26parallel_for_each_body_forI7invokerIS6_ESB_EEKNS_16auto_partitionerEE13note_affinityEt, @function
_ZN3tbb10interface98internal9start_forINS_13blocked_rangeIN9__gnu_cxx17__normal_iteratorIP14tear_down_taskSt6vectorIS6_SaIS6_EEEEEENS_8internal26parallel_for_each_body_forI7invokerIS6_ESB_EEKNS_16auto_partitionerEE13note_affinityEt:
.LFB6641:
	.cfi_startproc
	rep ret
	.cfi_endproc
.LFE6641:
	.size	_ZN3tbb10interface98internal9start_forINS_13blocked_rangeIN9__gnu_cxx17__normal_iteratorIP14tear_down_taskSt6vectorIS6_SaIS6_EEEEEENS_8internal26parallel_for_each_body_forI7invokerIS6_ESB_EEKNS_16auto_partitionerEE13note_affinityEt, .-_ZN3tbb10interface98internal9start_forINS_13blocked_rangeIN9__gnu_cxx17__normal_iteratorIP14tear_down_taskSt6vectorIS6_SaIS6_EEEEEENS_8internal26parallel_for_each_body_forI7invokerIS6_ESB_EEKNS_16auto_partitionerEE13note_affinityEt
	.section	.text._ZN3tbb10interface98internal9start_forINS_13blocked_rangeIN9__gnu_cxx17__normal_iteratorIP11access_taskSt6vectorIS6_SaIS6_EEEEEENS_8internal26parallel_for_each_body_forI7invokerIS6_ESB_EEKNS_16auto_partitionerEE13note_affinityEt,"axG",@progbits,_ZN3tbb10interface98internal9start_forINS_13blocked_rangeIN9__gnu_cxx17__normal_iteratorIP11access_taskSt6vectorIS6_SaIS6_EEEEEENS_8internal26parallel_for_each_body_forI7invokerIS6_ESB_EEKNS_16auto_partitionerEE13note_affinityEt,comdat
	.align 2
	.p2align 4,,15
	.weak	_ZN3tbb10interface98internal9start_forINS_13blocked_rangeIN9__gnu_cxx17__normal_iteratorIP11access_taskSt6vectorIS6_SaIS6_EEEEEENS_8internal26parallel_for_each_body_forI7invokerIS6_ESB_EEKNS_16auto_partitionerEE13note_affinityEt
	.type	_ZN3tbb10interface98internal9start_forINS_13blocked_rangeIN9__gnu_cxx17__normal_iteratorIP11access_taskSt6vectorIS6_SaIS6_EEEEEENS_8internal26parallel_for_each_body_forI7invokerIS6_ESB_EEKNS_16auto_partitionerEE13note_affinityEt, @function
_ZN3tbb10interface98internal9start_forINS_13blocked_rangeIN9__gnu_cxx17__normal_iteratorIP11access_taskSt6vectorIS6_SaIS6_EEEEEENS_8internal26parallel_for_each_body_forI7invokerIS6_ESB_EEKNS_16auto_partitionerEE13note_affinityEt:
.LFB6643:
	.cfi_startproc
	rep ret
	.cfi_endproc
.LFE6643:
	.size	_ZN3tbb10interface98internal9start_forINS_13blocked_rangeIN9__gnu_cxx17__normal_iteratorIP11access_taskSt6vectorIS6_SaIS6_EEEEEENS_8internal26parallel_for_each_body_forI7invokerIS6_ESB_EEKNS_16auto_partitionerEE13note_affinityEt, .-_ZN3tbb10interface98internal9start_forINS_13blocked_rangeIN9__gnu_cxx17__normal_iteratorIP11access_taskSt6vectorIS6_SaIS6_EEEEEENS_8internal26parallel_for_each_body_forI7invokerIS6_ESB_EEKNS_16auto_partitionerEE13note_affinityEt
	.section	.text._ZN3tbb10interface98internal9start_forINS_13blocked_rangeIN9__gnu_cxx17__normal_iteratorIP9init_taskSt6vectorIS6_SaIS6_EEEEEENS_8internal26parallel_for_each_body_forI7invokerIS6_ESB_EEKNS_16auto_partitionerEE13note_affinityEt,"axG",@progbits,_ZN3tbb10interface98internal9start_forINS_13blocked_rangeIN9__gnu_cxx17__normal_iteratorIP9init_taskSt6vectorIS6_SaIS6_EEEEEENS_8internal26parallel_for_each_body_forI7invokerIS6_ESB_EEKNS_16auto_partitionerEE13note_affinityEt,comdat
	.align 2
	.p2align 4,,15
	.weak	_ZN3tbb10interface98internal9start_forINS_13blocked_rangeIN9__gnu_cxx17__normal_iteratorIP9init_taskSt6vectorIS6_SaIS6_EEEEEENS_8internal26parallel_for_each_body_forI7invokerIS6_ESB_EEKNS_16auto_partitionerEE13note_affinityEt
	.type	_ZN3tbb10interface98internal9start_forINS_13blocked_rangeIN9__gnu_cxx17__normal_iteratorIP9init_taskSt6vectorIS6_SaIS6_EEEEEENS_8internal26parallel_for_each_body_forI7invokerIS6_ESB_EEKNS_16auto_partitionerEE13note_affinityEt, @function
_ZN3tbb10interface98internal9start_forINS_13blocked_rangeIN9__gnu_cxx17__normal_iteratorIP9init_taskSt6vectorIS6_SaIS6_EEEEEENS_8internal26parallel_for_each_body_forI7invokerIS6_ESB_EEKNS_16auto_partitionerEE13note_affinityEt:
.LFB6645:
	.cfi_startproc
	rep ret
	.cfi_endproc
.LFE6645:
	.size	_ZN3tbb10interface98internal9start_forINS_13blocked_rangeIN9__gnu_cxx17__normal_iteratorIP9init_taskSt6vectorIS6_SaIS6_EEEEEENS_8internal26parallel_for_each_body_forI7invokerIS6_ESB_EEKNS_16auto_partitionerEE13note_affinityEt, .-_ZN3tbb10interface98internal9start_forINS_13blocked_rangeIN9__gnu_cxx17__normal_iteratorIP9init_taskSt6vectorIS6_SaIS6_EEEEEENS_8internal26parallel_for_each_body_forI7invokerIS6_ESB_EEKNS_16auto_partitionerEE13note_affinityEt
	.section	.text._ZN3tbb10interface68internal13callback_leafI17thread_local_varsNS1_17construct_by_argsIS3_JjEEEE9constructEPv,"axG",@progbits,_ZN3tbb10interface68internal13callback_leafI17thread_local_varsNS1_17construct_by_argsIS3_JjEEEE9constructEPv,comdat
	.align 2
	.p2align 4,,15
	.weak	_ZN3tbb10interface68internal13callback_leafI17thread_local_varsNS1_17construct_by_argsIS3_JjEEEE9constructEPv
	.type	_ZN3tbb10interface68internal13callback_leafI17thread_local_varsNS1_17construct_by_argsIS3_JjEEEE9constructEPv, @function
_ZN3tbb10interface68internal13callback_leafI17thread_local_varsNS1_17construct_by_argsIS3_JjEEEE9constructEPv:
.LFB6648:
	.cfi_startproc
	testq	%rsi, %rsi
	je	.L12
	movl	8(%rdi), %eax
	movq	$0, 4(%rsi)
	movq	$0, 16(%rsi)
	movq	$0, 24(%rsi)
	movq	$0, 32(%rsi)
	movl	%eax, (%rsi)
.L12:
	rep ret
	.cfi_endproc
.LFE6648:
	.size	_ZN3tbb10interface68internal13callback_leafI17thread_local_varsNS1_17construct_by_argsIS3_JjEEEE9constructEPv, .-_ZN3tbb10interface68internal13callback_leafI17thread_local_varsNS1_17construct_by_argsIS3_JjEEEE9constructEPv
	.section	.text._ZN3tbb10interface98internal9flag_taskD0Ev,"axG",@progbits,_ZN3tbb10interface98internal9flag_taskD5Ev,comdat
	.align 2
	.p2align 4,,15
	.weak	_ZN3tbb10interface98internal9flag_taskD0Ev
	.type	_ZN3tbb10interface98internal9flag_taskD0Ev, @function
_ZN3tbb10interface98internal9flag_taskD0Ev:
.LFB6622:
	.cfi_startproc
	movl	$16, %esi
	jmp	_ZdlPvm@PLT
	.cfi_endproc
.LFE6622:
	.size	_ZN3tbb10interface98internal9flag_taskD0Ev, .-_ZN3tbb10interface98internal9flag_taskD0Ev
	.section	.text._ZN3tbb10interface98internal9start_forINS_13blocked_rangeIN9__gnu_cxx17__normal_iteratorIP9init_taskSt6vectorIS6_SaIS6_EEEEEENS_8internal26parallel_for_each_body_forI7invokerIS6_ESB_EEKNS_16auto_partitionerEED0Ev,"axG",@progbits,_ZN3tbb10interface98internal9start_forINS_13blocked_rangeIN9__gnu_cxx17__normal_iteratorIP9init_taskSt6vectorIS6_SaIS6_EEEEEENS_8internal26parallel_for_each_body_forI7invokerIS6_ESB_EEKNS_16auto_partitionerEED5Ev,comdat
	.align 2
	.p2align 4,,15
	.weak	_ZN3tbb10interface98internal9start_forINS_13blocked_rangeIN9__gnu_cxx17__normal_iteratorIP9init_taskSt6vectorIS6_SaIS6_EEEEEENS_8internal26parallel_for_each_body_forI7invokerIS6_ESB_EEKNS_16auto_partitionerEED0Ev
	.type	_ZN3tbb10interface98internal9start_forINS_13blocked_rangeIN9__gnu_cxx17__normal_iteratorIP9init_taskSt6vectorIS6_SaIS6_EEEEEENS_8internal26parallel_for_each_body_forI7invokerIS6_ESB_EEKNS_16auto_partitionerEED0Ev, @function
_ZN3tbb10interface98internal9start_forINS_13blocked_rangeIN9__gnu_cxx17__normal_iteratorIP9init_taskSt6vectorIS6_SaIS6_EEEEEENS_8internal26parallel_for_each_body_forI7invokerIS6_ESB_EEKNS_16auto_partitionerEED0Ev:
.LFB6614:
	.cfi_startproc
	movl	$56, %esi
	jmp	_ZdlPvm@PLT
	.cfi_endproc
.LFE6614:
	.size	_ZN3tbb10interface98internal9start_forINS_13blocked_rangeIN9__gnu_cxx17__normal_iteratorIP9init_taskSt6vectorIS6_SaIS6_EEEEEENS_8internal26parallel_for_each_body_forI7invokerIS6_ESB_EEKNS_16auto_partitionerEED0Ev, .-_ZN3tbb10interface98internal9start_forINS_13blocked_rangeIN9__gnu_cxx17__normal_iteratorIP9init_taskSt6vectorIS6_SaIS6_EEEEEENS_8internal26parallel_for_each_body_forI7invokerIS6_ESB_EEKNS_16auto_partitionerEED0Ev
	.section	.text._ZN3tbb10interface98internal9start_forINS_13blocked_rangeIN9__gnu_cxx17__normal_iteratorIP11access_taskSt6vectorIS6_SaIS6_EEEEEENS_8internal26parallel_for_each_body_forI7invokerIS6_ESB_EEKNS_16auto_partitionerEED0Ev,"axG",@progbits,_ZN3tbb10interface98internal9start_forINS_13blocked_rangeIN9__gnu_cxx17__normal_iteratorIP11access_taskSt6vectorIS6_SaIS6_EEEEEENS_8internal26parallel_for_each_body_forI7invokerIS6_ESB_EEKNS_16auto_partitionerEED5Ev,comdat
	.align 2
	.p2align 4,,15
	.weak	_ZN3tbb10interface98internal9start_forINS_13blocked_rangeIN9__gnu_cxx17__normal_iteratorIP11access_taskSt6vectorIS6_SaIS6_EEEEEENS_8internal26parallel_for_each_body_forI7invokerIS6_ESB_EEKNS_16auto_partitionerEED0Ev
	.type	_ZN3tbb10interface98internal9start_forINS_13blocked_rangeIN9__gnu_cxx17__normal_iteratorIP11access_taskSt6vectorIS6_SaIS6_EEEEEENS_8internal26parallel_for_each_body_forI7invokerIS6_ESB_EEKNS_16auto_partitionerEED0Ev, @function
_ZN3tbb10interface98internal9start_forINS_13blocked_rangeIN9__gnu_cxx17__normal_iteratorIP11access_taskSt6vectorIS6_SaIS6_EEEEEENS_8internal26parallel_for_each_body_forI7invokerIS6_ESB_EEKNS_16auto_partitionerEED0Ev:
.LFB6610:
	.cfi_startproc
	movl	$56, %esi
	jmp	_ZdlPvm@PLT
	.cfi_endproc
.LFE6610:
	.size	_ZN3tbb10interface98internal9start_forINS_13blocked_rangeIN9__gnu_cxx17__normal_iteratorIP11access_taskSt6vectorIS6_SaIS6_EEEEEENS_8internal26parallel_for_each_body_forI7invokerIS6_ESB_EEKNS_16auto_partitionerEED0Ev, .-_ZN3tbb10interface98internal9start_forINS_13blocked_rangeIN9__gnu_cxx17__normal_iteratorIP11access_taskSt6vectorIS6_SaIS6_EEEEEENS_8internal26parallel_for_each_body_forI7invokerIS6_ESB_EEKNS_16auto_partitionerEED0Ev
	.section	.text._ZN3tbb10interface98internal9start_forINS_13blocked_rangeIN9__gnu_cxx17__normal_iteratorIP14tear_down_taskSt6vectorIS6_SaIS6_EEEEEENS_8internal26parallel_for_each_body_forI7invokerIS6_ESB_EEKNS_16auto_partitionerEED0Ev,"axG",@progbits,_ZN3tbb10interface98internal9start_forINS_13blocked_rangeIN9__gnu_cxx17__normal_iteratorIP14tear_down_taskSt6vectorIS6_SaIS6_EEEEEENS_8internal26parallel_for_each_body_forI7invokerIS6_ESB_EEKNS_16auto_partitionerEED5Ev,comdat
	.align 2
	.p2align 4,,15
	.weak	_ZN3tbb10interface98internal9start_forINS_13blocked_rangeIN9__gnu_cxx17__normal_iteratorIP14tear_down_taskSt6vectorIS6_SaIS6_EEEEEENS_8internal26parallel_for_each_body_forI7invokerIS6_ESB_EEKNS_16auto_partitionerEED0Ev
	.type	_ZN3tbb10interface98internal9start_forINS_13blocked_rangeIN9__gnu_cxx17__normal_iteratorIP14tear_down_taskSt6vectorIS6_SaIS6_EEEEEENS_8internal26parallel_for_each_body_forI7invokerIS6_ESB_EEKNS_16auto_partitionerEED0Ev, @function
_ZN3tbb10interface98internal9start_forINS_13blocked_rangeIN9__gnu_cxx17__normal_iteratorIP14tear_down_taskSt6vectorIS6_SaIS6_EEEEEENS_8internal26parallel_for_each_body_forI7invokerIS6_ESB_EEKNS_16auto_partitionerEED0Ev:
.LFB6606:
	.cfi_startproc
	movl	$56, %esi
	jmp	_ZdlPvm@PLT
	.cfi_endproc
.LFE6606:
	.size	_ZN3tbb10interface98internal9start_forINS_13blocked_rangeIN9__gnu_cxx17__normal_iteratorIP14tear_down_taskSt6vectorIS6_SaIS6_EEEEEENS_8internal26parallel_for_each_body_forI7invokerIS6_ESB_EEKNS_16auto_partitionerEED0Ev, .-_ZN3tbb10interface98internal9start_forINS_13blocked_rangeIN9__gnu_cxx17__normal_iteratorIP14tear_down_taskSt6vectorIS6_SaIS6_EEEEEENS_8internal26parallel_for_each_body_forI7invokerIS6_ESB_EEKNS_16auto_partitionerEED0Ev
	.section	.text._ZN3tbb10interface68internal13callback_leafI17thread_local_varsNS1_17construct_by_argsIS3_JjEEEED0Ev,"axG",@progbits,_ZN3tbb10interface68internal13callback_leafI17thread_local_varsNS1_17construct_by_argsIS3_JjEEEED5Ev,comdat
	.align 2
	.p2align 4,,15
	.weak	_ZN3tbb10interface68internal13callback_leafI17thread_local_varsNS1_17construct_by_argsIS3_JjEEEED0Ev
	.type	_ZN3tbb10interface68internal13callback_leafI17thread_local_varsNS1_17construct_by_argsIS3_JjEEEED0Ev, @function
_ZN3tbb10interface68internal13callback_leafI17thread_local_varsNS1_17construct_by_argsIS3_JjEEEED0Ev:
.LFB6618:
	.cfi_startproc
	movl	$16, %esi
	jmp	_ZdlPvm@PLT
	.cfi_endproc
.LFE6618:
	.size	_ZN3tbb10interface68internal13callback_leafI17thread_local_varsNS1_17construct_by_argsIS3_JjEEEED0Ev, .-_ZN3tbb10interface68internal13callback_leafI17thread_local_varsNS1_17construct_by_argsIS3_JjEEEED0Ev
	.section	.text._ZN3tbb17concurrent_vectorINS_8internal6paddedINS_10interface68internal11ets_elementI17thread_local_varsEELm128EEENS_23cache_aligned_allocatorIS8_EEE18internal_allocatorERNS1_25concurrent_vector_base_v3Em,"axG",@progbits,_ZN3tbb17concurrent_vectorINS_8internal6paddedINS_10interface68internal11ets_elementI17thread_local_varsEELm128EEENS_23cache_aligned_allocatorIS8_EEE18internal_allocatorERNS1_25concurrent_vector_base_v3Em,comdat
	.p2align 4,,15
	.weak	_ZN3tbb17concurrent_vectorINS_8internal6paddedINS_10interface68internal11ets_elementI17thread_local_varsEELm128EEENS_23cache_aligned_allocatorIS8_EEE18internal_allocatorERNS1_25concurrent_vector_base_v3Em
	.type	_ZN3tbb17concurrent_vectorINS_8internal6paddedINS_10interface68internal11ets_elementI17thread_local_varsEELm128EEENS_23cache_aligned_allocatorIS8_EEE18internal_allocatorERNS1_25concurrent_vector_base_v3Em, @function
_ZN3tbb17concurrent_vectorINS_8internal6paddedINS_10interface68internal11ets_elementI17thread_local_varsEELm128EEENS_23cache_aligned_allocatorIS8_EEE18internal_allocatorERNS1_25concurrent_vector_base_v3Em:
.LFB6189:
	.cfi_startproc
	movq	%rsi, %rdi
	xorl	%edx, %edx
	movl	$128, %esi
	jmp	_ZN3tbb8internal12NFS_AllocateEmmPv@PLT
	.cfi_endproc
.LFE6189:
	.size	_ZN3tbb17concurrent_vectorINS_8internal6paddedINS_10interface68internal11ets_elementI17thread_local_varsEELm128EEENS_23cache_aligned_allocatorIS8_EEE18internal_allocatorERNS1_25concurrent_vector_base_v3Em, .-_ZN3tbb17concurrent_vectorINS_8internal6paddedINS_10interface68internal11ets_elementI17thread_local_varsEELm128EEENS_23cache_aligned_allocatorIS8_EEE18internal_allocatorERNS1_25concurrent_vector_base_v3Em
	.section	.text._ZN3tbb10interface626enumerable_thread_specificI17thread_local_varsNS_23cache_aligned_allocatorIS2_EELNS_18ets_key_usage_typeE1EE12create_arrayEm,"axG",@progbits,_ZN3tbb10interface626enumerable_thread_specificI17thread_local_varsNS_23cache_aligned_allocatorIS2_EELNS_18ets_key_usage_typeE1EE12create_arrayEm,comdat
	.align 2
	.p2align 4,,15
	.weak	_ZN3tbb10interface626enumerable_thread_specificI17thread_local_varsNS_23cache_aligned_allocatorIS2_EELNS_18ets_key_usage_typeE1EE12create_arrayEm
	.type	_ZN3tbb10interface626enumerable_thread_specificI17thread_local_varsNS_23cache_aligned_allocatorIS2_EELNS_18ets_key_usage_typeE1EE12create_arrayEm, @function
_ZN3tbb10interface626enumerable_thread_specificI17thread_local_varsNS_23cache_aligned_allocatorIS2_EELNS_18ets_key_usage_typeE1EE12create_arrayEm:
.LFB6650:
	.cfi_startproc
	leaq	7(%rsi), %rdi
	xorl	%edx, %edx
	movl	$8, %esi
	shrq	$3, %rdi
	jmp	_ZN3tbb8internal12NFS_AllocateEmmPv@PLT
	.cfi_endproc
.LFE6650:
	.size	_ZN3tbb10interface626enumerable_thread_specificI17thread_local_varsNS_23cache_aligned_allocatorIS2_EELNS_18ets_key_usage_typeE1EE12create_arrayEm, .-_ZN3tbb10interface626enumerable_thread_specificI17thread_local_varsNS_23cache_aligned_allocatorIS2_EELNS_18ets_key_usage_typeE1EE12create_arrayEm
	.section	.text._ZN3tbb10interface626enumerable_thread_specificI17thread_local_varsNS_23cache_aligned_allocatorIS2_EELNS_18ets_key_usage_typeE1EE10free_arrayEPvm,"axG",@progbits,_ZN3tbb10interface626enumerable_thread_specificI17thread_local_varsNS_23cache_aligned_allocatorIS2_EELNS_18ets_key_usage_typeE1EE10free_arrayEPvm,comdat
	.align 2
	.p2align 4,,15
	.weak	_ZN3tbb10interface626enumerable_thread_specificI17thread_local_varsNS_23cache_aligned_allocatorIS2_EELNS_18ets_key_usage_typeE1EE10free_arrayEPvm
	.type	_ZN3tbb10interface626enumerable_thread_specificI17thread_local_varsNS_23cache_aligned_allocatorIS2_EELNS_18ets_key_usage_typeE1EE10free_arrayEPvm, @function
_ZN3tbb10interface626enumerable_thread_specificI17thread_local_varsNS_23cache_aligned_allocatorIS2_EELNS_18ets_key_usage_typeE1EE10free_arrayEPvm:
.LFB6651:
	.cfi_startproc
	movq	%rsi, %rdi
	jmp	_ZN3tbb8internal8NFS_FreeEPv@PLT
	.cfi_endproc
.LFE6651:
	.size	_ZN3tbb10interface626enumerable_thread_specificI17thread_local_varsNS_23cache_aligned_allocatorIS2_EELNS_18ets_key_usage_typeE1EE10free_arrayEPvm, .-_ZN3tbb10interface626enumerable_thread_specificI17thread_local_varsNS_23cache_aligned_allocatorIS2_EELNS_18ets_key_usage_typeE1EE10free_arrayEPvm
	.section	.text._ZN3tbb17concurrent_vectorINS_8internal6paddedINS_10interface68internal11ets_elementI17thread_local_varsEELm128EEENS_23cache_aligned_allocatorIS8_EEE16initialize_arrayEPvPKvm,"axG",@progbits,_ZN3tbb17concurrent_vectorINS_8internal6paddedINS_10interface68internal11ets_elementI17thread_local_varsEELm128EEENS_23cache_aligned_allocatorIS8_EEE16initialize_arrayEPvPKvm,comdat
	.align 2
	.p2align 4,,15
	.weak	_ZN3tbb17concurrent_vectorINS_8internal6paddedINS_10interface68internal11ets_elementI17thread_local_varsEELm128EEENS_23cache_aligned_allocatorIS8_EEE16initialize_arrayEPvPKvm
	.type	_ZN3tbb17concurrent_vectorINS_8internal6paddedINS_10interface68internal11ets_elementI17thread_local_varsEELm128EEENS_23cache_aligned_allocatorIS8_EEE16initialize_arrayEPvPKvm, @function
_ZN3tbb17concurrent_vectorINS_8internal6paddedINS_10interface68internal11ets_elementI17thread_local_varsEELm128EEENS_23cache_aligned_allocatorIS8_EEE16initialize_arrayEPvPKvm:
.LFB6698:
	.cfi_startproc
	testq	%rdx, %rdx
	je	.L25
	salq	$7, %rdx
	movq	%rdi, %rsi
	xorl	%eax, %eax
	addq	%rdi, %rdx
	.p2align 4,,10
	.p2align 3
.L28:
	testq	%rsi, %rsi
	je	.L27
	movl	$16, %ecx
	movq	%rsi, %rdi
	rep stosq
.L27:
	subq	$-128, %rsi
	cmpq	%rdx, %rsi
	jne	.L28
.L25:
	rep ret
	.cfi_endproc
.LFE6698:
	.size	_ZN3tbb17concurrent_vectorINS_8internal6paddedINS_10interface68internal11ets_elementI17thread_local_varsEELm128EEENS_23cache_aligned_allocatorIS8_EEE16initialize_arrayEPvPKvm, .-_ZN3tbb17concurrent_vectorINS_8internal6paddedINS_10interface68internal11ets_elementI17thread_local_varsEELm128EEENS_23cache_aligned_allocatorIS8_EEE16initialize_arrayEPvPKvm
	.section	.text._ZNK3tbb10interface68internal13callback_leafI17thread_local_varsNS1_17construct_by_argsIS3_JjEEEE5cloneEv,"axG",@progbits,_ZNK3tbb10interface68internal13callback_leafI17thread_local_varsNS1_17construct_by_argsIS3_JjEEEE5cloneEv,comdat
	.align 2
	.p2align 4,,15
	.weak	_ZNK3tbb10interface68internal13callback_leafI17thread_local_varsNS1_17construct_by_argsIS3_JjEEEE5cloneEv
	.type	_ZNK3tbb10interface68internal13callback_leafI17thread_local_varsNS1_17construct_by_argsIS3_JjEEEE5cloneEv, @function
_ZNK3tbb10interface68internal13callback_leafI17thread_local_varsNS1_17construct_by_argsIS3_JjEEEE5cloneEv:
.LFB6646:
	.cfi_startproc
	pushq	%rbx
	.cfi_def_cfa_offset 16
	.cfi_offset 3, -16
	movq	%rdi, %rbx
	movl	$16, %edi
	call	_ZN3tbb8internal23allocate_via_handler_v3Em@PLT
	testq	%rax, %rax
	je	.L36
	movl	8(%rbx), %edx
	leaq	16+_ZTVN3tbb10interface68internal13callback_leafI17thread_local_varsNS1_17construct_by_argsIS3_JjEEEEE(%rip), %rcx
	movq	%rcx, (%rax)
	movl	%edx, 8(%rax)
.L36:
	popq	%rbx
	.cfi_def_cfa_offset 8
	ret
	.cfi_endproc
.LFE6646:
	.size	_ZNK3tbb10interface68internal13callback_leafI17thread_local_varsNS1_17construct_by_argsIS3_JjEEEE5cloneEv, .-_ZNK3tbb10interface68internal13callback_leafI17thread_local_varsNS1_17construct_by_argsIS3_JjEEEE5cloneEv
	.section	.text._ZN3tbb10interface68internal13callback_leafI17thread_local_varsNS1_17construct_by_argsIS3_JjEEEE7destroyEv,"axG",@progbits,_ZN3tbb10interface68internal13callback_leafI17thread_local_varsNS1_17construct_by_argsIS3_JjEEEE7destroyEv,comdat
	.align 2
	.p2align 4,,15
	.weak	_ZN3tbb10interface68internal13callback_leafI17thread_local_varsNS1_17construct_by_argsIS3_JjEEEE7destroyEv
	.type	_ZN3tbb10interface68internal13callback_leafI17thread_local_varsNS1_17construct_by_argsIS3_JjEEEE7destroyEv, @function
_ZN3tbb10interface68internal13callback_leafI17thread_local_varsNS1_17construct_by_argsIS3_JjEEEE7destroyEv:
.LFB6647:
	.cfi_startproc
	pushq	%rbx
	.cfi_def_cfa_offset 16
	.cfi_offset 3, -16
	movq	(%rdi), %rax
	movq	%rdi, %rbx
	call	*16(%rax)
	movq	%rbx, %rdi
	popq	%rbx
	.cfi_def_cfa_offset 8
	jmp	_ZN3tbb8internal25deallocate_via_handler_v3EPv@PLT
	.cfi_endproc
.LFE6647:
	.size	_ZN3tbb10interface68internal13callback_leafI17thread_local_varsNS1_17construct_by_argsIS3_JjEEEE7destroyEv, .-_ZN3tbb10interface68internal13callback_leafI17thread_local_varsNS1_17construct_by_argsIS3_JjEEEE7destroyEv
	.section	.rodata.str1.8,"aMS",@progbits,1
	.align 8
.LC0:
	.string	"Error in pinning thread to core id "
	.section	.rodata.str1.1,"aMS",@progbits,1
.LC1:
	.string	" aborting..."
	.section	.text.unlikely,"ax",@progbits
	.align 2
	.type	_ZN9init_taskclEv.part.39, @function
_ZN9init_taskclEv.part.39:
.LFB6895:
	.cfi_startproc
	pushq	%rbx
	.cfi_def_cfa_offset 16
	.cfi_offset 3, -16
	leaq	.LC0(%rip), %rsi
	movq	%rdi, %rbx
	leaq	_ZSt4cout(%rip), %rdi
	movl	$35, %edx
	call	_ZSt16__ostream_insertIcSt11char_traitsIcEERSt13basic_ostreamIT_T0_ES6_PKS3_l@PLT
	movl	(%rbx), %esi
	leaq	_ZSt4cout(%rip), %rdi
	call	_ZNSo9_M_insertImEERSoT_@PLT
	leaq	.LC1(%rip), %rsi
	movq	%rax, %rbx
	movl	$12, %edx
	movq	%rax, %rdi
	call	_ZSt16__ostream_insertIcSt11char_traitsIcEERSt13basic_ostreamIT_T0_ES6_PKS3_l@PLT
	movq	%rbx, %rdi
	call	_ZSt4endlIcSt11char_traitsIcEERSt13basic_ostreamIT_T0_ES6_@PLT
	orl	$-1, %edi
	call	exit@PLT
	.cfi_endproc
.LFE6895:
	.size	_ZN9init_taskclEv.part.39, .-_ZN9init_taskclEv.part.39
	.section	.text._ZN3tbb10interface626enumerable_thread_specificI17thread_local_varsNS_23cache_aligned_allocatorIS2_EELNS_18ets_key_usage_typeE1EE12create_localEv,"axG",@progbits,_ZN3tbb10interface626enumerable_thread_specificI17thread_local_varsNS_23cache_aligned_allocatorIS2_EELNS_18ets_key_usage_typeE1EE12create_localEv,comdat
	.align 2
	.p2align 4,,15
	.weak	_ZN3tbb10interface626enumerable_thread_specificI17thread_local_varsNS_23cache_aligned_allocatorIS2_EELNS_18ets_key_usage_typeE1EE12create_localEv
	.type	_ZN3tbb10interface626enumerable_thread_specificI17thread_local_varsNS_23cache_aligned_allocatorIS2_EELNS_18ets_key_usage_typeE1EE12create_localEv, @function
_ZN3tbb10interface626enumerable_thread_specificI17thread_local_varsNS_23cache_aligned_allocatorIS2_EELNS_18ets_key_usage_typeE1EE12create_localEv:
.LFB6649:
	.cfi_startproc
	pushq	%rbx
	.cfi_def_cfa_offset 16
	.cfi_offset 3, -16
	leaq	_ZN3tbb17concurrent_vectorINS_8internal6paddedINS_10interface68internal11ets_elementI17thread_local_varsEELm128EEENS_23cache_aligned_allocatorIS8_EEE16initialize_arrayEPvPKvm(%rip), %rcx
	movq	%rdi, %rbx
	xorl	%r8d, %r8d
	addq	$40, %rdi
	movl	$128, %edx
	subq	$16, %rsp
	.cfi_def_cfa_offset 32
	movl	$1, %esi
	call	_ZN3tbb8internal25concurrent_vector_base_v316internal_grow_byEmmPFvPvPKvmES4_@PLT
	movq	%rax, %rdx
	movl	$63, %ecx
	orq	$1, %rdx
	bsrq	%rdx, %rdx
	xorq	$63, %rdx
	movslq	%edx, %rdx
	subq	%rdx, %rcx
	movq	64(%rbx), %rdx
	movl	$1, %esi
	leaq	(%rdx,%rcx,8), %rdx
	movq	24(%rbx), %rdi
	salq	%cl, %rsi
	leaq	_ZN3tbb10interface68internal13callback_leafI17thread_local_varsNS1_17construct_by_argsIS3_JjEEEE9constructEPv(%rip), %rcx
	movq	(%rdx), %rdx
	andq	$-2, %rsi
	subq	%rsi, %rax
	salq	$7, %rax
	addq	%rdx, %rax
	movq	(%rdi), %rdx
	movq	32(%rdx), %rdx
	cmpq	%rcx, %rdx
	jne	.L47
	testq	%rax, %rax
	je	.L48
	movl	8(%rdi), %edx
	movq	$0, 4(%rax)
	movq	$0, 16(%rax)
	movq	$0, 24(%rax)
	movq	$0, 32(%rax)
	movl	%edx, (%rax)
.L48:
	movb	$1, 40(%rax)
	addq	$16, %rsp
	.cfi_remember_state
	.cfi_def_cfa_offset 16
	popq	%rbx
	.cfi_def_cfa_offset 8
	ret
	.p2align 4,,10
	.p2align 3
.L47:
	.cfi_restore_state
	movq	%rax, 8(%rsp)
	movq	%rax, %rsi
	call	*%rdx
	movq	8(%rsp), %rax
	movb	$1, 40(%rax)
	addq	$16, %rsp
	.cfi_def_cfa_offset 16
	popq	%rbx
	.cfi_def_cfa_offset 8
	ret
	.cfi_endproc
.LFE6649:
	.size	_ZN3tbb10interface626enumerable_thread_specificI17thread_local_varsNS_23cache_aligned_allocatorIS2_EELNS_18ets_key_usage_typeE1EE12create_localEv, .-_ZN3tbb10interface626enumerable_thread_specificI17thread_local_varsNS_23cache_aligned_allocatorIS2_EELNS_18ets_key_usage_typeE1EE12create_localEv
	.section	.text._ZN3tbb10interface626enumerable_thread_specificI17thread_local_varsNS_23cache_aligned_allocatorIS2_EELNS_18ets_key_usage_typeE1EED2Ev,"axG",@progbits,_ZN3tbb10interface626enumerable_thread_specificI17thread_local_varsNS_23cache_aligned_allocatorIS2_EELNS_18ets_key_usage_typeE1EED5Ev,comdat
	.align 2
	.p2align 4,,15
	.weak	_ZN3tbb10interface626enumerable_thread_specificI17thread_local_varsNS_23cache_aligned_allocatorIS2_EELNS_18ets_key_usage_typeE1EED2Ev
	.type	_ZN3tbb10interface626enumerable_thread_specificI17thread_local_varsNS_23cache_aligned_allocatorIS2_EELNS_18ets_key_usage_typeE1EED2Ev, @function
_ZN3tbb10interface626enumerable_thread_specificI17thread_local_varsNS_23cache_aligned_allocatorIS2_EELNS_18ets_key_usage_typeE1EED2Ev:
.LFB6653:
	.cfi_startproc
	.cfi_personality 0x9b,DW.ref.__gxx_personality_v0
	.cfi_lsda 0x1b,.LLSDA6653
	pushq	%r14
	.cfi_def_cfa_offset 16
	.cfi_offset 14, -16
	pushq	%r13
	.cfi_def_cfa_offset 24
	.cfi_offset 13, -24
	leaq	16+_ZTVN3tbb10interface626enumerable_thread_specificI17thread_local_varsNS_23cache_aligned_allocatorIS2_EELNS_18ets_key_usage_typeE1EEE(%rip), %rax
	pushq	%r12
	.cfi_def_cfa_offset 32
	.cfi_offset 12, -32
	pushq	%rbp
	.cfi_def_cfa_offset 40
	.cfi_offset 6, -40
	pushq	%rbx
	.cfi_def_cfa_offset 48
	.cfi_offset 3, -48
	movq	24(%rdi), %rbp
	movq	%rdi, %rbx
	movq	%rax, (%rdi)
	testq	%rbp, %rbp
	je	.L57
	movq	0(%rbp), %rax
	leaq	_ZN3tbb10interface68internal13callback_leafI17thread_local_varsNS1_17construct_by_argsIS3_JjEEEE7destroyEv(%rip), %rcx
	movq	%rbp, %rdi
	movq	8(%rax), %rdx
	cmpq	%rcx, %rdx
	jne	.L55
	call	*16(%rax)
	movq	%rbp, %rdi
.LEHB0:
	call	_ZN3tbb8internal25deallocate_via_handler_v3EPv@PLT
.LEHE0:
	jmp	.L57
	.p2align 4,,10
	.p2align 3
.L73:
	movq	(%rdi), %rax
	movq	%rax, 8(%rbx)
	call	_ZN3tbb8internal8NFS_FreeEPv@PLT
.L57:
	movq	8(%rbx), %rdi
	testq	%rdi, %rdi
	jne	.L73
	movq	$0, 16(%rbx)
	leaq	40(%rbx), %rbp
	movq	64(%rbx), %r13
	movq	48(%rbx), %r12
	leaq	_ZN3tbb17concurrent_vectorINS_8internal6paddedINS_10interface68internal11ets_elementI17thread_local_varsEELm128EEENS_23cache_aligned_allocatorIS8_EEE13destroy_arrayEPvm(%rip), %rsi
	movq	%rbp, %rdi
	call	_ZN3tbb8internal25concurrent_vector_base_v314internal_clearEPFvPvmE@PLT
	cmpq	%rax, %r12
	jnb	.L64
	leaq	-8(%r13), %rdx
	leaq	(%rdx,%rax,8), %rbx
	leaq	(%rdx,%r12,8), %r14
	jmp	.L59
	.p2align 4,,10
	.p2align 3
.L60:
	subq	$8, %rbx
	cmpq	%r14, %rbx
	je	.L58
.L59:
	movq	(%rbx), %rdi
	movq	$0, (%rbx)
	cmpq	$63, %rdi
	jbe	.L60
	subq	$8, %rbx
	call	_ZN3tbb8internal8NFS_FreeEPv@PLT
	cmpq	%r14, %rbx
	jne	.L59
.L58:
	movq	0(%r13), %rdi
	cmpq	$63, %rdi
	jbe	.L61
	testq	%r12, %r12
	je	.L62
	leaq	-8(%r13), %rdx
	leaq	(%rdx,%r12,8), %rax
	.p2align 4,,10
	.p2align 3
.L63:
	movq	$0, (%rax)
	subq	$8, %rax
	cmpq	%rax, %rdx
	jne	.L63
.L62:
	call	_ZN3tbb8internal8NFS_FreeEPv@PLT
.L61:
	popq	%rbx
	.cfi_remember_state
	.cfi_def_cfa_offset 40
	movq	%rbp, %rdi
	popq	%rbp
	.cfi_def_cfa_offset 32
	popq	%r12
	.cfi_def_cfa_offset 24
	popq	%r13
	.cfi_def_cfa_offset 16
	popq	%r14
	.cfi_def_cfa_offset 8
	jmp	_ZN3tbb8internal25concurrent_vector_base_v3D2Ev@PLT
	.p2align 4,,10
	.p2align 3
.L64:
	.cfi_restore_state
	movq	%rax, %r12
	jmp	.L58
	.p2align 4,,10
	.p2align 3
.L55:
	call	*%rdx
	jmp	.L57
	.cfi_endproc
.LFE6653:
	.globl	__gxx_personality_v0
	.section	.gcc_except_table._ZN3tbb10interface626enumerable_thread_specificI17thread_local_varsNS_23cache_aligned_allocatorIS2_EELNS_18ets_key_usage_typeE1EED2Ev,"aG",@progbits,_ZN3tbb10interface626enumerable_thread_specificI17thread_local_varsNS_23cache_aligned_allocatorIS2_EELNS_18ets_key_usage_typeE1EED5Ev,comdat
.LLSDA6653:
	.byte	0xff
	.byte	0xff
	.byte	0x1
	.uleb128 .LLSDACSE6653-.LLSDACSB6653
.LLSDACSB6653:
	.uleb128 .LEHB0-.LFB6653
	.uleb128 .LEHE0-.LEHB0
	.uleb128 0
	.uleb128 0
.LLSDACSE6653:
	.section	.text._ZN3tbb10interface626enumerable_thread_specificI17thread_local_varsNS_23cache_aligned_allocatorIS2_EELNS_18ets_key_usage_typeE1EED2Ev,"axG",@progbits,_ZN3tbb10interface626enumerable_thread_specificI17thread_local_varsNS_23cache_aligned_allocatorIS2_EELNS_18ets_key_usage_typeE1EED5Ev,comdat
	.size	_ZN3tbb10interface626enumerable_thread_specificI17thread_local_varsNS_23cache_aligned_allocatorIS2_EELNS_18ets_key_usage_typeE1EED2Ev, .-_ZN3tbb10interface626enumerable_thread_specificI17thread_local_varsNS_23cache_aligned_allocatorIS2_EELNS_18ets_key_usage_typeE1EED2Ev
	.weak	_ZN3tbb10interface626enumerable_thread_specificI17thread_local_varsNS_23cache_aligned_allocatorIS2_EELNS_18ets_key_usage_typeE1EED1Ev
	.set	_ZN3tbb10interface626enumerable_thread_specificI17thread_local_varsNS_23cache_aligned_allocatorIS2_EELNS_18ets_key_usage_typeE1EED1Ev,_ZN3tbb10interface626enumerable_thread_specificI17thread_local_varsNS_23cache_aligned_allocatorIS2_EELNS_18ets_key_usage_typeE1EED2Ev
	.section	.text._ZN3tbb10interface626enumerable_thread_specificI17thread_local_varsNS_23cache_aligned_allocatorIS2_EELNS_18ets_key_usage_typeE1EED0Ev,"axG",@progbits,_ZN3tbb10interface626enumerable_thread_specificI17thread_local_varsNS_23cache_aligned_allocatorIS2_EELNS_18ets_key_usage_typeE1EED5Ev,comdat
	.align 2
	.p2align 4,,15
	.weak	_ZN3tbb10interface626enumerable_thread_specificI17thread_local_varsNS_23cache_aligned_allocatorIS2_EELNS_18ets_key_usage_typeE1EED0Ev
	.type	_ZN3tbb10interface626enumerable_thread_specificI17thread_local_varsNS_23cache_aligned_allocatorIS2_EELNS_18ets_key_usage_typeE1EED0Ev, @function
_ZN3tbb10interface626enumerable_thread_specificI17thread_local_varsNS_23cache_aligned_allocatorIS2_EELNS_18ets_key_usage_typeE1EED0Ev:
.LFB6655:
	.cfi_startproc
	.cfi_personality 0x9b,DW.ref.__gxx_personality_v0
	.cfi_lsda 0x1b,.LLSDA6655
	pushq	%r15
	.cfi_def_cfa_offset 16
	.cfi_offset 15, -16
	pushq	%r14
	.cfi_def_cfa_offset 24
	.cfi_offset 14, -24
	leaq	16+_ZTVN3tbb10interface626enumerable_thread_specificI17thread_local_varsNS_23cache_aligned_allocatorIS2_EELNS_18ets_key_usage_typeE1EEE(%rip), %rax
	pushq	%r13
	.cfi_def_cfa_offset 32
	.cfi_offset 13, -32
	pushq	%r12
	.cfi_def_cfa_offset 40
	.cfi_offset 12, -40
	pushq	%rbp
	.cfi_def_cfa_offset 48
	.cfi_offset 6, -48
	pushq	%rbx
	.cfi_def_cfa_offset 56
	.cfi_offset 3, -56
	movq	%rdi, %rbp
	subq	$8, %rsp
	.cfi_def_cfa_offset 64
	movq	24(%rdi), %rbx
	movq	%rax, (%rdi)
	testq	%rbx, %rbx
	je	.L78
	movq	(%rbx), %rax
	leaq	_ZN3tbb10interface68internal13callback_leafI17thread_local_varsNS1_17construct_by_argsIS3_JjEEEE7destroyEv(%rip), %rcx
	movq	%rbx, %rdi
	movq	8(%rax), %rdx
	cmpq	%rcx, %rdx
	jne	.L76
	call	*16(%rax)
	movq	%rbx, %rdi
.LEHB1:
	call	_ZN3tbb8internal25deallocate_via_handler_v3EPv@PLT
.LEHE1:
	jmp	.L78
	.p2align 4,,10
	.p2align 3
.L94:
	movq	(%rdi), %rax
	movq	%rax, 8(%rbp)
	call	_ZN3tbb8internal8NFS_FreeEPv@PLT
.L78:
	movq	8(%rbp), %rdi
	testq	%rdi, %rdi
	jne	.L94
	movq	$0, 16(%rbp)
	leaq	40(%rbp), %r12
	movq	64(%rbp), %r14
	movq	48(%rbp), %r13
	leaq	_ZN3tbb17concurrent_vectorINS_8internal6paddedINS_10interface68internal11ets_elementI17thread_local_varsEELm128EEENS_23cache_aligned_allocatorIS8_EEE13destroy_arrayEPvm(%rip), %rsi
	movq	%r12, %rdi
	call	_ZN3tbb8internal25concurrent_vector_base_v314internal_clearEPFvPvmE@PLT
	cmpq	%rax, %r13
	jnb	.L85
	leaq	-8(%r14), %rdx
	leaq	(%rdx,%rax,8), %rbx
	leaq	(%rdx,%r13,8), %r15
	jmp	.L80
	.p2align 4,,10
	.p2align 3
.L81:
	subq	$8, %rbx
	cmpq	%r15, %rbx
	je	.L79
.L80:
	movq	(%rbx), %rdi
	movq	$0, (%rbx)
	cmpq	$63, %rdi
	jbe	.L81
	subq	$8, %rbx
	call	_ZN3tbb8internal8NFS_FreeEPv@PLT
	cmpq	%r15, %rbx
	jne	.L80
.L79:
	movq	(%r14), %rdi
	cmpq	$63, %rdi
	jbe	.L82
	testq	%r13, %r13
	je	.L83
	leaq	-8(%r14), %rdx
	leaq	(%rdx,%r13,8), %rax
	.p2align 4,,10
	.p2align 3
.L84:
	movq	$0, (%rax)
	subq	$8, %rax
	cmpq	%rax, %rdx
	jne	.L84
.L83:
	call	_ZN3tbb8internal8NFS_FreeEPv@PLT
.L82:
	movq	%r12, %rdi
	call	_ZN3tbb8internal25concurrent_vector_base_v3D2Ev@PLT
	addq	$8, %rsp
	.cfi_remember_state
	.cfi_def_cfa_offset 56
	movq	%rbp, %rdi
	movl	$96, %esi
	popq	%rbx
	.cfi_def_cfa_offset 48
	popq	%rbp
	.cfi_def_cfa_offset 40
	popq	%r12
	.cfi_def_cfa_offset 32
	popq	%r13
	.cfi_def_cfa_offset 24
	popq	%r14
	.cfi_def_cfa_offset 16
	popq	%r15
	.cfi_def_cfa_offset 8
	jmp	_ZdlPvm@PLT
	.p2align 4,,10
	.p2align 3
.L85:
	.cfi_restore_state
	movq	%rax, %r13
	jmp	.L79
	.p2align 4,,10
	.p2align 3
.L76:
	call	*%rdx
	jmp	.L78
	.cfi_endproc
.LFE6655:
	.section	.gcc_except_table._ZN3tbb10interface626enumerable_thread_specificI17thread_local_varsNS_23cache_aligned_allocatorIS2_EELNS_18ets_key_usage_typeE1EED0Ev,"aG",@progbits,_ZN3tbb10interface626enumerable_thread_specificI17thread_local_varsNS_23cache_aligned_allocatorIS2_EELNS_18ets_key_usage_typeE1EED5Ev,comdat
.LLSDA6655:
	.byte	0xff
	.byte	0xff
	.byte	0x1
	.uleb128 .LLSDACSE6655-.LLSDACSB6655
.LLSDACSB6655:
	.uleb128 .LEHB1-.LFB6655
	.uleb128 .LEHE1-.LEHB1
	.uleb128 0
	.uleb128 0
.LLSDACSE6655:
	.section	.text._ZN3tbb10interface626enumerable_thread_specificI17thread_local_varsNS_23cache_aligned_allocatorIS2_EELNS_18ets_key_usage_typeE1EED0Ev,"axG",@progbits,_ZN3tbb10interface626enumerable_thread_specificI17thread_local_varsNS_23cache_aligned_allocatorIS2_EELNS_18ets_key_usage_typeE1EED5Ev,comdat
	.size	_ZN3tbb10interface626enumerable_thread_specificI17thread_local_varsNS_23cache_aligned_allocatorIS2_EELNS_18ets_key_usage_typeE1EED0Ev, .-_ZN3tbb10interface626enumerable_thread_specificI17thread_local_varsNS_23cache_aligned_allocatorIS2_EELNS_18ets_key_usage_typeE1EED0Ev
	.section	.text._ZN3tbb10interface68internal8ets_baseILNS_18ets_key_usage_typeE1EE12table_lookupERb,"axG",@progbits,_ZN3tbb10interface68internal8ets_baseILNS_18ets_key_usage_typeE1EE12table_lookupERb,comdat
	.align 2
	.p2align 4,,15
	.weak	_ZN3tbb10interface68internal8ets_baseILNS_18ets_key_usage_typeE1EE12table_lookupERb
	.type	_ZN3tbb10interface68internal8ets_baseILNS_18ets_key_usage_typeE1EE12table_lookupERb, @function
_ZN3tbb10interface68internal8ets_baseILNS_18ets_key_usage_typeE1EE12table_lookupERb:
.LFB5515:
	.cfi_startproc
	pushq	%r15
	.cfi_def_cfa_offset 16
	.cfi_offset 15, -16
	pushq	%r14
	.cfi_def_cfa_offset 24
	.cfi_offset 14, -24
	pushq	%r13
	.cfi_def_cfa_offset 32
	.cfi_offset 13, -32
	pushq	%r12
	.cfi_def_cfa_offset 40
	.cfi_offset 12, -40
	movq	%rdi, %r13
	pushq	%rbp
	.cfi_def_cfa_offset 48
	.cfi_offset 6, -48
	pushq	%rbx
	.cfi_def_cfa_offset 56
	.cfi_offset 3, -56
	movq	%rsi, %r12
	subq	$24, %rsp
	.cfi_def_cfa_offset 80
	call	_ZN3tbb8internal16thread_get_id_v3Ev@PLT
	movabsq	$-7046029254386353131, %rdx
	movq	%rax, %rbp
	movq	8(%r13), %rsi
	movq	%rdx, %rbx
	imulq	%rax, %rbx
	testq	%rsi, %rsi
	je	.L96
	movl	$64, %r8d
	movq	$-1, %r9
.L105:
	movq	8(%rsi), %rdi
	movl	%r8d, %ecx
	movq	%rbx, %rax
	subl	%edi, %ecx
	shrq	%cl, %rax
	addq	$1, %rax
	movq	%rax, %rdx
	salq	$4, %rdx
	addq	%rsi, %rdx
	movq	(%rdx), %rcx
	testq	%rcx, %rcx
	je	.L97
	cmpq	%rcx, %rbp
	je	.L98
	movl	%edi, %ecx
	movq	%r9, %rdx
	salq	%cl, %rdx
	movq	%rdx, %rdi
	notq	%rdi
	jmp	.L100
	.p2align 4,,10
	.p2align 3
.L104:
	cmpq	%rcx, %rbp
	je	.L98
.L100:
	andq	%rdi, %rax
	addq	$1, %rax
	movq	%rax, %rdx
	salq	$4, %rdx
	addq	%rsi, %rdx
	movq	(%rdx), %rcx
	testq	%rcx, %rcx
	jne	.L104
.L97:
	movq	(%rsi), %rsi
	testq	%rsi, %rsi
	jne	.L105
.L96:
	movq	0(%r13), %rax
	leaq	_ZN3tbb10interface626enumerable_thread_specificI17thread_local_varsNS_23cache_aligned_allocatorIS2_EELNS_18ets_key_usage_typeE1EE12create_localEv(%rip), %rdx
	movb	$0, (%r12)
	movq	(%rax), %rax
	cmpq	%rdx, %rax
	jne	.L106
	leaq	40(%r13), %rdi
	leaq	_ZN3tbb17concurrent_vectorINS_8internal6paddedINS_10interface68internal11ets_elementI17thread_local_varsEELm128EEENS_23cache_aligned_allocatorIS8_EEE16initialize_arrayEPvPKvm(%rip), %rcx
	xorl	%r8d, %r8d
	movl	$128, %edx
	movl	$1, %esi
	call	_ZN3tbb8internal25concurrent_vector_base_v316internal_grow_byEmmPFvPvPKvmES4_@PLT
	movq	%rax, %rdx
	movl	$63, %ecx
	orq	$1, %rdx
	bsrq	%rdx, %rdx
	xorq	$63, %rdx
	movslq	%edx, %rdx
	subq	%rdx, %rcx
	movq	64(%r13), %rdx
	movl	$1, %esi
	leaq	(%rdx,%rcx,8), %rdx
	movq	24(%r13), %rdi
	salq	%cl, %rsi
	movq	(%rdx), %rdx
	andq	$-2, %rsi
	subq	%rsi, %rax
	salq	$7, %rax
	leaq	(%rdx,%rax), %r14
	movq	(%rdi), %rax
	leaq	_ZN3tbb10interface68internal13callback_leafI17thread_local_varsNS1_17construct_by_argsIS3_JjEEEE9constructEPv(%rip), %rdx
	movq	%r14, %r12
	movq	32(%rax), %rax
	cmpq	%rdx, %rax
	jne	.L107
	testq	%r14, %r14
	je	.L108
	movl	8(%rdi), %eax
	movq	$0, 4(%r14)
	movq	$0, 16(%r14)
	movq	$0, 24(%r14)
	movq	$0, 32(%r14)
	movl	%eax, (%r14)
.L108:
	movb	$1, 40(%r14)
.L109:
	movl	$1, %edx
	lock xaddq	%rdx, 16(%r13)
	movq	8(%r13), %r14
	addq	$1, %rdx
	testq	%r14, %r14
	je	.L119
	movq	8(%r14), %r15
	movl	$1, %eax
	movq	%rax, %rdi
	movl	%r15d, %ecx
	movl	%r15d, %r9d
	salq	%cl, %rdi
	movq	%rdi, %rcx
	shrq	%rcx
	cmpq	%rdx, %rcx
	jnb	.L103
	leal	-1(%r15), %ecx
	salq	%cl, %rax
.L110:
	cmpq	%rax, %rdx
	jbe	.L111
	movl	$1, %esi
	.p2align 4,,10
	.p2align 3
.L112:
	addq	$1, %r15
	movq	%rsi, %rax
	leal	-1(%r15), %ecx
	movl	%r15d, %r9d
	salq	%cl, %rax
	cmpq	%rdx, %rax
	jb	.L112
.L111:
	movq	0(%r13), %rax
	movl	%r9d, %ecx
	movl	%r9d, 8(%rsp)
	movq	8(%rax), %rdx
	movl	$1, %eax
	salq	%cl, %rax
	leaq	1(%rax), %rdi
	leaq	_ZN3tbb10interface626enumerable_thread_specificI17thread_local_varsNS_23cache_aligned_allocatorIS2_EELNS_18ets_key_usage_typeE1EE12create_arrayEm(%rip), %rax
	salq	$4, %rdi
	cmpq	%rax, %rdx
	jne	.L113
	shrq	$3, %rdi
	xorl	%edx, %edx
	movl	$8, %esi
	call	_ZN3tbb8internal12NFS_AllocateEmmPv@PLT
	movl	8(%rsp), %r9d
	movq	%rax, %r8
.L114:
	movl	%r9d, %ecx
	leaq	16(%r8), %rdi
	movl	$16, %edx
	movq	%r15, 8(%r8)
	salq	%cl, %rdx
	xorl	%esi, %esi
	movq	%r8, 8(%rsp)
	call	memset@PLT
	movq	8(%rsp), %r8
	leaq	8(%r13), %rdx
	.p2align 4,,10
	.p2align 3
.L115:
	movq	%r14, %rax
	movq	%r14, (%r8)
	lock cmpxchgq	%r8, (%rdx)
	cmpq	%rax, %r14
	je	.L103
	cmpq	%r15, 8(%rax)
	movq	%rax, %r14
	jb	.L115
	movq	0(%r13), %rax
	leaq	_ZN3tbb10interface626enumerable_thread_specificI17thread_local_varsNS_23cache_aligned_allocatorIS2_EELNS_18ets_key_usage_typeE1EE10free_arrayEPvm(%rip), %rdx
	movq	16(%rax), %rax
	cmpq	%rdx, %rax
	jne	.L116
	movq	%r8, %rdi
	call	_ZN3tbb8internal8NFS_FreeEPv@PLT
	jmp	.L103
	.p2align 4,,10
	.p2align 3
.L98:
	movq	8(%r13), %rax
	cmpq	%rax, %rsi
	movb	$1, (%r12)
	movq	8(%rdx), %r12
	je	.L95
.L103:
	movq	8(%r13), %rdi
	movq	8(%rdi), %rax
	movl	$64, %ecx
	movq	$-1, %rsi
	xorl	%r8d, %r8d
	subl	%eax, %ecx
	shrq	%cl, %rbx
	movl	%eax, %ecx
	salq	%cl, %rsi
	movq	%rbx, %rdx
	notq	%rsi
	jmp	.L118
	.p2align 4,,10
	.p2align 3
.L117:
	andq	%rsi, %rdx
.L118:
	addq	$1, %rdx
	movq	%rdx, %rcx
	salq	$4, %rcx
	addq	%rdi, %rcx
	cmpq	$0, (%rcx)
	jne	.L117
	movq	%r8, %rax
	lock cmpxchgq	%rbp, (%rcx)
	testq	%rax, %rax
	jne	.L117
	movq	%r12, 8(%rcx)
.L95:
	addq	$24, %rsp
	.cfi_remember_state
	.cfi_def_cfa_offset 56
	movq	%r12, %rax
	popq	%rbx
	.cfi_def_cfa_offset 48
	popq	%rbp
	.cfi_def_cfa_offset 40
	popq	%r12
	.cfi_def_cfa_offset 32
	popq	%r13
	.cfi_def_cfa_offset 24
	popq	%r14
	.cfi_def_cfa_offset 16
	popq	%r15
	.cfi_def_cfa_offset 8
	ret
.L119:
	.cfi_restore_state
	movl	$2, %eax
	movl	$2, %r9d
	movl	$2, %r15d
	jmp	.L110
.L116:
	movq	8(%r8), %rcx
	movl	$1, %edx
	movq	%r8, %rsi
	movq	%r13, %rdi
	salq	%cl, %rdx
	addq	$1, %rdx
	salq	$4, %rdx
	call	*%rax
	jmp	.L103
.L106:
	movq	%r13, %rdi
	call	*%rax
	movq	%rax, %r12
	jmp	.L109
.L107:
	movq	%r14, %rsi
	call	*%rax
	jmp	.L108
.L113:
	movq	%rdi, %rsi
	movq	%r13, %rdi
	call	*%rdx
	movl	8(%rsp), %r9d
	movq	%rax, %r8
	jmp	.L114
	.cfi_endproc
.LFE5515:
	.size	_ZN3tbb10interface68internal8ets_baseILNS_18ets_key_usage_typeE1EE12table_lookupERb, .-_ZN3tbb10interface68internal8ets_baseILNS_18ets_key_usage_typeE1EE12table_lookupERb
	.section	.text._ZN3tbb10interface98internal9start_forINS_13blocked_rangeIN9__gnu_cxx17__normal_iteratorIP14tear_down_taskSt6vectorIS6_SaIS6_EEEEEENS_8internal26parallel_for_each_body_forI7invokerIS6_ESB_EEKNS_16auto_partitionerEE7executeEv,"axG",@progbits,_ZN3tbb10interface98internal9start_forINS_13blocked_rangeIN9__gnu_cxx17__normal_iteratorIP14tear_down_taskSt6vectorIS6_SaIS6_EEEEEENS_8internal26parallel_for_each_body_forI7invokerIS6_ESB_EEKNS_16auto_partitionerEE7executeEv,comdat
	.align 2
	.p2align 4,,15
	.weak	_ZN3tbb10interface98internal9start_forINS_13blocked_rangeIN9__gnu_cxx17__normal_iteratorIP14tear_down_taskSt6vectorIS6_SaIS6_EEEEEENS_8internal26parallel_for_each_body_forI7invokerIS6_ESB_EEKNS_16auto_partitionerEE7executeEv
	.type	_ZN3tbb10interface98internal9start_forINS_13blocked_rangeIN9__gnu_cxx17__normal_iteratorIP14tear_down_taskSt6vectorIS6_SaIS6_EEEEEENS_8internal26parallel_for_each_body_forI7invokerIS6_ESB_EEKNS_16auto_partitionerEE7executeEv, @function
_ZN3tbb10interface98internal9start_forINS_13blocked_rangeIN9__gnu_cxx17__normal_iteratorIP14tear_down_taskSt6vectorIS6_SaIS6_EEEEEENS_8internal26parallel_for_each_body_forI7invokerIS6_ESB_EEKNS_16auto_partitionerEE7executeEv:
.LFB6640:
	.cfi_startproc
	.cfi_personality 0x9b,DW.ref.__gxx_personality_v0
	.cfi_lsda 0x1b,.LLSDA6640
	pushq	%r15
	.cfi_def_cfa_offset 16
	.cfi_offset 15, -16
	pushq	%r14
	.cfi_def_cfa_offset 24
	.cfi_offset 14, -24
	pushq	%r13
	.cfi_def_cfa_offset 32
	.cfi_offset 13, -32
	pushq	%r12
	.cfi_def_cfa_offset 40
	.cfi_offset 12, -40
	pushq	%rbp
	.cfi_def_cfa_offset 48
	.cfi_offset 6, -48
	pushq	%rbx
	.cfi_def_cfa_offset 56
	.cfi_offset 3, -56
	movq	%rdi, %rbx
	subq	$264, %rsp
	.cfi_def_cfa_offset 320
	movq	%fs:40, %rax
	movq	%rax, 248(%rsp)
	xorl	%eax, %eax
	cmpq	$0, 40(%rdi)
	jne	.L136
	cmpb	$0, -11(%rdi)
	movq	$1, 40(%rdi)
	js	.L208
.L137:
	movq	8(%rbx), %rcx
	movq	16(%rbx), %rsi
	movq	%rcx, %rdi
	movq	%rcx, %rax
	movq	%rsi, %rdx
	subq	%rsi, %rdi
	cmpq	24(%rbx), %rdi
	ja	.L170
.L171:
	cmpq	%rdx, %rax
	je	.L166
	subq	%rdx, %rax
	leaq	31(%rsp), %r13
	leaq	local_thread_vars(%rip), %r14
	movq	%rax, %rbx
	xorl	%ebp, %ebp
	.p2align 4,,10
	.p2align 3
.L150:
	movq	%r13, %rsi
	movq	%r14, %rdi
	addq	$1, %rbp
.LEHB2:
	call	_ZN3tbb10interface68internal8ets_baseILNS_18ets_key_usage_typeE1EE12table_lookupERb
	movq	16(%rax), %rdi
	movq	%rax, %r12
	call	free@PLT
	movq	32(%r12), %rdi
	call	free@PLT
	cmpq	%rbp, %rbx
	jne	.L150
.L166:
	xorl	%eax, %eax
	movq	248(%rsp), %rbx
	xorq	%fs:40, %rbx
	jne	.L209
	addq	$264, %rsp
	.cfi_remember_state
	.cfi_def_cfa_offset 56
	popq	%rbx
	.cfi_def_cfa_offset 48
	popq	%rbp
	.cfi_def_cfa_offset 40
	popq	%r12
	.cfi_def_cfa_offset 32
	popq	%r13
	.cfi_def_cfa_offset 24
	popq	%r14
	.cfi_def_cfa_offset 16
	popq	%r15
	.cfi_def_cfa_offset 8
	ret
	.p2align 4,,10
	.p2align 3
.L208:
	.cfi_restore_state
	movq	-32(%rdi), %rax
	cmpl	$1, -24(%rax)
	jle	.L137
	movb	$1, 8(%rax)
	movzbl	52(%rdi), %edx
	leal	1(%rdx), %eax
	testb	%dl, %dl
	movl	$2, %edx
	cmove	%edx, %eax
	movb	%al, 52(%rdi)
	.p2align 4,,10
	.p2align 3
.L136:
	movq	8(%rbx), %rcx
	movq	16(%rbx), %rsi
	movq	%rcx, %rdi
	movq	%rcx, %rax
	movq	%rsi, %rdx
	subq	%rsi, %rdi
	cmpq	%rdi, 24(%rbx)
	jnb	.L171
	movq	40(%rbx), %r8
	cmpq	$1, %r8
	jbe	.L210
.L140:
	leaq	16+_ZTVN3tbb10interface98internal9flag_taskE(%rip), %rbp
	leaq	16+_ZTVN3tbb10interface98internal9start_forINS_13blocked_rangeIN9__gnu_cxx17__normal_iteratorIP14tear_down_taskSt6vectorIS6_SaIS6_EEEEEENS_8internal26parallel_for_each_body_forI7invokerIS6_ESB_EEKNS_16auto_partitionerEEE(%rip), %r12
	jmp	.L145
	.p2align 4,,10
	.p2align 3
.L212:
	movq	40(%rbx), %rcx
	cmpq	$1, %rcx
	jbe	.L211
.L145:
	movl	$16, %esi
	movq	%rbx, %rdi
	call	_ZNK3tbb8internal27allocate_continuation_proxy8allocateEm@PLT
	movb	$1, -11(%rax)
	movq	%rbp, (%rax)
	movl	$56, %esi
	movb	$0, 8(%rax)
	movq	%rax, %rdi
	movq	%rax, -32(%rbx)
	movq	$2, -24(%rax)
	call	_ZNK3tbb8internal20allocate_child_proxy8allocateEm@PLT
	testq	%rax, %rax
	je	.L144
	movb	$1, -11(%rax)
	movq	8(%rbx), %rdx
	movq	%r12, (%rax)
	movq	%rdx, 8(%rax)
	movq	16(%rbx), %rcx
	movq	8(%rbx), %rsi
	subq	%rcx, %rsi
	movq	%rsi, %rdx
	shrq	$63, %rdx
	addq	%rsi, %rdx
	sarq	%rdx
	addq	%rcx, %rdx
	movq	%rdx, 8(%rbx)
	movq	%rdx, 16(%rax)
	movq	24(%rbx), %rdx
	movq	%rdx, 24(%rax)
	movq	32(%rbx), %rdx
	movq	%rdx, 32(%rax)
	movq	40(%rbx), %rdx
	shrq	%rdx
	movq	%rdx, 40(%rbx)
	movq	%rdx, 40(%rax)
	movl	$2, 48(%rax)
	movzbl	52(%rbx), %edx
	movb	%dl, 52(%rax)
.L144:
	movq	-40(%rax), %rdi
	leaq	-8(%rax), %rdx
	movq	%rax, %rsi
	movq	(%rdi), %rcx
	call	*(%rcx)
.LEHE2:
	movq	8(%rbx), %rax
	movq	16(%rbx), %rdx
	movq	%rax, %rcx
	subq	%rdx, %rcx
	cmpq	%rcx, 24(%rbx)
	jb	.L212
	jmp	.L171
	.p2align 4,,10
	.p2align 3
.L211:
	testq	%rcx, %rcx
	movzbl	52(%rbx), %edi
	je	.L141
	testb	%dil, %dil
	je	.L171
	subl	$1, %edi
	movq	$0, 40(%rbx)
	movb	%dil, 52(%rbx)
	jmp	.L145
.L210:
	testq	%r8, %r8
	movzbl	52(%rbx), %edi
	jne	.L170
.L141:
	testb	%dil, %dil
	je	.L171
	movdqu	8(%rbx), %xmm0
	leaq	48(%rsp), %rbp
	movl	$1, %r14d
	movq	24(%rbx), %rax
	movl	$65536, 32(%rsp)
	movaps	%xmm0, 48(%rsp)
	movq	%rax, 64(%rsp)
	.p2align 4,,10
	.p2align 3
.L149:
	cmpb	$7, %r14b
	ja	.L154
	movzbl	32(%rsp), %eax
	movslq	%eax, %r8
	cmpb	%dil, 35(%rsp,%r8)
	jnb	.L154
	leaq	(%rax,%rax,2), %rdx
	leaq	0(%rbp,%rdx,8), %rdx
	movq	(%rdx), %rcx
	subq	8(%rdx), %rcx
	cmpq	16(%rdx), %rcx
	ja	.L155
	jmp	.L154
	.p2align 4,,10
	.p2align 3
.L157:
	cmpb	%dil, %dl
	jnb	.L154
	leaq	(%rcx,%rcx,2), %rdx
	leaq	0(%rbp,%rdx,8), %rdx
	movq	(%rdx), %rcx
	subq	8(%rdx), %rcx
	cmpq	%rcx, 16(%rdx)
	jnb	.L154
.L155:
	addl	$1, %eax
	andl	$7, %eax
	movl	%eax, %ecx
	movb	%al, 32(%rsp)
	cltq
	leaq	(%rax,%rax,2), %rax
	leaq	0(%rbp,%rax,8), %rax
	testq	%rax, %rax
	je	.L156
	movdqu	(%rdx), %xmm0
	movups	%xmm0, (%rax)
	movq	16(%rdx), %rcx
	movq	%rcx, 16(%rax)
	movzbl	32(%rsp), %ecx
.L156:
	movzbl	%cl, %eax
	leaq	(%rax,%rax,2), %rax
	leaq	0(%rbp,%rax,8), %rax
	movq	(%rax), %rcx
	movq	%rcx, (%rdx)
	movq	8(%rax), %rsi
	movq	(%rax), %r9
	subq	%rsi, %r9
	movq	%r9, %rcx
	shrq	$63, %rcx
	addq	%r9, %rcx
	sarq	%rcx
	addq	%rsi, %rcx
	movq	%rcx, (%rax)
	movq	%rcx, 8(%rdx)
	movq	16(%rax), %rax
	movzbl	34(%rsp), %esi
	movzbl	32(%rsp), %ecx
	movq	%rax, 16(%rdx)
	movzbl	35(%rsp,%r8), %eax
	addl	$1, %esi
	cmpb	$7, %sil
	movb	%sil, 34(%rsp)
	leal	1(%rax), %edx
	movb	%dl, 35(%rsp,%r8)
	movzbl	%cl, %r8d
	movq	%r8, %rax
	movb	%dl, 35(%rsp,%r8)
	jbe	.L157
.L154:
	movq	-32(%rbx), %rax
	movzbl	8(%rax), %eax
	testb	%al, %al
	je	.L213
	movzbl	52(%rbx), %eax
	movzbl	34(%rsp), %r14d
	addl	$1, %eax
	cmpb	$1, %r14b
	movb	%al, 52(%rbx)
	ja	.L214
	movzbl	32(%rsp), %edx
	movq	%rdx, %rdi
	movb	%dl, 15(%rsp)
	leaq	(%rdx,%rdx,2), %rdx
	movzbl	%dil, %ecx
	leaq	0(%rbp,%rdx,8), %rdx
	cmpb	35(%rsp,%rcx), %al
	movq	(%rdx), %rsi
	movq	8(%rdx), %r12
	movq	%rsi, (%rsp)
	jbe	.L158
	movq	%rsi, %rax
	subq	%r12, %rax
	cmpq	%rax, 16(%rdx)
	jb	.L161
.L158:
	cmpq	%r12, (%rsp)
	je	.L162
	leaq	31(%rsp), %r13
	.p2align 4,,10
	.p2align 3
.L163:
	leaq	local_thread_vars(%rip), %rdi
	movq	%r13, %rsi
.LEHB3:
	call	_ZN3tbb10interface68internal8ets_baseILNS_18ets_key_usage_typeE1EE12table_lookupERb
	movq	16(%rax), %rdi
	movq	%rax, %r15
	addq	$1, %r12
	call	free@PLT
	movq	32(%r15), %rdi
	call	free@PLT
	cmpq	%r12, (%rsp)
	jne	.L163
.L162:
	movzbl	15(%rsp), %eax
	subl	$1, %r14d
	movb	%r14b, 34(%rsp)
	addl	$7, %eax
	andl	$7, %eax
	movb	%al, 32(%rsp)
.L161:
	testb	%r14b, %r14b
	je	.L166
	movq	-56(%rbx), %rdi
	call	_ZNK3tbb18task_group_context28is_group_execution_cancelledEv@PLT
	testb	%al, %al
	jne	.L166
	movzbl	52(%rbx), %edi
	jmp	.L149
	.p2align 4,,10
	.p2align 3
.L213:
	movzbl	32(%rsp), %eax
	movzbl	34(%rsp), %r14d
	movb	%al, 15(%rsp)
	leaq	(%rax,%rax,2), %rax
	leaq	0(%rbp,%rax,8), %rax
	movq	(%rax), %rsi
	movq	8(%rax), %r12
	movq	%rsi, (%rsp)
	jmp	.L158
	.p2align 4,,10
	.p2align 3
.L214:
	movzbl	33(%rsp), %eax
	movl	$16, %esi
	movq	%rbx, %rdi
	movq	%rax, %r12
	movzbl	35(%rsp,%rax), %r13d
	call	_ZNK3tbb8internal27allocate_continuation_proxy8allocateEm@PLT
	leaq	16+_ZTVN3tbb10interface98internal9flag_taskE(%rip), %rsi
	movb	$1, -11(%rax)
	movq	%rsi, (%rax)
	movl	$56, %esi
	movb	$0, 8(%rax)
	movq	%rax, %rdi
	movq	%rax, -32(%rbx)
	movq	$2, -24(%rax)
	call	_ZNK3tbb8internal20allocate_child_proxy8allocateEm@PLT
	testq	%rax, %rax
	je	.L160
	leaq	(%r12,%r12,2), %rdx
	movb	$1, -11(%rax)
	leaq	16+_ZTVN3tbb10interface98internal9start_forINS_13blocked_rangeIN9__gnu_cxx17__normal_iteratorIP14tear_down_taskSt6vectorIS6_SaIS6_EEEEEENS_8internal26parallel_for_each_body_forI7invokerIS6_ESB_EEKNS_16auto_partitionerEEE(%rip), %rsi
	salq	$3, %rdx
	movq	%rsi, (%rax)
	movdqu	48(%rsp,%rdx), %xmm0
	movq	64(%rsp,%rdx), %rdx
	movups	%xmm0, 8(%rax)
	movq	%rdx, 24(%rax)
	movq	32(%rbx), %rdx
	movq	%rdx, 32(%rax)
	movq	40(%rbx), %rdx
	shrq	%rdx
	movq	%rdx, 40(%rbx)
	movq	%rdx, 40(%rax)
	movl	$2, 48(%rax)
	movzbl	52(%rbx), %edx
	subl	%r13d, %edx
	movb	%dl, 52(%rax)
.L160:
	movq	-40(%rax), %rdi
	leaq	-8(%rax), %rdx
	movq	%rax, %rsi
	movq	(%rdi), %rcx
	call	*(%rcx)
.LEHE3:
	movzbl	34(%rsp), %eax
	leal	-1(%rax), %r14d
	movzbl	33(%rsp), %eax
	movb	%r14b, 34(%rsp)
	addl	$1, %eax
	andl	$7, %eax
	movb	%al, 33(%rsp)
	jmp	.L161
	.p2align 4,,10
	.p2align 3
.L170:
	movzbl	52(%rbx), %eax
	testb	%al, %al
	je	.L215
	subl	$1, %eax
	movq	$0, 40(%rbx)
	movb	%al, 52(%rbx)
	jmp	.L140
.L215:
	movq	%rcx, %rax
	movq	%rsi, %rdx
	jmp	.L171
.L175:
.L169:
	movzbl	34(%rsp), %edx
	testb	%dl, %dl
	je	.L168
	subl	$1, %edx
	movb	%dl, 34(%rsp)
	jmp	.L169
.L209:
	call	__stack_chk_fail@PLT
.L168:
	movq	%rax, %rdi
.LEHB4:
	call	_Unwind_Resume@PLT
.LEHE4:
	.cfi_endproc
.LFE6640:
	.section	.gcc_except_table._ZN3tbb10interface98internal9start_forINS_13blocked_rangeIN9__gnu_cxx17__normal_iteratorIP14tear_down_taskSt6vectorIS6_SaIS6_EEEEEENS_8internal26parallel_for_each_body_forI7invokerIS6_ESB_EEKNS_16auto_partitionerEE7executeEv,"aG",@progbits,_ZN3tbb10interface98internal9start_forINS_13blocked_rangeIN9__gnu_cxx17__normal_iteratorIP14tear_down_taskSt6vectorIS6_SaIS6_EEEEEENS_8internal26parallel_for_each_body_forI7invokerIS6_ESB_EEKNS_16auto_partitionerEE7executeEv,comdat
.LLSDA6640:
	.byte	0xff
	.byte	0xff
	.byte	0x1
	.uleb128 .LLSDACSE6640-.LLSDACSB6640
.LLSDACSB6640:
	.uleb128 .LEHB2-.LFB6640
	.uleb128 .LEHE2-.LEHB2
	.uleb128 0
	.uleb128 0
	.uleb128 .LEHB3-.LFB6640
	.uleb128 .LEHE3-.LEHB3
	.uleb128 .L175-.LFB6640
	.uleb128 0
	.uleb128 .LEHB4-.LFB6640
	.uleb128 .LEHE4-.LEHB4
	.uleb128 0
	.uleb128 0
.LLSDACSE6640:
	.section	.text._ZN3tbb10interface98internal9start_forINS_13blocked_rangeIN9__gnu_cxx17__normal_iteratorIP14tear_down_taskSt6vectorIS6_SaIS6_EEEEEENS_8internal26parallel_for_each_body_forI7invokerIS6_ESB_EEKNS_16auto_partitionerEE7executeEv,"axG",@progbits,_ZN3tbb10interface98internal9start_forINS_13blocked_rangeIN9__gnu_cxx17__normal_iteratorIP14tear_down_taskSt6vectorIS6_SaIS6_EEEEEENS_8internal26parallel_for_each_body_forI7invokerIS6_ESB_EEKNS_16auto_partitionerEE7executeEv,comdat
	.size	_ZN3tbb10interface98internal9start_forINS_13blocked_rangeIN9__gnu_cxx17__normal_iteratorIP14tear_down_taskSt6vectorIS6_SaIS6_EEEEEENS_8internal26parallel_for_each_body_forI7invokerIS6_ESB_EEKNS_16auto_partitionerEE7executeEv, .-_ZN3tbb10interface98internal9start_forINS_13blocked_rangeIN9__gnu_cxx17__normal_iteratorIP14tear_down_taskSt6vectorIS6_SaIS6_EEEEEENS_8internal26parallel_for_each_body_forI7invokerIS6_ESB_EEKNS_16auto_partitionerEE7executeEv
	.section	.rodata._ZN3tbb10interface98internal9start_forINS_13blocked_rangeIN9__gnu_cxx17__normal_iteratorIP11access_taskSt6vectorIS6_SaIS6_EEEEEENS_8internal26parallel_for_each_body_forI7invokerIS6_ESB_EEKNS_16auto_partitionerEE7executeEv.str1.1,"aMS",@progbits,1
.LC4:
	.string	"First Copy:  %.3f MiB/s\n"
.LC5:
	.string	"Second Copy: %.3f MiB/s\n"
	.section	.text._ZN3tbb10interface98internal9start_forINS_13blocked_rangeIN9__gnu_cxx17__normal_iteratorIP11access_taskSt6vectorIS6_SaIS6_EEEEEENS_8internal26parallel_for_each_body_forI7invokerIS6_ESB_EEKNS_16auto_partitionerEE7executeEv,"axG",@progbits,_ZN3tbb10interface98internal9start_forINS_13blocked_rangeIN9__gnu_cxx17__normal_iteratorIP11access_taskSt6vectorIS6_SaIS6_EEEEEENS_8internal26parallel_for_each_body_forI7invokerIS6_ESB_EEKNS_16auto_partitionerEE7executeEv,comdat
	.align 2
	.p2align 4,,15
	.weak	_ZN3tbb10interface98internal9start_forINS_13blocked_rangeIN9__gnu_cxx17__normal_iteratorIP11access_taskSt6vectorIS6_SaIS6_EEEEEENS_8internal26parallel_for_each_body_forI7invokerIS6_ESB_EEKNS_16auto_partitionerEE7executeEv
	.type	_ZN3tbb10interface98internal9start_forINS_13blocked_rangeIN9__gnu_cxx17__normal_iteratorIP11access_taskSt6vectorIS6_SaIS6_EEEEEENS_8internal26parallel_for_each_body_forI7invokerIS6_ESB_EEKNS_16auto_partitionerEE7executeEv, @function
_ZN3tbb10interface98internal9start_forINS_13blocked_rangeIN9__gnu_cxx17__normal_iteratorIP11access_taskSt6vectorIS6_SaIS6_EEEEEENS_8internal26parallel_for_each_body_forI7invokerIS6_ESB_EEKNS_16auto_partitionerEE7executeEv:
.LFB6642:
	.cfi_startproc
	.cfi_personality 0x9b,DW.ref.__gxx_personality_v0
	.cfi_lsda 0x1b,.LLSDA6642
	pushq	%r15
	.cfi_def_cfa_offset 16
	.cfi_offset 15, -16
	pushq	%r14
	.cfi_def_cfa_offset 24
	.cfi_offset 14, -24
	pushq	%r13
	.cfi_def_cfa_offset 32
	.cfi_offset 13, -32
	pushq	%r12
	.cfi_def_cfa_offset 40
	.cfi_offset 12, -40
	movq	%rdi, %r12
	pushq	%rbp
	.cfi_def_cfa_offset 48
	.cfi_offset 6, -48
	pushq	%rbx
	.cfi_def_cfa_offset 56
	.cfi_offset 3, -56
	subq	$312, %rsp
	.cfi_def_cfa_offset 368
	movq	%fs:40, %rax
	movq	%rax, 296(%rsp)
	xorl	%eax, %eax
	cmpq	$0, 40(%rdi)
	jne	.L217
	cmpb	$0, -11(%rdi)
	movq	$1, 40(%rdi)
	js	.L307
.L218:
	movq	8(%r12), %rdx
	movq	16(%r12), %rcx
	movq	%rdx, %rsi
	movq	%rdx, %rbx
	movq	%rcx, %rax
	subq	%rcx, %rsi
	cmpq	24(%r12), %rsi
	ja	.L259
.L260:
	cmpq	%rbx, %rax
	je	.L255
	leaq	64(%rsp), %rbp
	leaq	48(%rsp), %r13
	subq	%rax, %rbx
	xorl	%r12d, %r12d
.L235:
	leaq	local_thread_vars(%rip), %rdi
	movq	%rbp, %rsi
.LEHB5:
	call	_ZN3tbb10interface68internal8ets_baseILNS_18ets_key_usage_typeE1EE12table_lookupERb
	movq	16(%rax), %r15
	movq	24(%rax), %r14
	xorl	%eax, %eax
	.p2align 4,,10
	.p2align 3
.L231:
	movq	$170, (%r15,%rax) # a[t]=0xaa;
	movq	$170, (%r14,%rax) # b[t]=0xaa;
	addq	$8, %rax
	cmpq	$1073741824, %rax
	jne	.L231
	xorl	%esi, %esi
	movq	%r13, %rdi
	call	gettimeofday@PLT
	xorl	%eax, %eax
	.p2align 4,,10
	.p2align 3
.L232: # the actual for loop
	movq	(%r15,%rax), %rcx
	movq	%rcx, (%r14,%rax) # a[t] = b[t]
	addq	$8, %rax # t++
	cmpq	$1073741824, %rax
	jne	.L232
	xorl	%esi, %esi
	movq	%rbp, %rdi
	call	gettimeofday@PLT
	imulq	$-1000000, 48(%rsp), %rdx
	imulq	$1000000, 64(%rsp), %rax
	pxor	%xmm0, %xmm0
	leaq	.LC4(%rip), %rsi
	movsd	.LC3(%rip), %xmm3
	movl	$1, %edi
	addq	%rdx, %rax
	addq	72(%rsp), %rax
	subq	56(%rsp), %rax
	cvtsi2sdq	%rax, %xmm0
	movl	$1, %eax
	divsd	.LC2(%rip), %xmm0
	divsd	%xmm0, %xmm3
	movapd	%xmm3, %xmm0
	call	__printf_chk@PLT
	movl	$8, %esi
	movl	$134217728, %edi
	call	calloc@PLT
	movl	$8, %esi
	movl	$134217728, %edi
	movq	%rax, %r14
	call	calloc@PLT
	movq	%rax, %r15
	xorl	%eax, %eax
	.p2align 4,,10
	.p2align 3
.L233:
	movq	$170, (%r14,%rax)
	movq	$170, (%r15,%rax)
	addq	$8, %rax
	cmpq	$1073741824, %rax
	jne	.L233
	xorl	%esi, %esi
	movq	%r13, %rdi
	call	gettimeofday@PLT
	xorl	%eax, %eax
	.p2align 4,,10
	.p2align 3
.L234:
	movq	(%r14,%rax), %rcx
	movq	%rcx, (%r15,%rax)
	addq	$8, %rax
	cmpq	$1073741824, %rax
	jne	.L234
	xorl	%esi, %esi
	movq	%rbp, %rdi
	addq	$1, %r12
	call	gettimeofday@PLT
	imulq	$-1000000, 48(%rsp), %rcx
	imulq	$1000000, 64(%rsp), %rax
	pxor	%xmm0, %xmm0
	leaq	.LC5(%rip), %rsi
	movsd	.LC3(%rip), %xmm4
	movl	$1, %edi
	addq	%rcx, %rax
	addq	72(%rsp), %rax
	subq	56(%rsp), %rax
	cvtsi2sdq	%rax, %xmm0
	movl	$1, %eax
	divsd	.LC2(%rip), %xmm0
	divsd	%xmm0, %xmm4
	movapd	%xmm4, %xmm0
	call	__printf_chk@PLT
	movq	%r14, %rdi
	call	free@PLT
	movq	%r15, %rdi
	call	free@PLT
	cmpq	%r12, %rbx
	jne	.L235
.L255:
	xorl	%eax, %eax
	movq	296(%rsp), %rdi
	xorq	%fs:40, %rdi
	jne	.L308
	addq	$312, %rsp
	.cfi_remember_state
	.cfi_def_cfa_offset 56
	popq	%rbx
	.cfi_def_cfa_offset 48
	popq	%rbp
	.cfi_def_cfa_offset 40
	popq	%r12
	.cfi_def_cfa_offset 32
	popq	%r13
	.cfi_def_cfa_offset 24
	popq	%r14
	.cfi_def_cfa_offset 16
	popq	%r15
	.cfi_def_cfa_offset 8
	ret
.L307:
	.cfi_restore_state
	movq	-32(%rdi), %rax
	cmpl	$1, -24(%rax)
	jle	.L218
	movb	$1, 8(%rax)
	movzbl	52(%rdi), %edx
	leal	1(%rdx), %eax
	testb	%dl, %dl
	movl	$2, %edx
	cmove	%edx, %eax
	movb	%al, 52(%rdi)
.L217:
	movq	8(%r12), %rdx
	movq	16(%r12), %rcx
	movq	%rdx, %rsi
	movq	%rdx, %rbx
	movq	%rcx, %rax
	subq	%rcx, %rsi
	cmpq	%rsi, 24(%r12)
	jnb	.L260
	movq	40(%r12), %rsi
	cmpq	$1, %rsi
	jbe	.L309
.L221:
	leaq	16+_ZTVN3tbb10interface98internal9flag_taskE(%rip), %rbp
	leaq	16+_ZTVN3tbb10interface98internal9start_forINS_13blocked_rangeIN9__gnu_cxx17__normal_iteratorIP11access_taskSt6vectorIS6_SaIS6_EEEEEENS_8internal26parallel_for_each_body_forI7invokerIS6_ESB_EEKNS_16auto_partitionerEEE(%rip), %r13
	jmp	.L226
	.p2align 4,,10
	.p2align 3
.L311:
	movq	40(%r12), %rdx
	cmpq	$1, %rdx
	jbe	.L310
.L226:
	movl	$16, %esi
	movq	%r12, %rdi
	call	_ZNK3tbb8internal27allocate_continuation_proxy8allocateEm@PLT
	movb	$1, -11(%rax)
	movq	%rbp, (%rax)
	movl	$56, %esi
	movb	$0, 8(%rax)
	movq	%rax, %rdi
	movq	%rax, -32(%r12)
	movq	$2, -24(%rax)
	call	_ZNK3tbb8internal20allocate_child_proxy8allocateEm@PLT
	testq	%rax, %rax
	je	.L225
	movb	$1, -11(%rax)
	movq	8(%r12), %rdx
	movq	%r13, (%rax)
	movq	%rdx, 8(%rax)
	movq	16(%r12), %rdx
	movq	8(%r12), %rsi
	subq	%rdx, %rsi
	movq	%rsi, %rcx
	shrq	$63, %rcx
	addq	%rsi, %rcx
	sarq	%rcx
	addq	%rcx, %rdx
	movq	%rdx, 8(%r12)
	movq	%rdx, 16(%rax)
	movq	24(%r12), %rdx
	movq	%rdx, 24(%rax)
	movq	32(%r12), %rdx
	movq	%rdx, 32(%rax)
	movq	40(%r12), %rdx
	shrq	%rdx
	movq	%rdx, 40(%r12)
	movq	%rdx, 40(%rax)
	movl	$2, 48(%rax)
	movzbl	52(%r12), %edx
	movb	%dl, 52(%rax)
.L225:
	movq	-40(%rax), %rdi
	leaq	-8(%rax), %rdx
	movq	%rax, %rsi
	movq	(%rdi), %rcx
	call	*(%rcx)
.LEHE5:
	movq	8(%r12), %rbx
	movq	16(%r12), %rax
	movq	%rbx, %rdx
	subq	%rax, %rdx
	cmpq	%rdx, 24(%r12)
	jb	.L311
	jmp	.L260
.L310:
	testq	%rdx, %rdx
	movzbl	52(%r12), %r8d
	je	.L222
	testb	%r8b, %r8b
	je	.L260
	subl	$1, %r8d
	movq	$0, 40(%r12)
	movb	%r8b, 52(%r12)
	jmp	.L226
.L309:
	testq	%rsi, %rsi
	movzbl	52(%r12), %r8d
	jne	.L259
.L222:
	testb	%r8b, %r8b
	je	.L260
	movq	24(%r12), %rax
	movl	$65536, 80(%rsp)
	movdqu	8(%r12), %xmm0
	movb	$1, 30(%rsp)
	movq	%rax, 112(%rsp)
	leaq	80(%rsp), %rax
	movaps	%xmm0, 96(%rsp)
	movq	%rax, 16(%rsp)
.L230:
	cmpb	$7, 30(%rsp)
	ja	.L239
	movzbl	80(%rsp), %eax
	movslq	%eax, %rdi
	cmpb	%r8b, 83(%rsp,%rdi)
	jnb	.L239
	movq	16(%rsp), %rsi
	leaq	(%rax,%rax,2), %rdx
	leaq	16(%rsi), %r9
	jmp	.L306
	.p2align 4,,10
	.p2align 3
.L312:
	addl	$1, %eax
	andl	$7, %eax
	movl	%eax, %ecx
	movb	%al, 80(%rsp)
	cltq
	leaq	(%rax,%rax,2), %rax
	leaq	(%r9,%rax,8), %rax
	testq	%rax, %rax
	je	.L241
	movdqu	(%rdx), %xmm0
	movups	%xmm0, (%rax)
	movq	16(%rdx), %rcx
	movq	%rcx, 16(%rax)
	movzbl	80(%rsp), %ecx
.L241:
	movzbl	%cl, %eax
	leaq	(%rax,%rax,2), %rax
	leaq	(%r9,%rax,8), %rax
	movq	(%rax), %rcx
	movq	%rcx, (%rdx)
	movq	8(%rax), %rsi
	movq	(%rax), %r10
	subq	%rsi, %r10
	movq	%r10, %rcx
	shrq	$63, %rcx
	addq	%r10, %rcx
	sarq	%rcx
	addq	%rsi, %rcx
	movq	%rcx, (%rax)
	movq	%rcx, 8(%rdx)
	movq	16(%rax), %rax
	movzbl	82(%rsp), %esi
	movzbl	80(%rsp), %ecx
	movq	%rax, 16(%rdx)
	movzbl	83(%rsp,%rdi), %eax
	addl	$1, %esi
	cmpb	$7, %sil
	movb	%sil, 82(%rsp)
	leal	1(%rax), %edx
	movb	%dl, 83(%rsp,%rdi)
	movzbl	%cl, %edi
	movq	%rdi, %rax
	movb	%dl, 83(%rsp,%rdi)
	ja	.L239
	cmpb	%r8b, %dl
	jnb	.L239
	leaq	(%rcx,%rcx,2), %rdx
.L306:
	leaq	(%r9,%rdx,8), %rdx
	movq	(%rdx), %rcx
	subq	8(%rdx), %rcx
	cmpq	%rcx, 16(%rdx)
	jb	.L312
.L239:
	movq	-32(%r12), %rax
	movzbl	8(%rax), %eax
	testb	%al, %al
	je	.L313
	movzbl	52(%r12), %eax
	movzbl	82(%rsp), %edi
	addl	$1, %eax
	cmpb	$1, %dil
	movb	%dil, 30(%rsp)
	movb	%al, 52(%r12)
	ja	.L314
	movzbl	80(%rsp), %edx
	movq	16(%rsp), %rsi
	movq	%rdx, %rdi
	movb	%dl, 31(%rsp)
	leaq	(%rdx,%rdx,2), %rdx
	movzbl	%dil, %ecx
	leaq	16(%rsi,%rdx,8), %rdx
	cmpb	83(%rsp,%rcx), %al
	movq	(%rdx), %rsi
	movq	8(%rdx), %r13
	movq	%rsi, (%rsp)
	jbe	.L243
	movq	%rsi, %rax
	subq	%r13, %rax
	cmpq	%rax, 16(%rdx)
	jb	.L246
.L243:
	cmpq	%r13, (%rsp)
	je	.L247
	leaq	47(%rsp), %rax
	leaq	48(%rsp), %r14
	leaq	64(%rsp), %r15
	movq	%rax, 8(%rsp)
	.p2align 4,,10
	.p2align 3
.L252:
	movq	8(%rsp), %rsi
	leaq	local_thread_vars(%rip), %rdi
.LEHB6:
	call	_ZN3tbb10interface68internal8ets_baseILNS_18ets_key_usage_typeE1EE12table_lookupERb
	movq	16(%rax), %rbx
	movq	24(%rax), %rbp
	xorl	%eax, %eax
	.p2align 4,,10
	.p2align 3
.L248:
	movq	$170, (%rbx,%rax)
	movq	$170, 0(%rbp,%rax)
	addq	$8, %rax
	cmpq	$1073741824, %rax
	jne	.L248
	xorl	%esi, %esi
	movq	%r14, %rdi
	call	gettimeofday@PLT
	xorl	%eax, %eax
	.p2align 4,,10
	.p2align 3
.L249:
	movq	(%rbx,%rax), %rdx
	movq	%rdx, 0(%rbp,%rax)
	addq	$8, %rax
	cmpq	$1073741824, %rax
	jne	.L249
	xorl	%esi, %esi
	movq	%r15, %rdi
	call	gettimeofday@PLT
	imulq	$1000000, 64(%rsp), %rax
	imulq	$-1000000, 48(%rsp), %rdx
	pxor	%xmm0, %xmm0
	leaq	.LC4(%rip), %rsi
	movsd	.LC3(%rip), %xmm1
	movl	$1, %edi
	addq	%rdx, %rax
	addq	72(%rsp), %rax
	subq	56(%rsp), %rax
	cvtsi2sdq	%rax, %xmm0
	movl	$1, %eax
	divsd	.LC2(%rip), %xmm0
	divsd	%xmm0, %xmm1
	movapd	%xmm1, %xmm0
	call	__printf_chk@PLT
	movl	$8, %esi
	movl	$134217728, %edi
	call	calloc@PLT
	movl	$8, %esi
	movl	$134217728, %edi
	movq	%rax, %rbp
	call	calloc@PLT
	movq	%rax, %rbx
	xorl	%eax, %eax
	.p2align 4,,10
	.p2align 3
.L250:
	movq	$170, 0(%rbp,%rax)
	movq	$170, (%rbx,%rax)
	addq	$8, %rax
	cmpq	$1073741824, %rax
	jne	.L250
	xorl	%esi, %esi
	movq	%r14, %rdi
	call	gettimeofday@PLT
	xorl	%eax, %eax
	.p2align 4,,10
	.p2align 3
.L251:
	movq	0(%rbp,%rax), %rdx
	movq	%rdx, (%rbx,%rax)
	addq	$8, %rax
	cmpq	$1073741824, %rax
	jne	.L251
	xorl	%esi, %esi
	movq	%r15, %rdi
	call	gettimeofday@PLT
	imulq	$1000000, 64(%rsp), %rax
	imulq	$-1000000, 48(%rsp), %rdx
	pxor	%xmm0, %xmm0
	leaq	.LC5(%rip), %rsi
	movsd	.LC3(%rip), %xmm2
	movl	$1, %edi
	addq	%rdx, %rax
	addq	72(%rsp), %rax
	subq	56(%rsp), %rax
	cvtsi2sdq	%rax, %xmm0
	movl	$1, %eax
	divsd	.LC2(%rip), %xmm0
	divsd	%xmm0, %xmm2
	movapd	%xmm2, %xmm0
	call	__printf_chk@PLT
	movq	%rbp, %rdi
	addq	$1, %r13
	call	free@PLT
	movq	%rbx, %rdi
	call	free@PLT
	cmpq	%r13, (%rsp)
	jne	.L252
.L247:
	subb	$1, 30(%rsp)
	movzbl	30(%rsp), %eax
	movb	%al, 82(%rsp)
	movzbl	31(%rsp), %eax
	addl	$7, %eax
	andl	$7, %eax
	movb	%al, 80(%rsp)
.L246:
	cmpb	$0, 30(%rsp)
	je	.L255
	movq	-56(%r12), %rdi
	call	_ZNK3tbb18task_group_context28is_group_execution_cancelledEv@PLT
	testb	%al, %al
	jne	.L255
	movzbl	52(%r12), %r8d
	jmp	.L230
.L313:
	movzbl	82(%rsp), %edi
	movzbl	80(%rsp), %eax
	movb	%dil, 30(%rsp)
	movq	16(%rsp), %rdi
	movb	%al, 31(%rsp)
	leaq	(%rax,%rax,2), %rax
	leaq	16(%rdi,%rax,8), %rax
	movq	(%rax), %rdi
	movq	8(%rax), %r13
	movq	%rdi, (%rsp)
	jmp	.L243
.L314:
	movzbl	81(%rsp), %edx
	movq	16(%rsp), %rdi
	movl	$16, %esi
	leaq	(%rdx,%rdx,2), %rax
	movzbl	83(%rsp,%rdx), %ebp
	leaq	16(%rdi,%rax,8), %rbx
	movq	%r12, %rdi
	call	_ZNK3tbb8internal27allocate_continuation_proxy8allocateEm@PLT
	leaq	16+_ZTVN3tbb10interface98internal9flag_taskE(%rip), %rdi
	movb	$1, -11(%rax)
	movq	%rdi, (%rax)
	movl	$56, %esi
	movb	$0, 8(%rax)
	movq	%rax, %rdi
	movq	%rax, -32(%r12)
	movq	$2, -24(%rax)
	call	_ZNK3tbb8internal20allocate_child_proxy8allocateEm@PLT
	testq	%rax, %rax
	je	.L245
	movq	16(%rbx), %rdx
	movb	$1, -11(%rax)
	leaq	16+_ZTVN3tbb10interface98internal9start_forINS_13blocked_rangeIN9__gnu_cxx17__normal_iteratorIP11access_taskSt6vectorIS6_SaIS6_EEEEEENS_8internal26parallel_for_each_body_forI7invokerIS6_ESB_EEKNS_16auto_partitionerEEE(%rip), %rdi
	movdqu	(%rbx), %xmm0
	movq	%rdi, (%rax)
	movq	%rdx, 24(%rax)
	movq	32(%r12), %rdx
	movups	%xmm0, 8(%rax)
	movq	%rdx, 32(%rax)
	movq	40(%r12), %rdx
	shrq	%rdx
	movq	%rdx, 40(%r12)
	movq	%rdx, 40(%rax)
	movl	$2, 48(%rax)
	movzbl	52(%r12), %edx
	subl	%ebp, %edx
	movb	%dl, 52(%rax)
.L245:
	movq	-40(%rax), %rdi
	leaq	-8(%rax), %rdx
	movq	%rax, %rsi
	movq	(%rdi), %rcx
	call	*(%rcx)
.LEHE6:
	movzbl	82(%rsp), %eax
	subl	$1, %eax
	movb	%al, 30(%rsp)
	movb	%al, 82(%rsp)
	movzbl	81(%rsp), %eax
	addl	$1, %eax
	andl	$7, %eax
	movb	%al, 81(%rsp)
	jmp	.L246
.L259:
	movzbl	52(%r12), %eax
	testb	%al, %al
	je	.L315
	subl	$1, %eax
	movq	$0, 40(%r12)
	movb	%al, 52(%r12)
	jmp	.L221
.L315:
	movq	%rcx, %rax
	movq	%rdx, %rbx
	jmp	.L260
.L308:
	call	__stack_chk_fail@PLT
.L264:
.L258:
	movzbl	82(%rsp), %edx
	testb	%dl, %dl
	je	.L257
	subl	$1, %edx
	movb	%dl, 82(%rsp)
	jmp	.L258
.L257:
	movq	%rax, %rdi
.LEHB7:
	call	_Unwind_Resume@PLT
.LEHE7:
	.cfi_endproc
.LFE6642:
	.section	.gcc_except_table._ZN3tbb10interface98internal9start_forINS_13blocked_rangeIN9__gnu_cxx17__normal_iteratorIP11access_taskSt6vectorIS6_SaIS6_EEEEEENS_8internal26parallel_for_each_body_forI7invokerIS6_ESB_EEKNS_16auto_partitionerEE7executeEv,"aG",@progbits,_ZN3tbb10interface98internal9start_forINS_13blocked_rangeIN9__gnu_cxx17__normal_iteratorIP11access_taskSt6vectorIS6_SaIS6_EEEEEENS_8internal26parallel_for_each_body_forI7invokerIS6_ESB_EEKNS_16auto_partitionerEE7executeEv,comdat
.LLSDA6642:
	.byte	0xff
	.byte	0xff
	.byte	0x1
	.uleb128 .LLSDACSE6642-.LLSDACSB6642
.LLSDACSB6642:
	.uleb128 .LEHB5-.LFB6642
	.uleb128 .LEHE5-.LEHB5
	.uleb128 0
	.uleb128 0
	.uleb128 .LEHB6-.LFB6642
	.uleb128 .LEHE6-.LEHB6
	.uleb128 .L264-.LFB6642
	.uleb128 0
	.uleb128 .LEHB7-.LFB6642
	.uleb128 .LEHE7-.LEHB7
	.uleb128 0
	.uleb128 0
.LLSDACSE6642:
	.section	.text._ZN3tbb10interface98internal9start_forINS_13blocked_rangeIN9__gnu_cxx17__normal_iteratorIP11access_taskSt6vectorIS6_SaIS6_EEEEEENS_8internal26parallel_for_each_body_forI7invokerIS6_ESB_EEKNS_16auto_partitionerEE7executeEv,"axG",@progbits,_ZN3tbb10interface98internal9start_forINS_13blocked_rangeIN9__gnu_cxx17__normal_iteratorIP11access_taskSt6vectorIS6_SaIS6_EEEEEENS_8internal26parallel_for_each_body_forI7invokerIS6_ESB_EEKNS_16auto_partitionerEE7executeEv,comdat
	.size	_ZN3tbb10interface98internal9start_forINS_13blocked_rangeIN9__gnu_cxx17__normal_iteratorIP11access_taskSt6vectorIS6_SaIS6_EEEEEENS_8internal26parallel_for_each_body_forI7invokerIS6_ESB_EEKNS_16auto_partitionerEE7executeEv, .-_ZN3tbb10interface98internal9start_forINS_13blocked_rangeIN9__gnu_cxx17__normal_iteratorIP11access_taskSt6vectorIS6_SaIS6_EEEEEENS_8internal26parallel_for_each_body_forI7invokerIS6_ESB_EEKNS_16auto_partitionerEE7executeEv
	.section	.text._ZNSt23mersenne_twister_engineImLm32ELm624ELm397ELm31ELm2567483615ELm11ELm4294967295ELm7ELm2636928640ELm15ELm4022730752ELm18ELm1812433253EEclEv,"axG",@progbits,_ZNSt23mersenne_twister_engineImLm32ELm624ELm397ELm31ELm2567483615ELm11ELm4294967295ELm7ELm2636928640ELm15ELm4022730752ELm18ELm1812433253EEclEv,comdat
	.align 2
	.p2align 4,,15
	.weak	_ZNSt23mersenne_twister_engineImLm32ELm624ELm397ELm31ELm2567483615ELm11ELm4294967295ELm7ELm2636928640ELm15ELm4022730752ELm18ELm1812433253EEclEv
	.type	_ZNSt23mersenne_twister_engineImLm32ELm624ELm397ELm31ELm2567483615ELm11ELm4294967295ELm7ELm2636928640ELm15ELm4022730752ELm18ELm1812433253EEclEv, @function
_ZNSt23mersenne_twister_engineImLm32ELm624ELm397ELm31ELm2567483615ELm11ELm4294967295ELm7ELm2636928640ELm15ELm4022730752ELm18ELm1812433253EEclEv:
.LFB6202:
	.cfi_startproc
	movq	4992(%rdi), %rax
	cmpq	$623, %rax
	leaq	1(%rax), %rdx
	ja	.L335
.L318:
	movq	(%rdi,%rax,8), %rax
	movq	%rdx, 4992(%rdi)
	movq	%rax, %rcx
	shrq	$11, %rcx
	movl	%ecx, %edx
	xorq	%rax, %rdx
	movq	%rdx, %rax
	salq	$7, %rax
	andl	$2636928640, %eax
	xorq	%rax, %rdx
	movq	%rdx, %rax
	salq	$15, %rax
	andl	$4022730752, %eax
	xorq	%rdx, %rax
	movq	%rax, %rdx
	shrq	$18, %rdx
	xorq	%rdx, %rax
	ret
	.p2align 4,,10
	.p2align 3
.L335:
	leaq	1816(%rdi), %r8
	movq	%rdi, %rax
	movq	%rdi, %rdx
	movl	$2567483615, %r9d
	.p2align 4,,10
	.p2align 3
.L320:
	movq	(%rdx), %rcx
	movq	8(%rdx), %rsi
	andq	$-2147483648, %rcx
	andl	$2147483647, %esi
	orq	%rsi, %rcx
	movq	%rcx, %rsi
	shrq	%rsi
	xorq	3176(%rdx), %rsi
	andl	$1, %ecx
	je	.L319
	xorq	%r9, %rsi
.L319:
	movq	%rsi, (%rdx)
	addq	$8, %rdx
	cmpq	%rdx, %r8
	jne	.L320
	leaq	3168(%rdi), %rsi
	movl	$2567483615, %r8d
	.p2align 4,,10
	.p2align 3
.L322:
	movq	1816(%rax), %rdx
	movq	1824(%rax), %rcx
	andq	$-2147483648, %rdx
	andl	$2147483647, %ecx
	orq	%rcx, %rdx
	movq	%rdx, %rcx
	shrq	%rcx
	xorq	(%rax), %rcx
	andl	$1, %edx
	je	.L321
	xorq	%r8, %rcx
.L321:
	movq	%rcx, 1816(%rax)
	addq	$8, %rax
	cmpq	%rax, %rsi
	jne	.L322
	movq	4984(%rdi), %rax
	movq	(%rdi), %rdx
	andq	$-2147483648, %rax
	andl	$2147483647, %edx
	orq	%rdx, %rax
	movq	%rax, %rdx
	shrq	%rdx
	xorq	3168(%rdi), %rdx
	testb	$1, %al
	je	.L323
	movl	$2567483615, %eax
	xorq	%rax, %rdx
.L323:
	movq	%rdx, 4984(%rdi)
	xorl	%eax, %eax
	movl	$1, %edx
	jmp	.L318
	.cfi_endproc
.LFE6202:
	.size	_ZNSt23mersenne_twister_engineImLm32ELm624ELm397ELm31ELm2567483615ELm11ELm4294967295ELm7ELm2636928640ELm15ELm4022730752ELm18ELm1812433253EEclEv, .-_ZNSt23mersenne_twister_engineImLm32ELm624ELm397ELm31ELm2567483615ELm11ELm4294967295ELm7ELm2636928640ELm15ELm4022730752ELm18ELm1812433253EEclEv
	.section	.text._ZNSt24uniform_int_distributionIjEclISt23mersenne_twister_engineImLm32ELm624ELm397ELm31ELm2567483615ELm11ELm4294967295ELm7ELm2636928640ELm15ELm4022730752ELm18ELm1812433253EEEEjRT_RKNS0_10param_typeE,"axG",@progbits,_ZNSt24uniform_int_distributionIjEclISt23mersenne_twister_engineImLm32ELm624ELm397ELm31ELm2567483615ELm11ELm4294967295ELm7ELm2636928640ELm15ELm4022730752ELm18ELm1812433253EEEEjRT_RKNS0_10param_typeE,comdat
	.align 2
	.p2align 4,,15
	.weak	_ZNSt24uniform_int_distributionIjEclISt23mersenne_twister_engineImLm32ELm624ELm397ELm31ELm2567483615ELm11ELm4294967295ELm7ELm2636928640ELm15ELm4022730752ELm18ELm1812433253EEEEjRT_RKNS0_10param_typeE
	.type	_ZNSt24uniform_int_distributionIjEclISt23mersenne_twister_engineImLm32ELm624ELm397ELm31ELm2567483615ELm11ELm4294967295ELm7ELm2636928640ELm15ELm4022730752ELm18ELm1812433253EEEEjRT_RKNS0_10param_typeE, @function
_ZNSt24uniform_int_distributionIjEclISt23mersenne_twister_engineImLm32ELm624ELm397ELm31ELm2567483615ELm11ELm4294967295ELm7ELm2636928640ELm15ELm4022730752ELm18ELm1812433253EEEEjRT_RKNS0_10param_typeE:
.LFB5854:
	.cfi_startproc
	pushq	%r15
	.cfi_def_cfa_offset 16
	.cfi_offset 15, -16
	pushq	%r14
	.cfi_def_cfa_offset 24
	.cfi_offset 14, -24
	pushq	%r13
	.cfi_def_cfa_offset 32
	.cfi_offset 13, -32
	pushq	%r12
	.cfi_def_cfa_offset 40
	.cfi_offset 12, -40
	pushq	%rbp
	.cfi_def_cfa_offset 48
	.cfi_offset 6, -48
	pushq	%rbx
	.cfi_def_cfa_offset 56
	.cfi_offset 3, -56
	movq	%rdx, %rbp
	movq	%rsi, %rbx
	subq	$40, %rsp
	.cfi_def_cfa_offset 96
	movl	4(%rdx), %r15d
	movq	%fs:40, %rax
	movq	%rax, 24(%rsp)
	xorl	%eax, %eax
	movl	(%rdx), %eax
	subq	%rax, %r15
	movl	$4294967294, %eax
	cmpq	%rax, %r15
	ja	.L337
	leaq	1(%r15), %r12
	addq	$1, %rax
	xorl	%edx, %edx
	divq	%r12
	imulq	%rax, %r12
	movq	%rax, %r13
	.p2align 4,,10
	.p2align 3
.L338:
	movq	%rbx, %rdi
	call	_ZNSt23mersenne_twister_engineImLm32ELm624ELm397ELm31ELm2567483615ELm11ELm4294967295ELm7ELm2636928640ELm15ELm4022730752ELm18ELm1812433253EEclEv
	cmpq	%rax, %r12
	jbe	.L338
	xorl	%edx, %edx
	divq	%r13
.L339:
	addl	0(%rbp), %eax
	movq	24(%rsp), %rcx
	xorq	%fs:40, %rcx
	jne	.L352
	addq	$40, %rsp
	.cfi_remember_state
	.cfi_def_cfa_offset 56
	popq	%rbx
	.cfi_def_cfa_offset 48
	popq	%rbp
	.cfi_def_cfa_offset 40
	popq	%r12
	.cfi_def_cfa_offset 32
	popq	%r13
	.cfi_def_cfa_offset 24
	popq	%r14
	.cfi_def_cfa_offset 16
	popq	%r15
	.cfi_def_cfa_offset 8
	ret
	.p2align 4,,10
	.p2align 3
.L337:
	.cfi_restore_state
	movl	$4294967295, %eax
	cmpq	%rax, %r15
	jne	.L353
	movq	%rsi, %rdi
	call	_ZNSt23mersenne_twister_engineImLm32ELm624ELm397ELm31ELm2567483615ELm11ELm4294967295ELm7ELm2636928640ELm15ELm4022730752ELm18ELm1812433253EEclEv
	jmp	.L339
	.p2align 4,,10
	.p2align 3
.L353:
	leaq	16(%rsp), %rax
	movq	%rdi, %r13
	movabsq	$-4294967296, %r12
	movq	%rax, 8(%rsp)
.L344:
	movq	8(%rsp), %rdx
	movq	%rbx, %rsi
	movq	%r13, %rdi
	movq	%r12, 16(%rsp)
	call	_ZNSt24uniform_int_distributionIjEclISt23mersenne_twister_engineImLm32ELm624ELm397ELm31ELm2567483615ELm11ELm4294967295ELm7ELm2636928640ELm15ELm4022730752ELm18ELm1812433253EEEEjRT_RKNS0_10param_typeE
	movq	%rbx, %rdi
	movl	%eax, %r14d
	call	_ZNSt23mersenne_twister_engineImLm32ELm624ELm397ELm31ELm2567483615ELm11ELm4294967295ELm7ELm2636928640ELm15ELm4022730752ELm18ELm1812433253EEclEv
	movq	%r14, %rdx
	salq	$32, %rdx
	addq	%rdx, %rax
	setc	%dl
	cmpq	%rax, %r15
	movzbl	%dl, %edx
	jb	.L344
	testq	%rdx, %rdx
	jne	.L344
	jmp	.L339
.L352:
	call	__stack_chk_fail@PLT
	.cfi_endproc
.LFE5854:
	.size	_ZNSt24uniform_int_distributionIjEclISt23mersenne_twister_engineImLm32ELm624ELm397ELm31ELm2567483615ELm11ELm4294967295ELm7ELm2636928640ELm15ELm4022730752ELm18ELm1812433253EEEEjRT_RKNS0_10param_typeE, .-_ZNSt24uniform_int_distributionIjEclISt23mersenne_twister_engineImLm32ELm624ELm397ELm31ELm2567483615ELm11ELm4294967295ELm7ELm2636928640ELm15ELm4022730752ELm18ELm1812433253EEEEjRT_RKNS0_10param_typeE
	.section	.text._ZNSt6vectorI9init_taskSaIS0_EE17_M_realloc_insertIJS0_EEEvN9__gnu_cxx17__normal_iteratorIPS0_S2_EEDpOT_,"axG",@progbits,_ZNSt6vectorI9init_taskSaIS0_EE17_M_realloc_insertIJS0_EEEvN9__gnu_cxx17__normal_iteratorIPS0_S2_EEDpOT_,comdat
	.align 2
	.p2align 4,,15
	.weak	_ZNSt6vectorI9init_taskSaIS0_EE17_M_realloc_insertIJS0_EEEvN9__gnu_cxx17__normal_iteratorIPS0_S2_EEDpOT_
	.type	_ZNSt6vectorI9init_taskSaIS0_EE17_M_realloc_insertIJS0_EEEvN9__gnu_cxx17__normal_iteratorIPS0_S2_EEDpOT_, @function
_ZNSt6vectorI9init_taskSaIS0_EE17_M_realloc_insertIJS0_EEEvN9__gnu_cxx17__normal_iteratorIPS0_S2_EEDpOT_:
.LFB6238:
	.cfi_startproc
	pushq	%r15
	.cfi_def_cfa_offset 16
	.cfi_offset 15, -16
	pushq	%r14
	.cfi_def_cfa_offset 24
	.cfi_offset 14, -24
	pushq	%r13
	.cfi_def_cfa_offset 32
	.cfi_offset 13, -32
	pushq	%r12
	.cfi_def_cfa_offset 40
	.cfi_offset 12, -40
	pushq	%rbp
	.cfi_def_cfa_offset 48
	.cfi_offset 6, -48
	pushq	%rbx
	.cfi_def_cfa_offset 56
	.cfi_offset 3, -56
	movq	%rdi, %rbp
	movq	%rsi, %rbx
	subq	$24, %rsp
	.cfi_def_cfa_offset 80
	movq	8(%rbp), %rsi
	movq	(%rdi), %rdi
	movq	%rbx, %r13
	movq	%rsi, %rax
	subq	%rdi, %r13
	subq	%rdi, %rax
	sarq	$4, %rax
	testq	%rax, %rax
	je	.L366
	leaq	(%rax,%rax), %rcx
	movq	$-16, %r14
	cmpq	%rcx, %rax
	jbe	.L385
.L356:
	movq	%r14, %rdi
	movq	%rdx, 8(%rsp)
	call	_Znwm@PLT
	movq	0(%rbp), %rdi
	movq	8(%rbp), %rsi
	leaq	16(%rax), %r15
	movq	8(%rsp), %rdx
	movq	%rax, %r12
	addq	%rax, %r14
.L357:
	addq	%r12, %r13
	je	.L358
	movdqu	(%rdx), %xmm0
	movups	%xmm0, 0(%r13)
.L358:
	cmpq	%rdi, %rbx
	je	.L359
	movq	%r12, %rcx
	movq	%rdi, %rdx
	.p2align 4,,10
	.p2align 3
.L361:
	testq	%rcx, %rcx
	je	.L360
	movdqu	(%rdx), %xmm0
	movups	%xmm0, (%rcx)
.L360:
	addq	$16, %rdx
	addq	$16, %rcx
	cmpq	%rdx, %rbx
	jne	.L361
	leaq	16(%rdi), %rax
	movq	%rbx, %rcx
	subq	%rax, %rcx
	movq	%rcx, %rax
	andq	$-16, %rax
	leaq	32(%r12,%rax), %r15
.L359:
	cmpq	%rsi, %rbx
	je	.L362
	movq	%rbx, %rdx
	movq	%r15, %rcx
	.p2align 4,,10
	.p2align 3
.L364:
	testq	%rcx, %rcx
	je	.L363
	movdqu	(%rdx), %xmm0
	movups	%xmm0, (%rcx)
.L363:
	addq	$16, %rdx
	addq	$16, %rcx
	cmpq	%rsi, %rdx
	jne	.L364
	addq	$16, %rbx
	subq	%rbx, %rdx
	andq	$-16, %rdx
	leaq	16(%r15,%rdx), %r15
.L362:
	testq	%rdi, %rdi
	je	.L365
	call	_ZdlPv@PLT
.L365:
	movq	%r12, 0(%rbp)
	movq	%r15, 8(%rbp)
	movq	%r14, 16(%rbp)
	addq	$24, %rsp
	.cfi_remember_state
	.cfi_def_cfa_offset 56
	popq	%rbx
	.cfi_def_cfa_offset 48
	popq	%rbp
	.cfi_def_cfa_offset 40
	popq	%r12
	.cfi_def_cfa_offset 32
	popq	%r13
	.cfi_def_cfa_offset 24
	popq	%r14
	.cfi_def_cfa_offset 16
	popq	%r15
	.cfi_def_cfa_offset 8
	ret
	.p2align 4,,10
	.p2align 3
.L366:
	.cfi_restore_state
	movl	$1, %ecx
.L355:
	salq	$4, %rcx
	movq	%rcx, %r14
	jmp	.L356
	.p2align 4,,10
	.p2align 3
.L385:
	movabsq	$1152921504606846975, %rax
	cmpq	%rax, %rcx
	ja	.L356
	testq	%rcx, %rcx
	jne	.L355
	movl	$16, %r15d
	xorl	%r14d, %r14d
	xorl	%r12d, %r12d
	jmp	.L357
	.cfi_endproc
.LFE6238:
	.size	_ZNSt6vectorI9init_taskSaIS0_EE17_M_realloc_insertIJS0_EEEvN9__gnu_cxx17__normal_iteratorIPS0_S2_EEDpOT_, .-_ZNSt6vectorI9init_taskSaIS0_EE17_M_realloc_insertIJS0_EEEvN9__gnu_cxx17__normal_iteratorIPS0_S2_EEDpOT_
	.section	.text._ZSt18generate_canonicalIdLm53ESt23mersenne_twister_engineImLm32ELm624ELm397ELm31ELm2567483615ELm11ELm4294967295ELm7ELm2636928640ELm15ELm4022730752ELm18ELm1812433253EEET_RT1_,"axG",@progbits,_ZSt18generate_canonicalIdLm53ESt23mersenne_twister_engineImLm32ELm624ELm397ELm31ELm2567483615ELm11ELm4294967295ELm7ELm2636928640ELm15ELm4022730752ELm18ELm1812433253EEET_RT1_,comdat
	.p2align 4,,15
	.weak	_ZSt18generate_canonicalIdLm53ESt23mersenne_twister_engineImLm32ELm624ELm397ELm31ELm2567483615ELm11ELm4294967295ELm7ELm2636928640ELm15ELm4022730752ELm18ELm1812433253EEET_RT1_
	.type	_ZSt18generate_canonicalIdLm53ESt23mersenne_twister_engineImLm32ELm624ELm397ELm31ELm2567483615ELm11ELm4294967295ELm7ELm2636928640ELm15ELm4022730752ELm18ELm1812433253EEET_RT1_, @function
_ZSt18generate_canonicalIdLm53ESt23mersenne_twister_engineImLm32ELm624ELm397ELm31ELm2567483615ELm11ELm4294967295ELm7ELm2636928640ELm15ELm4022730752ELm18ELm1812433253EEET_RT1_:
.LFB6362:
	.cfi_startproc
	pushq	%rbx
	.cfi_def_cfa_offset 16
	.cfi_offset 3, -16
	movq	%rdi, %rbx
	subq	$16, %rsp
	.cfi_def_cfa_offset 32
	call	_ZNSt23mersenne_twister_engineImLm32ELm624ELm397ELm31ELm2567483615ELm11ELm4294967295ELm7ELm2636928640ELm15ELm4022730752ELm18ELm1812433253EEclEv
	testq	%rax, %rax
	js	.L387
	pxor	%xmm0, %xmm0
	cvtsi2sdq	%rax, %xmm0
.L388:
	addsd	.LC6(%rip), %xmm0
	movq	%rbx, %rdi
	movsd	%xmm0, 8(%rsp)
	call	_ZNSt23mersenne_twister_engineImLm32ELm624ELm397ELm31ELm2567483615ELm11ELm4294967295ELm7ELm2636928640ELm15ELm4022730752ELm18ELm1812433253EEclEv
	testq	%rax, %rax
	js	.L389
	pxor	%xmm0, %xmm0
	cvtsi2sdq	%rax, %xmm0
.L390:
	mulsd	.LC7(%rip), %xmm0
	movsd	.LC9(%rip), %xmm2
	addsd	8(%rsp), %xmm0
	mulsd	.LC8(%rip), %xmm0
	ucomisd	%xmm2, %xmm0
	jnb	.L396
	addq	$16, %rsp
	.cfi_remember_state
	.cfi_def_cfa_offset 16
	popq	%rbx
	.cfi_def_cfa_offset 8
	ret
	.p2align 4,,10
	.p2align 3
.L387:
	.cfi_restore_state
	movq	%rax, %rdx
	pxor	%xmm0, %xmm0
	shrq	%rdx
	andl	$1, %eax
	orq	%rax, %rdx
	cvtsi2sdq	%rdx, %xmm0
	addsd	%xmm0, %xmm0
	jmp	.L388
	.p2align 4,,10
	.p2align 3
.L389:
	movq	%rax, %rdx
	pxor	%xmm0, %xmm0
	shrq	%rdx
	andl	$1, %eax
	orq	%rax, %rdx
	cvtsi2sdq	%rdx, %xmm0
	addsd	%xmm0, %xmm0
	jmp	.L390
	.p2align 4,,10
	.p2align 3
.L396:
	addq	$16, %rsp
	.cfi_def_cfa_offset 16
	pxor	%xmm1, %xmm1
	popq	%rbx
	.cfi_def_cfa_offset 8
	movapd	%xmm2, %xmm0
	jmp	nextafter@PLT
	.cfi_endproc
.LFE6362:
	.size	_ZSt18generate_canonicalIdLm53ESt23mersenne_twister_engineImLm32ELm624ELm397ELm31ELm2567483615ELm11ELm4294967295ELm7ELm2636928640ELm15ELm4022730752ELm18ELm1812433253EEET_RT1_, .-_ZSt18generate_canonicalIdLm53ESt23mersenne_twister_engineImLm32ELm624ELm397ELm31ELm2567483615ELm11ELm4294967295ELm7ELm2636928640ELm15ELm4022730752ELm18ELm1812433253EEET_RT1_
	.section	.rodata._ZN3tbb10interface98internal9start_forINS_13blocked_rangeIN9__gnu_cxx17__normal_iteratorIP9init_taskSt6vectorIS6_SaIS6_EEEEEENS_8internal26parallel_for_each_body_forI7invokerIS6_ESB_EEKNS_16auto_partitionerEE7executeEv.str1.8,"aMS",@progbits,1
	.align 8
.LC10:
	.string	"Failure in allocating huge buffer, aborting"
	.align 8
.LC11:
	.string	"Failure in allocating dst huge buffer, aborting"
	.align 8
.LC12:
	.string	"Failure in allocating offsets buffer, aborting"
	.section	.text._ZN3tbb10interface98internal9start_forINS_13blocked_rangeIN9__gnu_cxx17__normal_iteratorIP9init_taskSt6vectorIS6_SaIS6_EEEEEENS_8internal26parallel_for_each_body_forI7invokerIS6_ESB_EEKNS_16auto_partitionerEE7executeEv,"axG",@progbits,_ZN3tbb10interface98internal9start_forINS_13blocked_rangeIN9__gnu_cxx17__normal_iteratorIP9init_taskSt6vectorIS6_SaIS6_EEEEEENS_8internal26parallel_for_each_body_forI7invokerIS6_ESB_EEKNS_16auto_partitionerEE7executeEv,comdat
	.align 2
	.p2align 4,,15
	.weak	_ZN3tbb10interface98internal9start_forINS_13blocked_rangeIN9__gnu_cxx17__normal_iteratorIP9init_taskSt6vectorIS6_SaIS6_EEEEEENS_8internal26parallel_for_each_body_forI7invokerIS6_ESB_EEKNS_16auto_partitionerEE7executeEv
	.type	_ZN3tbb10interface98internal9start_forINS_13blocked_rangeIN9__gnu_cxx17__normal_iteratorIP9init_taskSt6vectorIS6_SaIS6_EEEEEENS_8internal26parallel_for_each_body_forI7invokerIS6_ESB_EEKNS_16auto_partitionerEE7executeEv, @function
_ZN3tbb10interface98internal9start_forINS_13blocked_rangeIN9__gnu_cxx17__normal_iteratorIP9init_taskSt6vectorIS6_SaIS6_EEEEEENS_8internal26parallel_for_each_body_forI7invokerIS6_ESB_EEKNS_16auto_partitionerEE7executeEv:
.LFB6644:
	.cfi_startproc
	.cfi_personality 0x9b,DW.ref.__gxx_personality_v0
	.cfi_lsda 0x1b,.LLSDA6644
	pushq	%r15
	.cfi_def_cfa_offset 16
	.cfi_offset 15, -16
	pushq	%r14
	.cfi_def_cfa_offset 24
	.cfi_offset 14, -24
	pushq	%r13
	.cfi_def_cfa_offset 32
	.cfi_offset 13, -32
	pushq	%r12
	.cfi_def_cfa_offset 40
	.cfi_offset 12, -40
	pushq	%rbp
	.cfi_def_cfa_offset 48
	.cfi_offset 6, -48
	pushq	%rbx
	.cfi_def_cfa_offset 56
	.cfi_offset 3, -56
	movq	%rdi, %rbp
	subq	$504, %rsp
	.cfi_def_cfa_offset 560
	movq	%fs:40, %rax
	movq	%rax, 488(%rsp)
	xorl	%eax, %eax
	cmpq	$0, 40(%rdi)
	jne	.L398
	cmpb	$0, -11(%rdi)
	movq	$1, 40(%rdi)
	js	.L558
.L399:
	movq	8(%rbp), %rax
	movq	16(%rbp), %rcx
	movq	%rax, %rsi
	movq	%rax, 56(%rsp)
	movq	%rcx, %rdx
	subq	%rcx, %rsi
	sarq	$4, %rsi
	cmpq	24(%rbp), %rsi
	ja	.L481
.L482:
	cmpq	%rdx, 56(%rsp)
	je	.L477
	leaq	136(%rsp), %rax
	movq	%rdx, %r15
	movq	%rax, 80(%rsp)
	leaq	272(%rsp), %rax
	movq	%rax, 64(%rsp)
.L436:
	movq	80(%rsp), %rsi
	leaq	local_thread_vars(%rip), %rdi
.LEHB8:
	call	_ZN3tbb10interface68internal8ets_baseILNS_18ets_key_usage_typeE1EE12table_lookupERb
	movl	(%r15), %edx
	movq	64(%rsp), %rdi
	movq	%rax, %rbx
	movl	$16, %ecx
	movl	%edx, (%rax)
	xorl	%eax, %eax
	rep stosq
	movl	%edx, %eax
	cmpq	$1023, %rax
	ja	.L412
	movq	64(%rsp), %rdi
	shrq	$6, %rax
	movl	$1, %esi
	movl	%edx, %ecx
	salq	%cl, %rsi
	orq	%rsi, (%rdi,%rax,8)
.L412:
	movq	64(%rsp), %rdx
	xorl	%edi, %edi
	movl	$128, %esi
	call	sched_setaffinity@PLT
	testl	%eax, %eax
	jne	.L559
	movl	4(%r15), %r12d
	movl	$4096, %edi
	movl	%r12d, 4(%rbx)
	movl	8(%r15), %ebp
	movq	%r12, %rsi
	movl	%ebp, 8(%rbx)
	call	aligned_alloc@PLT
	testq	%rax, %rax
	movq	%rax, %r13
	movq	%rax, 16(%rbx)
	je	.L560
	movq	%r12, %rsi
	movl	$4096, %edi
	call	aligned_alloc@PLT
	testq	%rax, %rax
	movq	%rax, 24(%rbx)
	je	.L561
	movq	%r12, %rdx
	movl	$204, %esi
	movq	%r13, %rdi
	call	memset@PLT
	movl	%ebp, %esi
	movl	$4096, %edi
	salq	$2, %rsi
	call	aligned_alloc@PLT
	testq	%rax, %rax
	movq	%rax, 32(%rbx)
	je	.L562
	movl	$5000, %edi
	call	_Znwm@PLT
	movq	%rax, %r12
	movl	(%r15), %eax
	movl	$1, %esi
	movq	%rax, (%r12)
	movq	%rax, %rdx
	jmp	.L418
	.p2align 4,,10
	.p2align 3
.L563:
	movq	-8(%r12,%rsi,8), %rdx
.L418:
	movq	%rdx, %rax
	shrq	$30, %rax
	xorq	%rdx, %rax
	imulq	$1812433253, %rax, %rax
	addl	%esi, %eax
	movq	%rax, (%r12,%rsi,8)
	addq	$1, %rsi
	cmpq	$624, %rsi
	jne	.L563
	movl	4(%r15), %r13d
	movl	8(%r15), %eax
	movq	$624, 4992(%r12)
	movq	32(%rbx), %rbp
	movl	%eax, 24(%rsp)
	movl	%r13d, %eax
	movl	%r13d, %r14d
	shrl	$16, %eax
	shrl	$6, %r14d
	movl	%eax, 8(%rsp)
	movl	%r13d, %eax
	shrl	$10, %eax
	movl	%eax, 28(%rsp)
	movl	12(%r15), %eax
	cmpl	$1, %eax
	je	.L420
	jb	.L421
	cmpl	$2, %eax
	je	.L422
	cmpl	$3, %eax
	jne	.L419
	movl	24(%rsp), %eax
	testl	%eax, %eax
	je	.L419
	movsd	.LC9(%rip), %xmm7
	subl	$1, %eax
	movl	$-858993459, %edx
	addq	$1, %rax
	movsd	.LC13(%rip), %xmm6
	movq	%rax, 96(%rsp)
	movsd	%xmm7, (%rsp)
	movl	%r13d, %eax
	pxor	%xmm7, %xmm7
	movsd	%xmm6, 104(%rsp)
	mull	%edx
	movsd	.LC15(%rip), %xmm6
	movq	%r15, 112(%rsp)
	xorl	%r14d, %r14d
	movsd	%xmm7, 16(%rsp)
	movl	8(%rsp), %r15d
	movsd	.LC14(%rip), %xmm7
	movl	%edx, %eax
	shrl	$3, %edx
	shrl	$9, %eax
	movsd	%xmm6, 32(%rsp)
	movl	%edx, 88(%rsp)
	movsd	%xmm7, 40(%rsp)
	movl	%eax, 72(%rsp)
.L435:
	movl	%r14d, %ebx
	.p2align 4,,10
	.p2align 3
.L524:
	movq	%r12, %rdi
	call	_ZSt18generate_canonicalIdLm53ESt23mersenne_twister_engineImLm32ELm624ELm397ELm31ELm2567483615ELm11ELm4294967295ELm7ELm2636928640ELm15ELm4022730752ELm18ELm1812433253EEET_RT1_
	addsd	%xmm0, %xmm0
	movq	%r12, %rdi
	movapd	%xmm0, %xmm1
	subsd	(%rsp), %xmm1
	movsd	%xmm1, 8(%rsp)
	call	_ZSt18generate_canonicalIdLm53ESt23mersenne_twister_engineImLm32ELm624ELm397ELm31ELm2567483615ELm11ELm4294967295ELm7ELm2636928640ELm15ELm4022730752ELm18ELm1812433253EEET_RT1_
	addsd	%xmm0, %xmm0
	movsd	(%rsp), %xmm5
	movsd	8(%rsp), %xmm1
	mulsd	%xmm1, %xmm1
	movapd	%xmm0, %xmm3
	subsd	%xmm5, %xmm3
	movapd	%xmm3, %xmm2
	mulsd	%xmm3, %xmm2
	addsd	%xmm2, %xmm1
	ucomisd	%xmm5, %xmm1
	ja	.L524
	ucomisd	16(%rsp), %xmm1
	jp	.L488
	je	.L524
.L488:
	movapd	%xmm1, %xmm0
	movsd	%xmm3, 48(%rsp)
	movsd	%xmm1, 8(%rsp)
	call	log@PLT
	mulsd	104(%rsp), %xmm0
	movsd	8(%rsp), %xmm1
	movsd	16(%rsp), %xmm6
	movsd	48(%rsp), %xmm3
	divsd	%xmm1, %xmm0
	ucomisd	%xmm0, %xmm6
	sqrtsd	%xmm0, %xmm1
	ja	.L564
.L434:
	mulsd	%xmm1, %xmm3
	movsd	40(%rsp), %xmm0
	mulsd	%xmm3, %xmm0
	addsd	32(%rsp), %xmm0
	call	round@PLT
	movl	24(%rsp), %eax
	xorl	%edx, %edx
	divl	%r15d
	movl	%ebx, %eax
	movl	%edx, %ecx
	xorl	%edx, %edx
	divl	72(%rsp)
	sall	$6, %ecx
	xorl	%edx, %edx
	imull	88(%rsp), %eax
	addl	%eax, %ecx
	cvttsd2siq	%xmm0, %rax
	andl	$1023, %eax
	imull	28(%rsp), %eax
	addl	%ecx, %eax
	divl	%r13d
	movl	%edx, 0(%rbp,%r14,4)
	addq	$1, %r14
	cmpq	%r14, 96(%rsp)
	jne	.L435
	movq	112(%rsp), %r15
.L419:
	addq	$16, %r15
	cmpq	%r15, 56(%rsp)
	jne	.L436
.L477:
	xorl	%eax, %eax
	movq	488(%rsp), %rbx
	xorq	%fs:40, %rbx
	jne	.L565
	addq	$504, %rsp
	.cfi_remember_state
	.cfi_def_cfa_offset 56
	popq	%rbx
	.cfi_def_cfa_offset 48
	popq	%rbp
	.cfi_def_cfa_offset 40
	popq	%r12
	.cfi_def_cfa_offset 32
	popq	%r13
	.cfi_def_cfa_offset 24
	popq	%r14
	.cfi_def_cfa_offset 16
	popq	%r15
	.cfi_def_cfa_offset 8
	ret
.L422:
	.cfi_restore_state
	movl	24(%rsp), %eax
	testl	%eax, %eax
	je	.L419
	movsd	.LC14(%rip), %xmm7
	subl	$1, %eax
	leaq	4(%rbp,%rax,4), %rbx
	movsd	%xmm7, 40(%rsp)
	movsd	.LC15(%rip), %xmm7
	movsd	%xmm7, 32(%rsp)
	.p2align 4,,10
	.p2align 3
.L523:
	movq	%r12, %rdi
	call	_ZSt18generate_canonicalIdLm53ESt23mersenne_twister_engineImLm32ELm624ELm397ELm31ELm2567483615ELm11ELm4294967295ELm7ELm2636928640ELm15ELm4022730752ELm18ELm1812433253EEET_RT1_
	addsd	%xmm0, %xmm0
	movq	%r12, %rdi
	movapd	%xmm0, %xmm1
	subsd	.LC9(%rip), %xmm1
	movsd	%xmm1, (%rsp)
	call	_ZSt18generate_canonicalIdLm53ESt23mersenne_twister_engineImLm32ELm624ELm397ELm31ELm2567483615ELm11ELm4294967295ELm7ELm2636928640ELm15ELm4022730752ELm18ELm1812433253EEET_RT1_
	addsd	%xmm0, %xmm0
	movsd	(%rsp), %xmm1
	mulsd	%xmm1, %xmm1
	movapd	%xmm0, %xmm3
	subsd	.LC9(%rip), %xmm3
	movapd	%xmm3, %xmm2
	mulsd	%xmm3, %xmm2
	addsd	%xmm2, %xmm1
	ucomisd	.LC9(%rip), %xmm1
	ja	.L523
	pxor	%xmm6, %xmm6
	ucomisd	%xmm6, %xmm1
	jp	.L487
	je	.L523
.L487:
	movapd	%xmm1, %xmm0
	movsd	%xmm3, 16(%rsp)
	movsd	%xmm1, (%rsp)
	call	log@PLT
	mulsd	.LC13(%rip), %xmm0
	movsd	(%rsp), %xmm1
	pxor	%xmm7, %xmm7
	movsd	16(%rsp), %xmm3
	divsd	%xmm1, %xmm0
	ucomisd	%xmm0, %xmm7
	sqrtsd	%xmm0, %xmm1
	ja	.L566
.L430:
	mulsd	%xmm1, %xmm3
	addq	$4, %rbp
	movsd	40(%rsp), %xmm0
	mulsd	%xmm3, %xmm0
	addsd	32(%rsp), %xmm0
	call	round@PLT
	cvttsd2siq	%xmm0, %rcx
	movl	24(%rsp), %eax
	xorl	%edx, %edx
	divl	8(%rsp)
	sall	$6, %edx
	andl	$1023, %ecx
	imull	28(%rsp), %ecx
	addl	%edx, %ecx
	movl	%ecx, -4(%rbp)
	cmpq	%rbp, %rbx
	jne	.L523
	jmp	.L419
.L421:
	movl	24(%rsp), %eax
	testl	%eax, %eax
	je	.L419
	leal	-1(%rax), %esi
	xorl	%ecx, %ecx
	addq	$1, %rsi
.L426:
	movl	%ecx, %eax
	xorl	%edx, %edx
	divl	%r14d
	sall	$6, %edx
	movl	%edx, 0(%rbp,%rcx,4)
	addq	$1, %rcx
	cmpq	%rsi, %rcx
	jne	.L426
	jmp	.L419
.L420:
	movl	24(%rsp), %eax
	testl	%eax, %eax
	je	.L419
	subl	$1, %eax
	movq	80(%rsp), %r13
	leaq	4(%rbp,%rax,4), %rbx
.L427:
	movabsq	$-4294967296, %rax
	movq	%r13, %rdx
	movq	%r12, %rsi
	movq	%r13, %rdi
	movq	%rax, 136(%rsp)
	addq	$4, %rbp
	call	_ZNSt24uniform_int_distributionIjEclISt23mersenne_twister_engineImLm32ELm624ELm397ELm31ELm2567483615ELm11ELm4294967295ELm7ELm2636928640ELm15ELm4022730752ELm18ELm1812433253EEEEjRT_RKNS0_10param_typeE
	xorl	%edx, %edx
	divl	%r14d
	sall	$6, %edx
	movl	%edx, -4(%rbp)
	cmpq	%rbp, %rbx
	jne	.L427
	jmp	.L419
.L558:
	movq	-32(%rdi), %rax
	cmpl	$1, -24(%rax)
	jle	.L399
	movb	$1, 8(%rax)
	movzbl	52(%rdi), %edx
	leal	1(%rdx), %eax
	testb	%dl, %dl
	movl	$2, %edx
	cmove	%edx, %eax
	movb	%al, 52(%rdi)
.L398:
	movq	8(%rbp), %rax
	movq	16(%rbp), %rcx
	movq	%rax, %rsi
	movq	%rax, 56(%rsp)
	movq	%rcx, %rdx
	subq	%rcx, %rsi
	sarq	$4, %rsi
	cmpq	%rsi, 24(%rbp)
	jnb	.L482
	movq	40(%rbp), %rsi
	cmpq	$1, %rsi
	jbe	.L567
.L402:
	leaq	16+_ZTVN3tbb10interface98internal9flag_taskE(%rip), %rbx
	leaq	16+_ZTVN3tbb10interface98internal9start_forINS_13blocked_rangeIN9__gnu_cxx17__normal_iteratorIP9init_taskSt6vectorIS6_SaIS6_EEEEEENS_8internal26parallel_for_each_body_forI7invokerIS6_ESB_EEKNS_16auto_partitionerEEE(%rip), %r12
	jmp	.L407
	.p2align 4,,10
	.p2align 3
.L569:
	movq	40(%rbp), %rax
	cmpq	$1, %rax
	jbe	.L568
.L407:
	movl	$16, %esi
	movq	%rbp, %rdi
	call	_ZNK3tbb8internal27allocate_continuation_proxy8allocateEm@PLT
	movb	$1, -11(%rax)
	movq	%rbx, (%rax)
	movl	$56, %esi
	movb	$0, 8(%rax)
	movq	%rax, %rdi
	movq	%rax, -32(%rbp)
	movq	$2, -24(%rax)
	call	_ZNK3tbb8internal20allocate_child_proxy8allocateEm@PLT
	testq	%rax, %rax
	je	.L406
	movb	$1, -11(%rax)
	movq	8(%rbp), %rdx
	movq	%r12, (%rax)
	movq	%rdx, 8(%rax)
	movq	16(%rbp), %rsi
	movq	8(%rbp), %rdx
	subq	%rsi, %rdx
	movq	%rdx, %rcx
	sarq	$4, %rcx
	movq	%rcx, %rdx
	shrq	$63, %rdx
	addq	%rcx, %rdx
	sarq	%rdx
	salq	$4, %rdx
	addq	%rsi, %rdx
	movq	%rdx, 8(%rbp)
	movq	%rdx, 16(%rax)
	movq	24(%rbp), %rdx
	movq	%rdx, 24(%rax)
	movq	32(%rbp), %rdx
	movq	%rdx, 32(%rax)
	movq	40(%rbp), %rdx
	shrq	%rdx
	movq	%rdx, 40(%rbp)
	movq	%rdx, 40(%rax)
	movl	$2, 48(%rax)
	movzbl	52(%rbp), %edx
	movb	%dl, 52(%rax)
.L406:
	movq	-40(%rax), %rdi
	leaq	-8(%rax), %rdx
	movq	%rax, %rsi
	movq	(%rdi), %rcx
	call	*(%rcx)
.LEHE8:
	movq	8(%rbp), %rcx
	movq	16(%rbp), %rdx
	movq	%rcx, %rax
	subq	%rdx, %rax
	sarq	$4, %rax
	cmpq	%rax, 24(%rbp)
	jb	.L569
.L546:
	movq	%rcx, 56(%rsp)
	jmp	.L482
.L568:
	testq	%rax, %rax
	movzbl	52(%rbp), %r9d
	je	.L545
	testb	%r9b, %r9b
	je	.L546
	subl	$1, %r9d
	movq	$0, 40(%rbp)
	movb	%r9b, 52(%rbp)
	jmp	.L407
.L481:
	movzbl	52(%rbp), %edx
	testb	%dl, %dl
	je	.L570
	subl	$1, %edx
	movq	$0, 40(%rbp)
	movb	%dl, 52(%rbp)
	jmp	.L402
.L567:
	testq	%rsi, %rsi
	movzbl	52(%rbp), %r9d
	jne	.L481
.L403:
	testb	%r9b, %r9b
	je	.L482
	movq	24(%rbp), %rax
	movl	$65536, 272(%rsp)
	movl	$1, %edx
	movdqu	8(%rbp), %xmm0
	movq	%rax, 304(%rsp)
	leaq	272(%rsp), %rax
	movaps	%xmm0, 288(%rsp)
	movq	%rax, 64(%rsp)
.L411:
	cmpb	$7, %dl
	ja	.L440
	movzbl	272(%rsp), %eax
	movslq	%eax, %r8
	cmpb	%r9b, 275(%rsp,%r8)
	jnb	.L440
	movq	64(%rsp), %rbx
	leaq	(%rax,%rax,2), %rdx
	leaq	16(%rbx), %r10
	jmp	.L552
	.p2align 4,,10
	.p2align 3
.L571:
	addl	$1, %eax
	andl	$7, %eax
	movl	%eax, %edx
	movb	%al, 272(%rsp)
	cltq
	leaq	(%rax,%rax,2), %rax
	leaq	(%r10,%rax,8), %rax
	testq	%rax, %rax
	je	.L442
	movdqu	(%rsi), %xmm0
	movups	%xmm0, (%rax)
	movq	16(%rsi), %rdx
	movq	%rdx, 16(%rax)
	movzbl	272(%rsp), %edx
.L442:
	movzbl	%dl, %eax
	leaq	(%rax,%rax,2), %rax
	leaq	(%r10,%rax,8), %rcx
	movq	(%rcx), %rax
	movq	%rax, (%rsi)
	movq	8(%rcx), %rdi
	movq	(%rcx), %rax
	subq	%rdi, %rax
	sarq	$4, %rax
	movq	%rax, %rdx
	shrq	$63, %rax
	addq	%rdx, %rax
	sarq	%rax
	salq	$4, %rax
	addq	%rdi, %rax
	movq	%rax, (%rcx)
	movq	%rax, 8(%rsi)
	movq	16(%rcx), %rax
	movq	%rax, 16(%rsi)
	movzbl	275(%rsp,%r8), %eax
	leal	1(%rax), %edx
	movb	%dl, 275(%rsp,%r8)
	movzbl	272(%rsp), %ecx
	movzbl	%cl, %r8d
	movb	%dl, 275(%rsp,%r8)
	movzbl	274(%rsp), %ebx
	movq	%r8, %rax
	leal	1(%rbx), %esi
	cmpb	$7, %sil
	movb	%sil, 274(%rsp)
	ja	.L440
	cmpb	%r9b, %dl
	jnb	.L440
	leaq	(%rcx,%rcx,2), %rdx
.L552:
	leaq	(%r10,%rdx,8), %rsi
	movq	(%rsi), %rdx
	subq	8(%rsi), %rdx
	sarq	$4, %rdx
	cmpq	%rdx, 16(%rsi)
	jb	.L571
.L440:
	movq	-32(%rbp), %rax
	movzbl	8(%rax), %eax
	testb	%al, %al
	je	.L572
	movzbl	52(%rbp), %eax
	leal	1(%rax), %ecx
	movzbl	274(%rsp), %eax
	movb	%cl, 52(%rbp)
	cmpb	$1, %al
	ja	.L573
	movzbl	272(%rsp), %esi
	movq	64(%rsp), %rbx
	movq	%rsi, %rdx
	leaq	(%rsi,%rsi,2), %rsi
	movzbl	%dl, %edi
	leaq	16(%rbx,%rsi,8), %rsi
	cmpb	275(%rsp,%rdi), %cl
	movq	(%rsi), %rbx
	movq	8(%rsi), %r13
	movq	%rbx, 88(%rsp)
	jbe	.L444
	subq	%r13, %rbx
	movq	%rbx, %rcx
	sarq	$4, %rcx
	cmpq	%rcx, 16(%rsi)
	jb	.L447
.L444:
	cmpq	88(%rsp), %r13
	je	.L448
	leaq	136(%rsp), %rax
	movq	%rax, 80(%rsp)
	.p2align 4,,10
	.p2align 3
.L474:
	movq	80(%rsp), %rsi
	leaq	local_thread_vars(%rip), %rdi
.LEHB9:
	call	_ZN3tbb10interface68internal8ets_baseILNS_18ets_key_usage_typeE1EE12table_lookupERb
	movl	0(%r13), %esi
	leaq	144(%rsp), %rdx
	movq	%rax, %rbx
	movl	$16, %ecx
	movq	%rdx, %rdi
	movl	%esi, (%rax)
	xorl	%eax, %eax
	rep stosq
	movl	%esi, %eax
	cmpq	$1023, %rax
	ja	.L449
	shrq	$6, %rax
	movl	$1, %edi
	movl	%esi, %ecx
	salq	%cl, %rdi
	orq	%rdi, (%rdx,%rax,8)
.L449:
	xorl	%edi, %edi
	movl	$128, %esi
	call	sched_setaffinity@PLT
	testl	%eax, %eax
	jne	.L574
	movl	4(%r13), %r14d
	movl	$4096, %edi
	movl	%r14d, 4(%rbx)
	movl	8(%r13), %r12d
	movq	%r14, %rsi
	movl	%r12d, 8(%rbx)
	call	aligned_alloc@PLT
	testq	%rax, %rax
	movq	%rax, %r15
	movq	%rax, 16(%rbx)
	je	.L575
	movq	%r14, %rsi
	movl	$4096, %edi
	call	aligned_alloc@PLT
	testq	%rax, %rax
	movq	%rax, 24(%rbx)
	je	.L576
	movq	%r14, %rdx
	movl	$204, %esi
	movq	%r15, %rdi
	call	memset@PLT
	movl	%r12d, %esi
	movl	$4096, %edi
	salq	$2, %rsi
	call	aligned_alloc@PLT
	testq	%rax, %rax
	movq	%rax, 32(%rbx)
	je	.L577
	movl	$5000, %edi
	call	_Znwm@PLT
	movq	%rax, %r14
	movl	0(%r13), %eax
	movl	$1, %esi
	movq	%rax, (%r14)
	movq	%rax, %rdx
	jmp	.L456
	.p2align 4,,10
	.p2align 3
.L578:
	movq	-8(%r14,%rsi,8), %rdx
.L456:
	movq	%rdx, %rax
	shrq	$30, %rax
	xorq	%rdx, %rax
	imulq	$1812433253, %rax, %rax
	addl	%esi, %eax
	movq	%rax, (%r14,%rsi,8)
	addq	$1, %rsi
	cmpq	$624, %rsi
	jne	.L578
	movl	8(%r13), %eax
	movq	32(%rbx), %r12
	movq	$624, 4992(%r14)
	movl	%eax, 24(%rsp)
	movl	4(%r13), %eax
	movl	%eax, %r15d
	movl	%eax, %ebx
	movl	%eax, 56(%rsp)
	shrl	$10, %eax
	shrl	$16, %ebx
	shrl	$6, %r15d
	movl	%eax, 32(%rsp)
	movl	12(%r13), %eax
	movl	%ebx, 28(%rsp)
	cmpl	$1, %eax
	je	.L458
	jb	.L459
	cmpl	$2, %eax
	je	.L460
	cmpl	$3, %eax
	jne	.L457
	movl	24(%rsp), %eax
	testl	%eax, %eax
	je	.L457
	subl	$1, %eax
	movsd	.LC9(%rip), %xmm7
	addq	$1, %rax
	pxor	%xmm6, %xmm6
	movq	%rax, 96(%rsp)
	movl	56(%rsp), %eax
	movl	$-858993459, %edx
	movsd	%xmm7, (%rsp)
	movq	%r13, 112(%rsp)
	movq	%rbp, 120(%rsp)
	movsd	.LC13(%rip), %xmm7
	xorl	%r15d, %r15d
	mull	%edx
	movsd	%xmm6, 16(%rsp)
	movsd	%xmm7, 104(%rsp)
	movsd	.LC14(%rip), %xmm6
	movsd	.LC15(%rip), %xmm7
	movl	%edx, %eax
	movl	%edx, %ebx
	shrl	$9, %eax
	shrl	$3, %ebx
	movsd	%xmm6, 40(%rsp)
	movsd	%xmm7, 48(%rsp)
	movl	%ebx, %r13d
	movl	%eax, %ebp
	.p2align 4,,10
	.p2align 3
.L473:
	movl	%r15d, %ebx
	.p2align 4,,10
	.p2align 3
.L526:
	movq	%r14, %rdi
	call	_ZSt18generate_canonicalIdLm53ESt23mersenne_twister_engineImLm32ELm624ELm397ELm31ELm2567483615ELm11ELm4294967295ELm7ELm2636928640ELm15ELm4022730752ELm18ELm1812433253EEET_RT1_
	addsd	%xmm0, %xmm0
	movq	%r14, %rdi
	movapd	%xmm0, %xmm1
	subsd	(%rsp), %xmm1
	movsd	%xmm1, 8(%rsp)
	call	_ZSt18generate_canonicalIdLm53ESt23mersenne_twister_engineImLm32ELm624ELm397ELm31ELm2567483615ELm11ELm4294967295ELm7ELm2636928640ELm15ELm4022730752ELm18ELm1812433253EEET_RT1_
	addsd	%xmm0, %xmm0
	movsd	(%rsp), %xmm4
	movsd	8(%rsp), %xmm1
	mulsd	%xmm1, %xmm1
	movapd	%xmm0, %xmm3
	subsd	%xmm4, %xmm3
	movapd	%xmm3, %xmm2
	mulsd	%xmm3, %xmm2
	addsd	%xmm2, %xmm1
	ucomisd	%xmm4, %xmm1
	ja	.L526
	ucomisd	16(%rsp), %xmm1
	jp	.L490
	je	.L526
.L490:
	movapd	%xmm1, %xmm0
	movsd	%xmm3, 72(%rsp)
	movsd	%xmm1, 8(%rsp)
	call	log@PLT
	mulsd	104(%rsp), %xmm0
	movsd	8(%rsp), %xmm1
	movsd	16(%rsp), %xmm6
	movsd	72(%rsp), %xmm3
	divsd	%xmm1, %xmm0
	ucomisd	%xmm0, %xmm6
	sqrtsd	%xmm0, %xmm1
	ja	.L579
.L472:
	mulsd	%xmm1, %xmm3
	movsd	40(%rsp), %xmm0
	mulsd	%xmm3, %xmm0
	addsd	48(%rsp), %xmm0
	call	round@PLT
	movl	24(%rsp), %eax
	xorl	%edx, %edx
	divl	28(%rsp)
	movl	%ebx, %eax
	movl	%edx, %ecx
	xorl	%edx, %edx
	divl	%ebp
	sall	$6, %ecx
	xorl	%edx, %edx
	imull	%r13d, %eax
	addl	%eax, %ecx
	cvttsd2siq	%xmm0, %rax
	andl	$1023, %eax
	imull	32(%rsp), %eax
	addl	%ecx, %eax
	divl	56(%rsp)
	movl	%edx, (%r12,%r15,4)
	addq	$1, %r15
	cmpq	%r15, 96(%rsp)
	jne	.L473
	movq	112(%rsp), %r13
	movq	120(%rsp), %rbp
	.p2align 4,,10
	.p2align 3
.L457:
	addq	$16, %r13
	cmpq	%r13, 88(%rsp)
	jne	.L474
	movzbl	272(%rsp), %edx
.L448:
	movzbl	274(%rsp), %eax
	addl	$7, %edx
	andl	$7, %edx
	movb	%dl, 272(%rsp)
	subl	$1, %eax
	movb	%al, 274(%rsp)
.L447:
	testb	%al, %al
	je	.L477
	movq	-56(%rbp), %rdi
	call	_ZNK3tbb18task_group_context28is_group_execution_cancelledEv@PLT
	testb	%al, %al
	movzbl	274(%rsp), %edx
	jne	.L477
	movzbl	52(%rbp), %r9d
	jmp	.L411
.L459:
	movl	24(%rsp), %eax
	testl	%eax, %eax
	je	.L457
	leal	-1(%rax), %esi
	xorl	%ecx, %ecx
	addq	$1, %rsi
	.p2align 4,,10
	.p2align 3
.L464:
	movl	%ecx, %eax
	xorl	%edx, %edx
	divl	%r15d
	sall	$6, %edx
	movl	%edx, (%r12,%rcx,4)
	addq	$1, %rcx
	cmpq	%rcx, %rsi
	jne	.L464
	jmp	.L457
.L458:
	movl	24(%rsp), %eax
	testl	%eax, %eax
	je	.L457
	subl	$1, %eax
	movq	%rbp, (%rsp)
	leaq	4(%r12,%rax,4), %rbx
	movq	%rbx, %rbp
	movq	80(%rsp), %rbx
	.p2align 4,,10
	.p2align 3
.L465:
	movabsq	$-4294967296, %rax
	movq	%rbx, %rdx
	movq	%r14, %rsi
	movq	%rbx, %rdi
	movq	%rax, 136(%rsp)
	addq	$4, %r12
	call	_ZNSt24uniform_int_distributionIjEclISt23mersenne_twister_engineImLm32ELm624ELm397ELm31ELm2567483615ELm11ELm4294967295ELm7ELm2636928640ELm15ELm4022730752ELm18ELm1812433253EEEEjRT_RKNS0_10param_typeE
	xorl	%edx, %edx
	divl	%r15d
	sall	$6, %edx
	movl	%edx, -4(%r12)
	cmpq	%r12, %rbp
	jne	.L465
	movq	(%rsp), %rbp
	jmp	.L457
.L460:
	movl	24(%rsp), %eax
	testl	%eax, %eax
	je	.L457
	movsd	.LC14(%rip), %xmm7
	subl	$1, %eax
	movsd	.LC15(%rip), %xmm6
	leaq	4(%r12,%rax,4), %rbx
	movsd	%xmm7, 40(%rsp)
	movsd	%xmm6, 48(%rsp)
	.p2align 4,,10
	.p2align 3
.L525:
	movq	%r14, %rdi
	call	_ZSt18generate_canonicalIdLm53ESt23mersenne_twister_engineImLm32ELm624ELm397ELm31ELm2567483615ELm11ELm4294967295ELm7ELm2636928640ELm15ELm4022730752ELm18ELm1812433253EEET_RT1_
	addsd	%xmm0, %xmm0
	movq	%r14, %rdi
	movapd	%xmm0, %xmm1
	subsd	.LC9(%rip), %xmm1
	movsd	%xmm1, (%rsp)
	call	_ZSt18generate_canonicalIdLm53ESt23mersenne_twister_engineImLm32ELm624ELm397ELm31ELm2567483615ELm11ELm4294967295ELm7ELm2636928640ELm15ELm4022730752ELm18ELm1812433253EEET_RT1_
	addsd	%xmm0, %xmm0
	movsd	(%rsp), %xmm1
	mulsd	%xmm1, %xmm1
	movapd	%xmm0, %xmm3
	subsd	.LC9(%rip), %xmm3
	movapd	%xmm3, %xmm2
	mulsd	%xmm3, %xmm2
	addsd	%xmm2, %xmm1
	ucomisd	.LC9(%rip), %xmm1
	ja	.L525
	pxor	%xmm6, %xmm6
	ucomisd	%xmm6, %xmm1
	jp	.L489
	je	.L525
.L489:
	movapd	%xmm1, %xmm0
	movsd	%xmm3, 8(%rsp)
	movsd	%xmm1, (%rsp)
	call	log@PLT
	mulsd	.LC13(%rip), %xmm0
	movsd	(%rsp), %xmm1
	pxor	%xmm6, %xmm6
	movsd	8(%rsp), %xmm3
	divsd	%xmm1, %xmm0
	ucomisd	%xmm0, %xmm6
	sqrtsd	%xmm0, %xmm1
	ja	.L580
.L468:
	mulsd	%xmm1, %xmm3
	addq	$4, %r12
	movsd	40(%rsp), %xmm0
	mulsd	%xmm3, %xmm0
	addsd	48(%rsp), %xmm0
	call	round@PLT
	cvttsd2siq	%xmm0, %rcx
	movl	24(%rsp), %eax
	xorl	%edx, %edx
	divl	28(%rsp)
	sall	$6, %edx
	andl	$1023, %ecx
	imull	32(%rsp), %ecx
	addl	%edx, %ecx
	movl	%ecx, -4(%r12)
	cmpq	%r12, %rbx
	jne	.L525
	jmp	.L457
.L572:
	movzbl	272(%rsp), %eax
	movq	64(%rsp), %rbx
	movq	%rax, %rdx
	leaq	(%rax,%rax,2), %rax
	leaq	16(%rbx,%rax,8), %rax
	movq	8(%rax), %r13
	movq	(%rax), %rax
	movq	%rax, 88(%rsp)
	jmp	.L444
.L573:
	movzbl	273(%rsp), %edx
	movq	64(%rsp), %rbx
	movl	$16, %esi
	movq	%rbp, %rdi
	leaq	(%rdx,%rdx,2), %rax
	movzbl	275(%rsp,%rdx), %r12d
	leaq	16(%rbx,%rax,8), %rbx
	call	_ZNK3tbb8internal27allocate_continuation_proxy8allocateEm@PLT
	leaq	16+_ZTVN3tbb10interface98internal9flag_taskE(%rip), %rcx
	movb	$1, -11(%rax)
	movq	%rcx, (%rax)
	movl	$56, %esi
	movb	$0, 8(%rax)
	movq	%rax, %rdi
	movq	%rax, -32(%rbp)
	movq	$2, -24(%rax)
	call	_ZNK3tbb8internal20allocate_child_proxy8allocateEm@PLT
	testq	%rax, %rax
	je	.L446
	movb	$1, -11(%rax)
	leaq	16+_ZTVN3tbb10interface98internal9start_forINS_13blocked_rangeIN9__gnu_cxx17__normal_iteratorIP9init_taskSt6vectorIS6_SaIS6_EEEEEENS_8internal26parallel_for_each_body_forI7invokerIS6_ESB_EEKNS_16auto_partitionerEEE(%rip), %rcx
	movdqu	(%rbx), %xmm0
	movq	%rcx, (%rax)
	movups	%xmm0, 8(%rax)
	movq	16(%rbx), %rdx
	movq	%rdx, 24(%rax)
	movq	32(%rbp), %rdx
	movq	%rdx, 32(%rax)
	movq	40(%rbp), %rdx
	shrq	%rdx
	movq	%rdx, 40(%rbp)
	movq	%rdx, 40(%rax)
	movl	$2, 48(%rax)
	movzbl	52(%rbp), %edx
	subl	%r12d, %edx
	movb	%dl, 52(%rax)
.L446:
	movq	-40(%rax), %rdi
	leaq	-8(%rax), %rdx
	movq	%rax, %rsi
	movq	(%rdi), %rcx
	call	*(%rcx)
.LEHE9:
	movzbl	273(%rsp), %edx
	movzbl	274(%rsp), %eax
	addl	$1, %edx
	subl	$1, %eax
	andl	$7, %edx
	movb	%al, 274(%rsp)
	movb	%dl, 273(%rsp)
	jmp	.L447
.L579:
	movsd	%xmm1, 72(%rsp)
	movsd	%xmm3, 8(%rsp)
	call	sqrt@PLT
	movsd	72(%rsp), %xmm1
	movsd	8(%rsp), %xmm3
	jmp	.L472
.L580:
	movsd	%xmm1, 8(%rsp)
	movsd	%xmm3, (%rsp)
	call	sqrt@PLT
	movsd	8(%rsp), %xmm1
	movsd	(%rsp), %xmm3
	jmp	.L468
.L564:
	movsd	%xmm1, 48(%rsp)
	movsd	%xmm3, 8(%rsp)
	call	sqrt@PLT
	movsd	48(%rsp), %xmm1
	movsd	8(%rsp), %xmm3
	jmp	.L434
.L566:
	movsd	%xmm1, 16(%rsp)
	movsd	%xmm3, (%rsp)
	call	sqrt@PLT
	movsd	16(%rsp), %xmm1
	movsd	(%rsp), %xmm3
	jmp	.L430
.L570:
	movq	%rax, 56(%rsp)
	movq	%rcx, %rdx
	jmp	.L482
.L545:
	movq	%rcx, 56(%rsp)
	jmp	.L403
.L486:
.L480:
	movzbl	274(%rsp), %edx
	testb	%dl, %dl
	je	.L479
	subl	$1, %edx
	movb	%dl, 274(%rsp)
	jmp	.L480
.L561:
	leaq	.LC11(%rip), %rsi
	movl	$47, %edx
.L556:
	leaq	_ZSt4cout(%rip), %rdi
.LEHB10:
	call	_ZSt16__ostream_insertIcSt11char_traitsIcEERSt13basic_ostreamIT_T0_ES6_PKS3_l@PLT
	leaq	_ZSt4cout(%rip), %rdi
	call	_ZSt4endlIcSt11char_traitsIcEERSt13basic_ostreamIT_T0_ES6_@PLT
.L557:
	orl	$-1, %edi
	call	exit@PLT
.L479:
	movq	%rax, %rdi
	call	_Unwind_Resume@PLT
.LEHE10:
.L577:
	leaq	.LC12(%rip), %rsi
	leaq	_ZSt4cout(%rip), %rdi
	movl	$46, %edx
.LEHB11:
	call	_ZSt16__ostream_insertIcSt11char_traitsIcEERSt13basic_ostreamIT_T0_ES6_PKS3_l@PLT
.L554:
	leaq	_ZSt4cout(%rip), %rdi
	call	_ZSt4endlIcSt11char_traitsIcEERSt13basic_ostreamIT_T0_ES6_@PLT
	jmp	.L557
.L576:
	leaq	.LC11(%rip), %rsi
	leaq	_ZSt4cout(%rip), %rdi
	movl	$47, %edx
	call	_ZSt16__ostream_insertIcSt11char_traitsIcEERSt13basic_ostreamIT_T0_ES6_PKS3_l@PLT
	jmp	.L554
.L575:
	leaq	.LC10(%rip), %rsi
	leaq	_ZSt4cout(%rip), %rdi
	movl	$43, %edx
	call	_ZSt16__ostream_insertIcSt11char_traitsIcEERSt13basic_ostreamIT_T0_ES6_PKS3_l@PLT
	jmp	.L554
.L574:
	movq	%r13, %rdi
	call	_ZN9init_taskclEv.part.39
.LEHE11:
.L562:
	movl	$46, %edx
	leaq	.LC12(%rip), %rsi
	jmp	.L556
.L559:
	movq	%r15, %rdi
.LEHB12:
	call	_ZN9init_taskclEv.part.39
.LEHE12:
.L560:
	movl	$43, %edx
	leaq	.LC10(%rip), %rsi
	jmp	.L556
.L565:
	call	__stack_chk_fail@PLT
	.cfi_endproc
.LFE6644:
	.section	.gcc_except_table._ZN3tbb10interface98internal9start_forINS_13blocked_rangeIN9__gnu_cxx17__normal_iteratorIP9init_taskSt6vectorIS6_SaIS6_EEEEEENS_8internal26parallel_for_each_body_forI7invokerIS6_ESB_EEKNS_16auto_partitionerEE7executeEv,"aG",@progbits,_ZN3tbb10interface98internal9start_forINS_13blocked_rangeIN9__gnu_cxx17__normal_iteratorIP9init_taskSt6vectorIS6_SaIS6_EEEEEENS_8internal26parallel_for_each_body_forI7invokerIS6_ESB_EEKNS_16auto_partitionerEE7executeEv,comdat
.LLSDA6644:
	.byte	0xff
	.byte	0xff
	.byte	0x1
	.uleb128 .LLSDACSE6644-.LLSDACSB6644
.LLSDACSB6644:
	.uleb128 .LEHB8-.LFB6644
	.uleb128 .LEHE8-.LEHB8
	.uleb128 0
	.uleb128 0
	.uleb128 .LEHB9-.LFB6644
	.uleb128 .LEHE9-.LEHB9
	.uleb128 .L486-.LFB6644
	.uleb128 0
	.uleb128 .LEHB10-.LFB6644
	.uleb128 .LEHE10-.LEHB10
	.uleb128 0
	.uleb128 0
	.uleb128 .LEHB11-.LFB6644
	.uleb128 .LEHE11-.LEHB11
	.uleb128 .L486-.LFB6644
	.uleb128 0
	.uleb128 .LEHB12-.LFB6644
	.uleb128 .LEHE12-.LEHB12
	.uleb128 0
	.uleb128 0
.LLSDACSE6644:
	.section	.text._ZN3tbb10interface98internal9start_forINS_13blocked_rangeIN9__gnu_cxx17__normal_iteratorIP9init_taskSt6vectorIS6_SaIS6_EEEEEENS_8internal26parallel_for_each_body_forI7invokerIS6_ESB_EEKNS_16auto_partitionerEE7executeEv,"axG",@progbits,_ZN3tbb10interface98internal9start_forINS_13blocked_rangeIN9__gnu_cxx17__normal_iteratorIP9init_taskSt6vectorIS6_SaIS6_EEEEEENS_8internal26parallel_for_each_body_forI7invokerIS6_ESB_EEKNS_16auto_partitionerEE7executeEv,comdat
	.size	_ZN3tbb10interface98internal9start_forINS_13blocked_rangeIN9__gnu_cxx17__normal_iteratorIP9init_taskSt6vectorIS6_SaIS6_EEEEEENS_8internal26parallel_for_each_body_forI7invokerIS6_ESB_EEKNS_16auto_partitionerEE7executeEv, .-_ZN3tbb10interface98internal9start_forINS_13blocked_rangeIN9__gnu_cxx17__normal_iteratorIP9init_taskSt6vectorIS6_SaIS6_EEEEEENS_8internal26parallel_for_each_body_forI7invokerIS6_ESB_EEKNS_16auto_partitionerEE7executeEv
	.section	.text._ZN3tbb10interface98internal9start_forINS_13blocked_rangeIN9__gnu_cxx17__normal_iteratorIP9init_taskSt6vectorIS6_SaIS6_EEEEEENS_8internal26parallel_for_each_body_forI7invokerIS6_ESB_EEKNS_16auto_partitionerEE3runERKSC_RKSH_RSJ_,"axG",@progbits,_ZN3tbb10interface98internal9start_forINS_13blocked_rangeIN9__gnu_cxx17__normal_iteratorIP9init_taskSt6vectorIS6_SaIS6_EEEEEENS_8internal26parallel_for_each_body_forI7invokerIS6_ESB_EEKNS_16auto_partitionerEE3runERKSC_RKSH_RSJ_,comdat
	.p2align 4,,15
	.weak	_ZN3tbb10interface98internal9start_forINS_13blocked_rangeIN9__gnu_cxx17__normal_iteratorIP9init_taskSt6vectorIS6_SaIS6_EEEEEENS_8internal26parallel_for_each_body_forI7invokerIS6_ESB_EEKNS_16auto_partitionerEE3runERKSC_RKSH_RSJ_
	.type	_ZN3tbb10interface98internal9start_forINS_13blocked_rangeIN9__gnu_cxx17__normal_iteratorIP9init_taskSt6vectorIS6_SaIS6_EEEEEENS_8internal26parallel_for_each_body_forI7invokerIS6_ESB_EEKNS_16auto_partitionerEE3runERKSC_RKSH_RSJ_, @function
_ZN3tbb10interface98internal9start_forINS_13blocked_rangeIN9__gnu_cxx17__normal_iteratorIP9init_taskSt6vectorIS6_SaIS6_EEEEEENS_8internal26parallel_for_each_body_forI7invokerIS6_ESB_EEKNS_16auto_partitionerEE3runERKSC_RKSH_RSJ_:
.LFB6398:
	.cfi_startproc
	.cfi_personality 0x9b,DW.ref.__gxx_personality_v0
	.cfi_lsda 0x1b,.LLSDA6398
	pushq	%r14
	.cfi_def_cfa_offset 16
	.cfi_offset 14, -16
	pushq	%r13
	.cfi_def_cfa_offset 24
	.cfi_offset 13, -24
	pushq	%r12
	.cfi_def_cfa_offset 32
	.cfi_offset 12, -32
	pushq	%rbp
	.cfi_def_cfa_offset 40
	.cfi_offset 6, -40
	pushq	%rbx
	.cfi_def_cfa_offset 48
	.cfi_offset 3, -48
	subq	$288, %rsp
	.cfi_def_cfa_offset 336
	movq	%fs:40, %rax
	movq	%rax, 280(%rsp)
	xorl	%eax, %eax
	movq	(%rdi), %rax
	cmpq	%rax, 8(%rdi)
	jb	.L589
.L581:
	movq	280(%rsp), %rax
	xorq	%fs:40, %rax
	jne	.L590
	addq	$288, %rsp
	.cfi_remember_state
	.cfi_def_cfa_offset 48
	popq	%rbx
	.cfi_def_cfa_offset 40
	popq	%rbp
	.cfi_def_cfa_offset 32
	popq	%r12
	.cfi_def_cfa_offset 24
	popq	%r13
	.cfi_def_cfa_offset 16
	popq	%r14
	.cfi_def_cfa_offset 8
	ret
	.p2align 4,,10
	.p2align 3
.L589:
	.cfi_restore_state
	leaq	16(%rsp), %r12
	leaq	8(%rsp), %r14
	movq	%rdi, %rbp
	movq	%rsi, %r13
	movl	$1, 16(%rsp)
	movq	$65538, 144(%rsp)
	movq	%r12, %rdi
.LEHB13:
	call	_ZN3tbb18task_group_context4initEv@PLT
.LEHE13:
	movl	$56, %esi
	movq	%r14, %rdi
	movq	%r12, 8(%rsp)
.LEHB14:
	call	_ZNK3tbb8internal32allocate_root_with_context_proxy8allocateEm@PLT
.LEHE14:
	movb	$1, -11(%rax)
	movq	%rax, %rbx
	leaq	16+_ZTVN3tbb10interface98internal9start_forINS_13blocked_rangeIN9__gnu_cxx17__normal_iteratorIP9init_taskSt6vectorIS6_SaIS6_EEEEEENS_8internal26parallel_for_each_body_forI7invokerIS6_ESB_EEKNS_16auto_partitionerEEE(%rip), %rax
	movdqu	0(%rbp), %xmm0
	movq	%rax, (%rbx)
	movups	%xmm0, 8(%rbx)
	movq	16(%rbp), %rax
	movq	%rax, 24(%rbx)
	movq	0(%r13), %rax
	movq	%rax, 32(%rbx)
.LEHB15:
	call	_ZN3tbb8internal36get_initial_auto_partitioner_divisorEv@PLT
.LEHE15:
	movq	-40(%rbx), %rdi
	shrq	$2, %rax
	movb	$5, 52(%rbx)
	addq	%rax, %rax
	movl	$0, 48(%rbx)
	leaq	-8(%rbx), %rdx
	movq	%rax, 40(%rbx)
	movq	%rbx, %rsi
	movq	(%rdi), %rax
.LEHB16:
	call	*16(%rax)
.LEHE16:
	movq	%r12, %rdi
	call	_ZN3tbb18task_group_contextD1Ev@PLT
	jmp	.L581
.L590:
	call	__stack_chk_fail@PLT
.L587:
	movq	%rax, %rbp
.L584:
	movq	%r12, %rdi
	call	_ZN3tbb18task_group_contextD1Ev@PLT
	movq	%rbp, %rdi
.LEHB17:
	call	_Unwind_Resume@PLT
.LEHE17:
.L586:
	movq	%rbx, %rsi
	movq	%r14, %rdi
	movq	%rax, %rbp
	call	_ZNK3tbb8internal32allocate_root_with_context_proxy4freeERNS_4taskE@PLT
	jmp	.L584
	.cfi_endproc
.LFE6398:
	.section	.gcc_except_table._ZN3tbb10interface98internal9start_forINS_13blocked_rangeIN9__gnu_cxx17__normal_iteratorIP9init_taskSt6vectorIS6_SaIS6_EEEEEENS_8internal26parallel_for_each_body_forI7invokerIS6_ESB_EEKNS_16auto_partitionerEE3runERKSC_RKSH_RSJ_,"aG",@progbits,_ZN3tbb10interface98internal9start_forINS_13blocked_rangeIN9__gnu_cxx17__normal_iteratorIP9init_taskSt6vectorIS6_SaIS6_EEEEEENS_8internal26parallel_for_each_body_forI7invokerIS6_ESB_EEKNS_16auto_partitionerEE3runERKSC_RKSH_RSJ_,comdat
.LLSDA6398:
	.byte	0xff
	.byte	0xff
	.byte	0x1
	.uleb128 .LLSDACSE6398-.LLSDACSB6398
.LLSDACSB6398:
	.uleb128 .LEHB13-.LFB6398
	.uleb128 .LEHE13-.LEHB13
	.uleb128 0
	.uleb128 0
	.uleb128 .LEHB14-.LFB6398
	.uleb128 .LEHE14-.LEHB14
	.uleb128 .L587-.LFB6398
	.uleb128 0
	.uleb128 .LEHB15-.LFB6398
	.uleb128 .LEHE15-.LEHB15
	.uleb128 .L586-.LFB6398
	.uleb128 0
	.uleb128 .LEHB16-.LFB6398
	.uleb128 .LEHE16-.LEHB16
	.uleb128 .L587-.LFB6398
	.uleb128 0
	.uleb128 .LEHB17-.LFB6398
	.uleb128 .LEHE17-.LEHB17
	.uleb128 0
	.uleb128 0
.LLSDACSE6398:
	.section	.text._ZN3tbb10interface98internal9start_forINS_13blocked_rangeIN9__gnu_cxx17__normal_iteratorIP9init_taskSt6vectorIS6_SaIS6_EEEEEENS_8internal26parallel_for_each_body_forI7invokerIS6_ESB_EEKNS_16auto_partitionerEE3runERKSC_RKSH_RSJ_,"axG",@progbits,_ZN3tbb10interface98internal9start_forINS_13blocked_rangeIN9__gnu_cxx17__normal_iteratorIP9init_taskSt6vectorIS6_SaIS6_EEEEEENS_8internal26parallel_for_each_body_forI7invokerIS6_ESB_EEKNS_16auto_partitionerEE3runERKSC_RKSH_RSJ_,comdat
	.size	_ZN3tbb10interface98internal9start_forINS_13blocked_rangeIN9__gnu_cxx17__normal_iteratorIP9init_taskSt6vectorIS6_SaIS6_EEEEEENS_8internal26parallel_for_each_body_forI7invokerIS6_ESB_EEKNS_16auto_partitionerEE3runERKSC_RKSH_RSJ_, .-_ZN3tbb10interface98internal9start_forINS_13blocked_rangeIN9__gnu_cxx17__normal_iteratorIP9init_taskSt6vectorIS6_SaIS6_EEEEEENS_8internal26parallel_for_each_body_forI7invokerIS6_ESB_EEKNS_16auto_partitionerEE3runERKSC_RKSH_RSJ_
	.section	.text._ZN3tbb10interface98internal9start_forINS_13blocked_rangeIN9__gnu_cxx17__normal_iteratorIP11access_taskSt6vectorIS6_SaIS6_EEEEEENS_8internal26parallel_for_each_body_forI7invokerIS6_ESB_EEKNS_16auto_partitionerEE3runERKSC_RKSH_RSJ_,"axG",@progbits,_ZN3tbb10interface98internal9start_forINS_13blocked_rangeIN9__gnu_cxx17__normal_iteratorIP11access_taskSt6vectorIS6_SaIS6_EEEEEENS_8internal26parallel_for_each_body_forI7invokerIS6_ESB_EEKNS_16auto_partitionerEE3runERKSC_RKSH_RSJ_,comdat
	.p2align 4,,15
	.weak	_ZN3tbb10interface98internal9start_forINS_13blocked_rangeIN9__gnu_cxx17__normal_iteratorIP11access_taskSt6vectorIS6_SaIS6_EEEEEENS_8internal26parallel_for_each_body_forI7invokerIS6_ESB_EEKNS_16auto_partitionerEE3runERKSC_RKSH_RSJ_
	.type	_ZN3tbb10interface98internal9start_forINS_13blocked_rangeIN9__gnu_cxx17__normal_iteratorIP11access_taskSt6vectorIS6_SaIS6_EEEEEENS_8internal26parallel_for_each_body_forI7invokerIS6_ESB_EEKNS_16auto_partitionerEE3runERKSC_RKSH_RSJ_, @function
_ZN3tbb10interface98internal9start_forINS_13blocked_rangeIN9__gnu_cxx17__normal_iteratorIP11access_taskSt6vectorIS6_SaIS6_EEEEEENS_8internal26parallel_for_each_body_forI7invokerIS6_ESB_EEKNS_16auto_partitionerEE3runERKSC_RKSH_RSJ_:
.LFB6406:
	.cfi_startproc
	.cfi_personality 0x9b,DW.ref.__gxx_personality_v0
	.cfi_lsda 0x1b,.LLSDA6406
	pushq	%r14
	.cfi_def_cfa_offset 16
	.cfi_offset 14, -16
	pushq	%r13
	.cfi_def_cfa_offset 24
	.cfi_offset 13, -24
	pushq	%r12
	.cfi_def_cfa_offset 32
	.cfi_offset 12, -32
	pushq	%rbp
	.cfi_def_cfa_offset 40
	.cfi_offset 6, -40
	pushq	%rbx
	.cfi_def_cfa_offset 48
	.cfi_offset 3, -48
	subq	$288, %rsp
	.cfi_def_cfa_offset 336
	movq	%fs:40, %rax
	movq	%rax, 280(%rsp)
	xorl	%eax, %eax
	movq	(%rdi), %rax
	cmpq	%rax, 8(%rdi)
	jb	.L599
.L591:
	movq	280(%rsp), %rax
	xorq	%fs:40, %rax
	jne	.L600
	addq	$288, %rsp
	.cfi_remember_state
	.cfi_def_cfa_offset 48
	popq	%rbx
	.cfi_def_cfa_offset 40
	popq	%rbp
	.cfi_def_cfa_offset 32
	popq	%r12
	.cfi_def_cfa_offset 24
	popq	%r13
	.cfi_def_cfa_offset 16
	popq	%r14
	.cfi_def_cfa_offset 8
	ret
	.p2align 4,,10
	.p2align 3
.L599:
	.cfi_restore_state
	leaq	16(%rsp), %r12
	leaq	8(%rsp), %r14
	movq	%rdi, %rbp
	movq	%rsi, %r13
	movl	$1, 16(%rsp)
	movq	$65538, 144(%rsp)
	movq	%r12, %rdi
.LEHB18:
	call	_ZN3tbb18task_group_context4initEv@PLT
.LEHE18:
	movl	$56, %esi
	movq	%r14, %rdi
	movq	%r12, 8(%rsp)
.LEHB19:
	call	_ZNK3tbb8internal32allocate_root_with_context_proxy8allocateEm@PLT
.LEHE19:
	movb	$1, -11(%rax)
	movq	%rax, %rbx
	leaq	16+_ZTVN3tbb10interface98internal9start_forINS_13blocked_rangeIN9__gnu_cxx17__normal_iteratorIP11access_taskSt6vectorIS6_SaIS6_EEEEEENS_8internal26parallel_for_each_body_forI7invokerIS6_ESB_EEKNS_16auto_partitionerEEE(%rip), %rax
	movdqu	0(%rbp), %xmm0
	movq	%rax, (%rbx)
	movups	%xmm0, 8(%rbx)
	movq	16(%rbp), %rax
	movq	%rax, 24(%rbx)
	movq	0(%r13), %rax
	movq	%rax, 32(%rbx)
.LEHB20:
	call	_ZN3tbb8internal36get_initial_auto_partitioner_divisorEv@PLT
.LEHE20:
	movq	-40(%rbx), %rdi
	shrq	$2, %rax
	movb	$5, 52(%rbx)
	addq	%rax, %rax
	movl	$0, 48(%rbx)
	leaq	-8(%rbx), %rdx
	movq	%rax, 40(%rbx)
	movq	%rbx, %rsi
	movq	(%rdi), %rax
.LEHB21:
	call	*16(%rax)
.LEHE21:
	movq	%r12, %rdi
	call	_ZN3tbb18task_group_contextD1Ev@PLT
	jmp	.L591
.L600:
	call	__stack_chk_fail@PLT
.L597:
	movq	%rax, %rbp
.L594:
	movq	%r12, %rdi
	call	_ZN3tbb18task_group_contextD1Ev@PLT
	movq	%rbp, %rdi
.LEHB22:
	call	_Unwind_Resume@PLT
.LEHE22:
.L596:
	movq	%rbx, %rsi
	movq	%r14, %rdi
	movq	%rax, %rbp
	call	_ZNK3tbb8internal32allocate_root_with_context_proxy4freeERNS_4taskE@PLT
	jmp	.L594
	.cfi_endproc
.LFE6406:
	.section	.gcc_except_table._ZN3tbb10interface98internal9start_forINS_13blocked_rangeIN9__gnu_cxx17__normal_iteratorIP11access_taskSt6vectorIS6_SaIS6_EEEEEENS_8internal26parallel_for_each_body_forI7invokerIS6_ESB_EEKNS_16auto_partitionerEE3runERKSC_RKSH_RSJ_,"aG",@progbits,_ZN3tbb10interface98internal9start_forINS_13blocked_rangeIN9__gnu_cxx17__normal_iteratorIP11access_taskSt6vectorIS6_SaIS6_EEEEEENS_8internal26parallel_for_each_body_forI7invokerIS6_ESB_EEKNS_16auto_partitionerEE3runERKSC_RKSH_RSJ_,comdat
.LLSDA6406:
	.byte	0xff
	.byte	0xff
	.byte	0x1
	.uleb128 .LLSDACSE6406-.LLSDACSB6406
.LLSDACSB6406:
	.uleb128 .LEHB18-.LFB6406
	.uleb128 .LEHE18-.LEHB18
	.uleb128 0
	.uleb128 0
	.uleb128 .LEHB19-.LFB6406
	.uleb128 .LEHE19-.LEHB19
	.uleb128 .L597-.LFB6406
	.uleb128 0
	.uleb128 .LEHB20-.LFB6406
	.uleb128 .LEHE20-.LEHB20
	.uleb128 .L596-.LFB6406
	.uleb128 0
	.uleb128 .LEHB21-.LFB6406
	.uleb128 .LEHE21-.LEHB21
	.uleb128 .L597-.LFB6406
	.uleb128 0
	.uleb128 .LEHB22-.LFB6406
	.uleb128 .LEHE22-.LEHB22
	.uleb128 0
	.uleb128 0
.LLSDACSE6406:
	.section	.text._ZN3tbb10interface98internal9start_forINS_13blocked_rangeIN9__gnu_cxx17__normal_iteratorIP11access_taskSt6vectorIS6_SaIS6_EEEEEENS_8internal26parallel_for_each_body_forI7invokerIS6_ESB_EEKNS_16auto_partitionerEE3runERKSC_RKSH_RSJ_,"axG",@progbits,_ZN3tbb10interface98internal9start_forINS_13blocked_rangeIN9__gnu_cxx17__normal_iteratorIP11access_taskSt6vectorIS6_SaIS6_EEEEEENS_8internal26parallel_for_each_body_forI7invokerIS6_ESB_EEKNS_16auto_partitionerEE3runERKSC_RKSH_RSJ_,comdat
	.size	_ZN3tbb10interface98internal9start_forINS_13blocked_rangeIN9__gnu_cxx17__normal_iteratorIP11access_taskSt6vectorIS6_SaIS6_EEEEEENS_8internal26parallel_for_each_body_forI7invokerIS6_ESB_EEKNS_16auto_partitionerEE3runERKSC_RKSH_RSJ_, .-_ZN3tbb10interface98internal9start_forINS_13blocked_rangeIN9__gnu_cxx17__normal_iteratorIP11access_taskSt6vectorIS6_SaIS6_EEEEEENS_8internal26parallel_for_each_body_forI7invokerIS6_ESB_EEKNS_16auto_partitionerEE3runERKSC_RKSH_RSJ_
	.section	.text._ZN3tbb10interface98internal9start_forINS_13blocked_rangeIN9__gnu_cxx17__normal_iteratorIP14tear_down_taskSt6vectorIS6_SaIS6_EEEEEENS_8internal26parallel_for_each_body_forI7invokerIS6_ESB_EEKNS_16auto_partitionerEE3runERKSC_RKSH_RSJ_,"axG",@progbits,_ZN3tbb10interface98internal9start_forINS_13blocked_rangeIN9__gnu_cxx17__normal_iteratorIP14tear_down_taskSt6vectorIS6_SaIS6_EEEEEENS_8internal26parallel_for_each_body_forI7invokerIS6_ESB_EEKNS_16auto_partitionerEE3runERKSC_RKSH_RSJ_,comdat
	.p2align 4,,15
	.weak	_ZN3tbb10interface98internal9start_forINS_13blocked_rangeIN9__gnu_cxx17__normal_iteratorIP14tear_down_taskSt6vectorIS6_SaIS6_EEEEEENS_8internal26parallel_for_each_body_forI7invokerIS6_ESB_EEKNS_16auto_partitionerEE3runERKSC_RKSH_RSJ_
	.type	_ZN3tbb10interface98internal9start_forINS_13blocked_rangeIN9__gnu_cxx17__normal_iteratorIP14tear_down_taskSt6vectorIS6_SaIS6_EEEEEENS_8internal26parallel_for_each_body_forI7invokerIS6_ESB_EEKNS_16auto_partitionerEE3runERKSC_RKSH_RSJ_, @function
_ZN3tbb10interface98internal9start_forINS_13blocked_rangeIN9__gnu_cxx17__normal_iteratorIP14tear_down_taskSt6vectorIS6_SaIS6_EEEEEENS_8internal26parallel_for_each_body_forI7invokerIS6_ESB_EEKNS_16auto_partitionerEE3runERKSC_RKSH_RSJ_:
.LFB6414:
	.cfi_startproc
	.cfi_personality 0x9b,DW.ref.__gxx_personality_v0
	.cfi_lsda 0x1b,.LLSDA6414
	pushq	%r14
	.cfi_def_cfa_offset 16
	.cfi_offset 14, -16
	pushq	%r13
	.cfi_def_cfa_offset 24
	.cfi_offset 13, -24
	pushq	%r12
	.cfi_def_cfa_offset 32
	.cfi_offset 12, -32
	pushq	%rbp
	.cfi_def_cfa_offset 40
	.cfi_offset 6, -40
	pushq	%rbx
	.cfi_def_cfa_offset 48
	.cfi_offset 3, -48
	subq	$288, %rsp
	.cfi_def_cfa_offset 336
	movq	%fs:40, %rax
	movq	%rax, 280(%rsp)
	xorl	%eax, %eax
	movq	(%rdi), %rax
	cmpq	%rax, 8(%rdi)
	jb	.L609
.L601:
	movq	280(%rsp), %rax
	xorq	%fs:40, %rax
	jne	.L610
	addq	$288, %rsp
	.cfi_remember_state
	.cfi_def_cfa_offset 48
	popq	%rbx
	.cfi_def_cfa_offset 40
	popq	%rbp
	.cfi_def_cfa_offset 32
	popq	%r12
	.cfi_def_cfa_offset 24
	popq	%r13
	.cfi_def_cfa_offset 16
	popq	%r14
	.cfi_def_cfa_offset 8
	ret
	.p2align 4,,10
	.p2align 3
.L609:
	.cfi_restore_state
	leaq	16(%rsp), %r12
	leaq	8(%rsp), %r14
	movq	%rdi, %rbp
	movq	%rsi, %r13
	movl	$1, 16(%rsp)
	movq	$65538, 144(%rsp)
	movq	%r12, %rdi
.LEHB23:
	call	_ZN3tbb18task_group_context4initEv@PLT
.LEHE23:
	movl	$56, %esi
	movq	%r14, %rdi
	movq	%r12, 8(%rsp)
.LEHB24:
	call	_ZNK3tbb8internal32allocate_root_with_context_proxy8allocateEm@PLT
.LEHE24:
	movb	$1, -11(%rax)
	movq	%rax, %rbx
	leaq	16+_ZTVN3tbb10interface98internal9start_forINS_13blocked_rangeIN9__gnu_cxx17__normal_iteratorIP14tear_down_taskSt6vectorIS6_SaIS6_EEEEEENS_8internal26parallel_for_each_body_forI7invokerIS6_ESB_EEKNS_16auto_partitionerEEE(%rip), %rax
	movdqu	0(%rbp), %xmm0
	movq	%rax, (%rbx)
	movups	%xmm0, 8(%rbx)
	movq	16(%rbp), %rax
	movq	%rax, 24(%rbx)
	movq	0(%r13), %rax
	movq	%rax, 32(%rbx)
.LEHB25:
	call	_ZN3tbb8internal36get_initial_auto_partitioner_divisorEv@PLT
.LEHE25:
	movq	-40(%rbx), %rdi
	shrq	$2, %rax
	movb	$5, 52(%rbx)
	addq	%rax, %rax
	movl	$0, 48(%rbx)
	leaq	-8(%rbx), %rdx
	movq	%rax, 40(%rbx)
	movq	%rbx, %rsi
	movq	(%rdi), %rax
.LEHB26:
	call	*16(%rax)
.LEHE26:
	movq	%r12, %rdi
	call	_ZN3tbb18task_group_contextD1Ev@PLT
	jmp	.L601
.L610:
	call	__stack_chk_fail@PLT
.L607:
	movq	%rax, %rbp
.L604:
	movq	%r12, %rdi
	call	_ZN3tbb18task_group_contextD1Ev@PLT
	movq	%rbp, %rdi
.LEHB27:
	call	_Unwind_Resume@PLT
.LEHE27:
.L606:
	movq	%rbx, %rsi
	movq	%r14, %rdi
	movq	%rax, %rbp
	call	_ZNK3tbb8internal32allocate_root_with_context_proxy4freeERNS_4taskE@PLT
	jmp	.L604
	.cfi_endproc
.LFE6414:
	.section	.gcc_except_table._ZN3tbb10interface98internal9start_forINS_13blocked_rangeIN9__gnu_cxx17__normal_iteratorIP14tear_down_taskSt6vectorIS6_SaIS6_EEEEEENS_8internal26parallel_for_each_body_forI7invokerIS6_ESB_EEKNS_16auto_partitionerEE3runERKSC_RKSH_RSJ_,"aG",@progbits,_ZN3tbb10interface98internal9start_forINS_13blocked_rangeIN9__gnu_cxx17__normal_iteratorIP14tear_down_taskSt6vectorIS6_SaIS6_EEEEEENS_8internal26parallel_for_each_body_forI7invokerIS6_ESB_EEKNS_16auto_partitionerEE3runERKSC_RKSH_RSJ_,comdat
.LLSDA6414:
	.byte	0xff
	.byte	0xff
	.byte	0x1
	.uleb128 .LLSDACSE6414-.LLSDACSB6414
.LLSDACSB6414:
	.uleb128 .LEHB23-.LFB6414
	.uleb128 .LEHE23-.LEHB23
	.uleb128 0
	.uleb128 0
	.uleb128 .LEHB24-.LFB6414
	.uleb128 .LEHE24-.LEHB24
	.uleb128 .L607-.LFB6414
	.uleb128 0
	.uleb128 .LEHB25-.LFB6414
	.uleb128 .LEHE25-.LEHB25
	.uleb128 .L606-.LFB6414
	.uleb128 0
	.uleb128 .LEHB26-.LFB6414
	.uleb128 .LEHE26-.LEHB26
	.uleb128 .L607-.LFB6414
	.uleb128 0
	.uleb128 .LEHB27-.LFB6414
	.uleb128 .LEHE27-.LEHB27
	.uleb128 0
	.uleb128 0
.LLSDACSE6414:
	.section	.text._ZN3tbb10interface98internal9start_forINS_13blocked_rangeIN9__gnu_cxx17__normal_iteratorIP14tear_down_taskSt6vectorIS6_SaIS6_EEEEEENS_8internal26parallel_for_each_body_forI7invokerIS6_ESB_EEKNS_16auto_partitionerEE3runERKSC_RKSH_RSJ_,"axG",@progbits,_ZN3tbb10interface98internal9start_forINS_13blocked_rangeIN9__gnu_cxx17__normal_iteratorIP14tear_down_taskSt6vectorIS6_SaIS6_EEEEEENS_8internal26parallel_for_each_body_forI7invokerIS6_ESB_EEKNS_16auto_partitionerEE3runERKSC_RKSH_RSJ_,comdat
	.size	_ZN3tbb10interface98internal9start_forINS_13blocked_rangeIN9__gnu_cxx17__normal_iteratorIP14tear_down_taskSt6vectorIS6_SaIS6_EEEEEENS_8internal26parallel_for_each_body_forI7invokerIS6_ESB_EEKNS_16auto_partitionerEE3runERKSC_RKSH_RSJ_, .-_ZN3tbb10interface98internal9start_forINS_13blocked_rangeIN9__gnu_cxx17__normal_iteratorIP14tear_down_taskSt6vectorIS6_SaIS6_EEEEEENS_8internal26parallel_for_each_body_forI7invokerIS6_ESB_EEKNS_16auto_partitionerEE3runERKSC_RKSH_RSJ_
	.section	.rodata.str1.8
	.align 8
.LC16:
	.string	"Failure in allocating dummy buffers, aborting"
	.section	.rodata.str1.1
.LC17:
	.string	"vector::_M_realloc_insert"
	.section	.rodata.str1.8
	.align 8
.LC18:
	.string	"# Initialization done! strating test..."
	.align 8
.LC19:
	.string	"********************************************"
	.section	.rodata.str1.1
.LC21:
	.string	"# Elapsed time: "
.LC22:
	.string	" seconds"
.LC24:
	.string	"# Bandwidth: "
.LC25:
	.string	" GiB per second"
	.section	.text.startup,"ax",@progbits
	.p2align 4,,15
	.globl	main
	.type	main, @function
main:
.LFB5218:
	.cfi_startproc
	.cfi_personality 0x9b,DW.ref.__gxx_personality_v0
	.cfi_lsda 0x1b,.LLSDA5218
	pushq	%r15
	.cfi_def_cfa_offset 16
	.cfi_offset 15, -16
	pushq	%r14
	.cfi_def_cfa_offset 24
	.cfi_offset 14, -24
	pushq	%r13
	.cfi_def_cfa_offset 32
	.cfi_offset 13, -32
	pushq	%r12
	.cfi_def_cfa_offset 40
	.cfi_offset 12, -40
	pushq	%rbp
	.cfi_def_cfa_offset 48
	.cfi_offset 6, -48
	pushq	%rbx
	.cfi_def_cfa_offset 56
	.cfi_offset 3, -56
	movl	%edi, %ebx
	movl	$84, %edi
	movq	%rsi, %rbp
	subq	$232, %rsp
	.cfi_def_cfa_offset 288
	movq	%fs:40, %rax
	movq	%rax, 216(%rsp)
	xorl	%eax, %eax
	movq	$0, 96(%rsp)
	movq	$0, 104(%rsp)
	movq	$0, 112(%rsp)
	call	sysconf@PLT
	leaq	80(%rsp), %rdx
	movq	%rbp, %rsi
	movl	%ebx, %edi
	movl	%eax, cpus_num(%rip)
.LEHB28:
	call	_Z9parse_cmdiPPcP10cmd_params@PLT
.LEHE28:
	leaq	48(%rsp), %rax
	movl	80(%rsp), %esi
	movl	$1, %edx
	movq	$0, 48(%rsp)
	movq	%rax, %rdi
	movq	%rax, 16(%rsp)
.LEHB29:
	call	_ZN3tbb19task_scheduler_init10initializeEim@PLT
.LEHE29:
	movl	80(%rsp), %ecx
	movq	104(%rsp), %rsi
	leaq	192(%rsp), %r14
	testl	%ecx, %ecx
	je	.L617
	xorl	%ebx, %ebx
	leaq	192(%rsp), %r14
	leaq	96(%rsp), %rbp
	jmp	.L624
	.p2align 4,,10
	.p2align 3
.L741:
	testq	%rsi, %rsi
	je	.L619
	movdqa	192(%rsp), %xmm0
	movups	%xmm0, (%rsi)
.L619:
	addq	$16, %rsi
	addl	$1, %ebx
	cmpl	%ebx, 80(%rsp)
	movq	%rsi, 104(%rsp)
	jbe	.L617
.L624:
	movl	84(%rsp), %eax
	cmpq	112(%rsp), %rsi
	movl	%ebx, 192(%rsp)
	movl	%eax, 196(%rsp)
	movl	88(%rsp), %eax
	movl	%eax, 200(%rsp)
	movl	92(%rsp), %eax
	movl	%eax, 204(%rsp)
	jne	.L741
	movq	%r14, %rdx
	movq	%rbp, %rdi
.LEHB30:
	call	_ZNSt6vectorI9init_taskSaIS0_EE17_M_realloc_insertIJS0_EEEvN9__gnu_cxx17__normal_iteratorIPS0_S2_EEDpOT_
.LEHE30:
	addl	$1, %ebx
	cmpl	%ebx, 80(%rsp)
	movq	104(%rsp), %rsi
	ja	.L624
	.p2align 4,,10
	.p2align 3
.L617:
	movq	96(%rsp), %rax
	movq	%rsi, 128(%rsp)
	leaq	45(%rsp), %rdx
	leaq	56(%rsp), %rsi
	leaq	128(%rsp), %rdi
	movq	%r14, 56(%rsp)
	movq	$1, 144(%rsp)
	movq	%rax, 136(%rsp)
.LEHB31:
	call	_ZN3tbb10interface98internal9start_forINS_13blocked_rangeIN9__gnu_cxx17__normal_iteratorIP9init_taskSt6vectorIS6_SaIS6_EEEEEENS_8internal26parallel_for_each_body_forI7invokerIS6_ESB_EEKNS_16auto_partitionerEE3runERKSC_RKSH_RSJ_
.LEHE31:
	movl	$134217728, %edi
	call	malloc@PLT
	movl	$134217728, %edi
	movq	%rax, %rbp
	call	malloc@PLT
	testq	%rbp, %rbp
	movq	%rax, %rbx
	je	.L694
	testq	%rax, %rax
	je	.L694
	movq	%rbp, %rdi
	call	free@PLT
	movq	%rbx, %rdi
	call	free@PLT
	movl	80(%rsp), %edx
	testl	%edx, %edx
	je	.L674
	xorl	%r12d, %r12d
	xorl	%ebx, %ebx
	xorl	%r13d, %r13d
	xorl	%ebp, %ebp
	jmp	.L641
	.p2align 4,,10
	.p2align 3
.L742:
	addq	$1, %rbx
	addl	$1, %ebp
	cmpl	%ebp, 80(%rsp)
	jbe	.L631
.L641:
	cmpq	%r12, %rbx
	jne	.L742
	subq	%r13, %rbx
	cmpq	$-1, %rbx
	je	.L743
	testq	%rbx, %rbx
	movl	$1, %r15d
	je	.L636
	leaq	(%rbx,%rbx), %r15
	movq	$-1, %rax
	cmpq	%r15, %rbx
	cmova	%rax, %r15
.L636:
	movq	%r15, %rdi
.LEHB32:
	call	_Znwm@PLT
.LEHE32:
	cmpq	%r13, %r12
	je	.L744
	subq	%r13, %r12
	leaq	(%rax,%r12), %rbx
.L639:
	addq	$1, %rbx
	testq	%r13, %r13
	je	.L640
	movq	%r13, %rdi
	movq	%rax, (%rsp)
	call	_ZdlPv@PLT
	movq	(%rsp), %rax
.L640:
	addl	$1, %ebp
	cmpl	%ebp, 80(%rsp)
	leaq	(%rax,%r15), %r12
	movq	%rax, %r13
	ja	.L641
	.p2align 4,,10
	.p2align 3
.L631:
	leaq	.LC18(%rip), %rsi
	leaq	_ZSt4cout(%rip), %rdi
	movl	$39, %edx
.LEHB33:
	call	_ZSt16__ostream_insertIcSt11char_traitsIcEERSt13basic_ostreamIT_T0_ES6_PKS3_l@PLT
.LEHE33:
	leaq	_ZSt4cout(%rip), %rdi
.LEHB34:
	call	_ZSt4endlIcSt11char_traitsIcEERSt13basic_ostreamIT_T0_ES6_@PLT
.LEHE34:
	leaq	.LC19(%rip), %rsi
	movl	$44, %edx
	movq	%rax, %rdi
	movq	%rax, %rbp
.LEHB35:
	call	_ZSt16__ostream_insertIcSt11char_traitsIcEERSt13basic_ostreamIT_T0_ES6_PKS3_l@PLT
.LEHE35:
	movq	%rbp, %rdi
.LEHB36:
	call	_ZSt4endlIcSt11char_traitsIcEERSt13basic_ostreamIT_T0_ES6_@PLT
.LEHE36:
	movq	%r14, %rsi
	xorl	%edi, %edi
	call	clock_gettime@PLT
	imulq	$1000000000, 192(%rsp), %rbp
	leaq	160(%rsp), %rax
	leaq	46(%rsp), %rdx
	leaq	64(%rsp), %rsi
	movq	%r14, 64(%rsp)
	movq	%rbx, 160(%rsp)
	movq	%rax, %rdi
	movq	%r13, 168(%rsp)
	movq	$1, 176(%rsp)
	addq	200(%rsp), %rbp
	movq	%rax, 8(%rsp)
.LEHB37:
	call	_ZN3tbb10interface98internal9start_forINS_13blocked_rangeIN9__gnu_cxx17__normal_iteratorIP11access_taskSt6vectorIS6_SaIS6_EEEEEENS_8internal26parallel_for_each_body_forI7invokerIS6_ESB_EEKNS_16auto_partitionerEE3runERKSC_RKSH_RSJ_
.LEHE37:
	xorl	%edi, %edi
	movq	%r14, %rsi
	call	clock_gettime@PLT
	imulq	$1000000000, 192(%rsp), %rax
	pxor	%xmm0, %xmm0
	addq	200(%rsp), %rax
	subq	%rbp, %rax
	cvtsi2sdq	%rax, %xmm0
	movl	80(%rsp), %eax
	testl	%eax, %eax
	mulsd	.LC20(%rip), %xmm0
	movsd	%xmm0, (%rsp)
	je	.L677
	xorl	%r15d, %r15d
	xorl	%ebx, %ebx
	xorl	%r12d, %r12d
	xorl	%ebp, %ebp
	jmp	.L659
	.p2align 4,,10
	.p2align 3
.L745:
	addq	$1, %rbx
	addl	$1, %ebp
	cmpl	%ebp, 80(%rsp)
	jbe	.L652
.L659:
	cmpq	%rbx, %r15
	jne	.L745
	movq	%r15, %rax
	subq	%r12, %rax
	cmpq	$-1, %rax
	je	.L746
	testq	%rax, %rax
	movl	$1, %r15d
	je	.L656
	leaq	(%rax,%rax), %r15
	cmpq	%r15, %rax
	movq	$-1, %rax
	cmova	%rax, %r15
.L656:
	movq	%r15, %rdi
.LEHB38:
	call	_Znwm@PLT
	cmpq	%rbx, %r12
	je	.L679
	subq	%r12, %rbx
	addq	%rax, %rbx
.L657:
	addq	$1, %rbx
	testq	%r12, %r12
	je	.L658
	movq	%r12, %rdi
	movq	%rax, 24(%rsp)
	call	_ZdlPv@PLT
	movq	24(%rsp), %rax
.L658:
	addq	%rax, %r15
	addl	$1, %ebp
	cmpl	%ebp, 80(%rsp)
	movq	%rax, %r12
	ja	.L659
	.p2align 4,,10
	.p2align 3
.L652:
	movq	8(%rsp), %rax
	leaq	47(%rsp), %rdx
	leaq	72(%rsp), %rsi
	movq	%r14, %rdi
	movq	%rbx, 192(%rsp)
	movq	%r12, 200(%rsp)
	movq	$1, 208(%rsp)
	movq	%rax, 72(%rsp)
	call	_ZN3tbb10interface98internal9start_forINS_13blocked_rangeIN9__gnu_cxx17__normal_iteratorIP14tear_down_taskSt6vectorIS6_SaIS6_EEEEEENS_8internal26parallel_for_each_body_forI7invokerIS6_ESB_EEKNS_16auto_partitionerEE3runERKSC_RKSH_RSJ_
	leaq	.LC21(%rip), %rsi
	leaq	_ZSt4cout(%rip), %rdi
	movl	$16, %edx
	call	_ZSt16__ostream_insertIcSt11char_traitsIcEERSt13basic_ostreamIT_T0_ES6_PKS3_l@PLT
	movsd	(%rsp), %xmm0
	leaq	_ZSt4cout(%rip), %rdi
	call	_ZNSo9_M_insertIdEERSoT_@PLT
	leaq	.LC22(%rip), %rsi
	movl	$8, %edx
	movq	%rax, %rdi
	movq	%rax, %rbx
	call	_ZSt16__ostream_insertIcSt11char_traitsIcEERSt13basic_ostreamIT_T0_ES6_PKS3_l@PLT
	movq	%rbx, %rdi
	call	_ZSt4endlIcSt11char_traitsIcEERSt13basic_ostreamIT_T0_ES6_@PLT
	leaq	.LC19(%rip), %rsi
	movl	$44, %edx
	movq	%rax, %rdi
	movq	%rax, %rbx
	call	_ZSt16__ostream_insertIcSt11char_traitsIcEERSt13basic_ostreamIT_T0_ES6_PKS3_l@PLT
	movq	%rbx, %rdi
	call	_ZSt4endlIcSt11char_traitsIcEERSt13basic_ostreamIT_T0_ES6_@PLT
	movl	84(%rsp), %eax
	pxor	%xmm0, %xmm0
	pxor	%xmm1, %xmm1
	leaq	.LC24(%rip), %rsi
	leaq	_ZSt4cout(%rip), %rdi
	movl	$13, %edx
	cvtsi2sdq	%rax, %xmm0
	movl	80(%rsp), %eax
	cvtsi2sdq	%rax, %xmm1
	mulsd	%xmm1, %xmm0
	mulsd	.LC23(%rip), %xmm0
	divsd	(%rsp), %xmm0
	movsd	%xmm0, (%rsp)
	call	_ZSt16__ostream_insertIcSt11char_traitsIcEERSt13basic_ostreamIT_T0_ES6_PKS3_l@PLT
	movsd	(%rsp), %xmm0
	leaq	_ZSt4cout(%rip), %rdi
	call	_ZNSo9_M_insertIdEERSoT_@PLT
	leaq	.LC25(%rip), %rsi
	movl	$15, %edx
	movq	%rax, %rdi
	movq	%rax, %rbx
	call	_ZSt16__ostream_insertIcSt11char_traitsIcEERSt13basic_ostreamIT_T0_ES6_PKS3_l@PLT
	movq	%rbx, %rdi
	call	_ZSt4endlIcSt11char_traitsIcEERSt13basic_ostreamIT_T0_ES6_@PLT
	leaq	.LC19(%rip), %rsi
	movl	$44, %edx
	movq	%rax, %rdi
	movq	%rax, %rbx
	call	_ZSt16__ostream_insertIcSt11char_traitsIcEERSt13basic_ostreamIT_T0_ES6_PKS3_l@PLT
	movq	%rbx, %rdi
	call	_ZSt4endlIcSt11char_traitsIcEERSt13basic_ostreamIT_T0_ES6_@PLT
.LEHE38:
	cmpq	$0, 48(%rsp)
	je	.L664
	movq	16(%rsp), %rdi
	call	_ZN3tbb19task_scheduler_init9terminateEv@PLT
.L664:
	testq	%r12, %r12
	je	.L665
	movq	%r12, %rdi
	call	_ZdlPv@PLT
.L665:
	testq	%r13, %r13
	je	.L666
	movq	%r13, %rdi
	call	_ZdlPv@PLT
.L666:
	movq	96(%rsp), %rdi
	testq	%rdi, %rdi
	je	.L667
	call	_ZdlPv@PLT
.L667:
	xorl	%eax, %eax
	movq	216(%rsp), %rcx
	xorq	%fs:40, %rcx
	jne	.L747
	addq	$232, %rsp
	.cfi_remember_state
	.cfi_def_cfa_offset 56
	popq	%rbx
	.cfi_def_cfa_offset 48
	popq	%rbp
	.cfi_def_cfa_offset 40
	popq	%r12
	.cfi_def_cfa_offset 32
	popq	%r13
	.cfi_def_cfa_offset 24
	popq	%r14
	.cfi_def_cfa_offset 16
	popq	%r15
	.cfi_def_cfa_offset 8
	ret
.L677:
	.cfi_restore_state
	xorl	%ebx, %ebx
	xorl	%r12d, %r12d
	jmp	.L652
.L674:
	xorl	%ebx, %ebx
	xorl	%r13d, %r13d
	jmp	.L631
.L679:
	movq	%rax, %rbx
	jmp	.L657
.L744:
	movq	%rax, %rbx
	jmp	.L639
.L746:
	leaq	.LC17(%rip), %rdi
.LEHB39:
	call	_ZSt20__throw_length_errorPKc@PLT
.LEHE39:
.L680:
.L623:
	cmpq	$0, 48(%rsp)
	je	.L669
	movq	16(%rsp), %rdi
	movq	%rax, (%rsp)
	call	_ZN3tbb19task_scheduler_init9terminateEv@PLT
	movq	(%rsp), %rax
.L669:
	testq	%r12, %r12
	movq	%rax, %rbx
	je	.L614
	movq	%r12, %rdi
	call	_ZdlPv@PLT
.L614:
	testq	%r13, %r13
	je	.L671
	movq	%r13, %rdi
	call	_ZdlPv@PLT
.L671:
	movq	96(%rsp), %rdi
	testq	%rdi, %rdi
	je	.L672
	call	_ZdlPv@PLT
.L672:
	movq	%rbx, %rdi
.LEHB40:
	call	_Unwind_Resume@PLT
.LEHE40:
.L694:
	leaq	.LC16(%rip), %rsi
	leaq	_ZSt4cout(%rip), %rdi
	movl	$45, %edx
.LEHB41:
	call	_ZSt16__ostream_insertIcSt11char_traitsIcEERSt13basic_ostreamIT_T0_ES6_PKS3_l@PLT
.LEHE41:
	leaq	_ZSt4cout(%rip), %rdi
.LEHB42:
	call	_ZSt4endlIcSt11char_traitsIcEERSt13basic_ostreamIT_T0_ES6_@PLT
.LEHE42:
	orl	$-1, %edi
	call	exit@PLT
.L743:
	leaq	.LC17(%rip), %rdi
.LEHB43:
	call	_ZSt20__throw_length_errorPKc@PLT
.LEHE43:
.L692:
.L738:
	xorl	%r12d, %r12d
	jmp	.L623
.L747:
	call	__stack_chk_fail@PLT
.L688:
.L739:
	xorl	%r12d, %r12d
	xorl	%r13d, %r13d
	jmp	.L623
.L687:
	jmp	.L739
.L682:
	jmp	.L739
.L691:
	jmp	.L739
.L681:
.L740:
	movq	%rax, %rbx
	jmp	.L671
.L686:
	jmp	.L738
.L685:
	jmp	.L738
.L684:
	jmp	.L738
.L683:
	jmp	.L738
.L689:
	jmp	.L738
.L690:
	jmp	.L738
.L693:
	jmp	.L740
	.cfi_endproc
.LFE5218:
	.section	.gcc_except_table,"a",@progbits
.LLSDA5218:
	.byte	0xff
	.byte	0xff
	.byte	0x1
	.uleb128 .LLSDACSE5218-.LLSDACSB5218
.LLSDACSB5218:
	.uleb128 .LEHB28-.LFB5218
	.uleb128 .LEHE28-.LEHB28
	.uleb128 .L693-.LFB5218
	.uleb128 0
	.uleb128 .LEHB29-.LFB5218
	.uleb128 .LEHE29-.LEHB29
	.uleb128 .L681-.LFB5218
	.uleb128 0
	.uleb128 .LEHB30-.LFB5218
	.uleb128 .LEHE30-.LEHB30
	.uleb128 .L687-.LFB5218
	.uleb128 0
	.uleb128 .LEHB31-.LFB5218
	.uleb128 .LEHE31-.LEHB31
	.uleb128 .L688-.LFB5218
	.uleb128 0
	.uleb128 .LEHB32-.LFB5218
	.uleb128 .LEHE32-.LEHB32
	.uleb128 .L689-.LFB5218
	.uleb128 0
	.uleb128 .LEHB33-.LFB5218
	.uleb128 .LEHE33-.LEHB33
	.uleb128 .L683-.LFB5218
	.uleb128 0
	.uleb128 .LEHB34-.LFB5218
	.uleb128 .LEHE34-.LEHB34
	.uleb128 .L684-.LFB5218
	.uleb128 0
	.uleb128 .LEHB35-.LFB5218
	.uleb128 .LEHE35-.LEHB35
	.uleb128 .L685-.LFB5218
	.uleb128 0
	.uleb128 .LEHB36-.LFB5218
	.uleb128 .LEHE36-.LEHB36
	.uleb128 .L686-.LFB5218
	.uleb128 0
	.uleb128 .LEHB37-.LFB5218
	.uleb128 .LEHE37-.LEHB37
	.uleb128 .L690-.LFB5218
	.uleb128 0
	.uleb128 .LEHB38-.LFB5218
	.uleb128 .LEHE38-.LEHB38
	.uleb128 .L680-.LFB5218
	.uleb128 0
	.uleb128 .LEHB39-.LFB5218
	.uleb128 .LEHE39-.LEHB39
	.uleb128 .L680-.LFB5218
	.uleb128 0
	.uleb128 .LEHB40-.LFB5218
	.uleb128 .LEHE40-.LEHB40
	.uleb128 0
	.uleb128 0
	.uleb128 .LEHB41-.LFB5218
	.uleb128 .LEHE41-.LEHB41
	.uleb128 .L691-.LFB5218
	.uleb128 0
	.uleb128 .LEHB42-.LFB5218
	.uleb128 .LEHE42-.LEHB42
	.uleb128 .L682-.LFB5218
	.uleb128 0
	.uleb128 .LEHB43-.LFB5218
	.uleb128 .LEHE43-.LEHB43
	.uleb128 .L692-.LFB5218
	.uleb128 0
.LLSDACSE5218:
	.section	.text.startup
	.size	main, .-main
	.p2align 4,,15
	.type	_GLOBAL__sub_I_cpus_num, @function
_GLOBAL__sub_I_cpus_num:
.LFB6855:
	.cfi_startproc
	leaq	_ZStL8__ioinit(%rip), %rdi
	subq	$8, %rsp
	.cfi_def_cfa_offset 16
	call	_ZNSt8ios_base4InitC1Ev@PLT
	movq	_ZNSt8ios_base4InitD1Ev@GOTPCREL(%rip), %rdi
	leaq	__dso_handle(%rip), %rdx
	leaq	_ZStL8__ioinit(%rip), %rsi
	call	__cxa_atexit@PLT
	leaq	16+_ZTVN3tbb10interface68internal8ets_baseILNS_18ets_key_usage_typeE1EEE(%rip), %rax
	movq	%rax, local_thread_vars(%rip)
	movq	$0, 8+local_thread_vars(%rip)
	leaq	16+_ZTVN3tbb10interface626enumerable_thread_specificI17thread_local_varsNS_23cache_aligned_allocatorIS2_EELNS_18ets_key_usage_typeE1EEE(%rip), %rax
	movl	$16, %edi
	movq	$0, 16+local_thread_vars(%rip)
	movq	%rax, local_thread_vars(%rip)
	call	_ZN3tbb8internal23allocate_via_handler_v3Em@PLT
	testq	%rax, %rax
	je	.L749
	leaq	16+_ZTVN3tbb10interface68internal13callback_leafI17thread_local_varsNS1_17construct_by_argsIS3_JjEEEEE(%rip), %rcx
	movl	$-1, 8(%rax)
	movq	%rcx, (%rax)
.L749:
	movq	%rax, 24+local_thread_vars(%rip)
	leaq	72+local_thread_vars(%rip), %rax
	movq	$0, 72+local_thread_vars(%rip)
	movq	$0, 80+local_thread_vars(%rip)
	movq	$0, 88+local_thread_vars(%rip)
	leaq	__dso_handle(%rip), %rdx
	movq	$0, 56+local_thread_vars(%rip)
	movq	$0, 48+local_thread_vars(%rip)
	leaq	local_thread_vars(%rip), %rsi
	movq	%rax, 64+local_thread_vars(%rip)
	leaq	_ZN3tbb17concurrent_vectorINS_8internal6paddedINS_10interface68internal11ets_elementI17thread_local_varsEELm128EEENS_23cache_aligned_allocatorIS8_EEE18internal_allocatorERNS1_25concurrent_vector_base_v3Em(%rip), %rax
	leaq	_ZN3tbb10interface626enumerable_thread_specificI17thread_local_varsNS_23cache_aligned_allocatorIS2_EELNS_18ets_key_usage_typeE1EED1Ev(%rip), %rdi
	movq	%rax, 40+local_thread_vars(%rip)
	addq	$8, %rsp
	.cfi_def_cfa_offset 8
	jmp	__cxa_atexit@PLT
	.cfi_endproc
.LFE6855:
	.size	_GLOBAL__sub_I_cpus_num, .-_GLOBAL__sub_I_cpus_num
	.section	.init_array,"aw"
	.align 8
	.quad	_GLOBAL__sub_I_cpus_num
	.weak	_ZTSN3tbb8internal9no_assignE
	.section	.rodata._ZTSN3tbb8internal9no_assignE,"aG",@progbits,_ZTSN3tbb8internal9no_assignE,comdat
	.align 16
	.type	_ZTSN3tbb8internal9no_assignE, @object
	.size	_ZTSN3tbb8internal9no_assignE, 26
_ZTSN3tbb8internal9no_assignE:
	.string	"N3tbb8internal9no_assignE"
	.weak	_ZTIN3tbb8internal9no_assignE
	.section	.data.rel.ro._ZTIN3tbb8internal9no_assignE,"awG",@progbits,_ZTIN3tbb8internal9no_assignE,comdat
	.align 8
	.type	_ZTIN3tbb8internal9no_assignE, @object
	.size	_ZTIN3tbb8internal9no_assignE, 16
_ZTIN3tbb8internal9no_assignE:
	.quad	_ZTVN10__cxxabiv117__class_type_infoE+16
	.quad	_ZTSN3tbb8internal9no_assignE
	.weak	_ZTSN3tbb8internal7no_copyE
	.section	.rodata._ZTSN3tbb8internal7no_copyE,"aG",@progbits,_ZTSN3tbb8internal7no_copyE,comdat
	.align 16
	.type	_ZTSN3tbb8internal7no_copyE, @object
	.size	_ZTSN3tbb8internal7no_copyE, 24
_ZTSN3tbb8internal7no_copyE:
	.string	"N3tbb8internal7no_copyE"
	.weak	_ZTIN3tbb8internal7no_copyE
	.section	.data.rel.ro._ZTIN3tbb8internal7no_copyE,"awG",@progbits,_ZTIN3tbb8internal7no_copyE,comdat
	.align 8
	.type	_ZTIN3tbb8internal7no_copyE, @object
	.size	_ZTIN3tbb8internal7no_copyE, 40
_ZTIN3tbb8internal7no_copyE:
	.quad	_ZTVN10__cxxabiv121__vmi_class_type_infoE+16
	.quad	_ZTSN3tbb8internal7no_copyE
	.long	0
	.long	1
	.quad	_ZTIN3tbb8internal9no_assignE
	.quad	0
	.weak	_ZTSN3tbb10interface68internal17construct_by_argsI17thread_local_varsJjEEE
	.section	.rodata._ZTSN3tbb10interface68internal17construct_by_argsI17thread_local_varsJjEEE,"aG",@progbits,_ZTSN3tbb10interface68internal17construct_by_argsI17thread_local_varsJjEEE,comdat
	.align 32
	.type	_ZTSN3tbb10interface68internal17construct_by_argsI17thread_local_varsJjEEE, @object
	.size	_ZTSN3tbb10interface68internal17construct_by_argsI17thread_local_varsJjEEE, 71
_ZTSN3tbb10interface68internal17construct_by_argsI17thread_local_varsJjEEE:
	.string	"N3tbb10interface68internal17construct_by_argsI17thread_local_varsJjEEE"
	.weak	_ZTIN3tbb10interface68internal17construct_by_argsI17thread_local_varsJjEEE
	.section	.data.rel.ro._ZTIN3tbb10interface68internal17construct_by_argsI17thread_local_varsJjEEE,"awG",@progbits,_ZTIN3tbb10interface68internal17construct_by_argsI17thread_local_varsJjEEE,comdat
	.align 8
	.type	_ZTIN3tbb10interface68internal17construct_by_argsI17thread_local_varsJjEEE, @object
	.size	_ZTIN3tbb10interface68internal17construct_by_argsI17thread_local_varsJjEEE, 24
_ZTIN3tbb10interface68internal17construct_by_argsI17thread_local_varsJjEEE:
	.quad	_ZTVN10__cxxabiv120__si_class_type_infoE+16
	.quad	_ZTSN3tbb10interface68internal17construct_by_argsI17thread_local_varsJjEEE
	.quad	_ZTIN3tbb8internal9no_assignE
	.weak	_ZTSN3tbb10interface68internal8ets_baseILNS_18ets_key_usage_typeE1EEE
	.section	.rodata._ZTSN3tbb10interface68internal8ets_baseILNS_18ets_key_usage_typeE1EEE,"aG",@progbits,_ZTSN3tbb10interface68internal8ets_baseILNS_18ets_key_usage_typeE1EEE,comdat
	.align 32
	.type	_ZTSN3tbb10interface68internal8ets_baseILNS_18ets_key_usage_typeE1EEE, @object
	.size	_ZTSN3tbb10interface68internal8ets_baseILNS_18ets_key_usage_typeE1EEE, 66
_ZTSN3tbb10interface68internal8ets_baseILNS_18ets_key_usage_typeE1EEE:
	.string	"N3tbb10interface68internal8ets_baseILNS_18ets_key_usage_typeE1EEE"
	.weak	_ZTIN3tbb10interface68internal8ets_baseILNS_18ets_key_usage_typeE1EEE
	.section	.data.rel.ro._ZTIN3tbb10interface68internal8ets_baseILNS_18ets_key_usage_typeE1EEE,"awG",@progbits,_ZTIN3tbb10interface68internal8ets_baseILNS_18ets_key_usage_typeE1EEE,comdat
	.align 8
	.type	_ZTIN3tbb10interface68internal8ets_baseILNS_18ets_key_usage_typeE1EEE, @object
	.size	_ZTIN3tbb10interface68internal8ets_baseILNS_18ets_key_usage_typeE1EEE, 40
_ZTIN3tbb10interface68internal8ets_baseILNS_18ets_key_usage_typeE1EEE:
	.quad	_ZTVN10__cxxabiv121__vmi_class_type_infoE+16
	.quad	_ZTSN3tbb10interface68internal8ets_baseILNS_18ets_key_usage_typeE1EEE
	.long	0
	.long	1
	.quad	_ZTIN3tbb8internal7no_copyE
	.quad	0
	.weak	_ZTSN3tbb10interface98internal9flag_taskE
	.section	.rodata._ZTSN3tbb10interface98internal9flag_taskE,"aG",@progbits,_ZTSN3tbb10interface98internal9flag_taskE,comdat
	.align 32
	.type	_ZTSN3tbb10interface98internal9flag_taskE, @object
	.size	_ZTSN3tbb10interface98internal9flag_taskE, 38
_ZTSN3tbb10interface98internal9flag_taskE:
	.string	"N3tbb10interface98internal9flag_taskE"
	.weak	_ZTIN3tbb10interface98internal9flag_taskE
	.section	.data.rel.ro._ZTIN3tbb10interface98internal9flag_taskE,"awG",@progbits,_ZTIN3tbb10interface98internal9flag_taskE,comdat
	.align 8
	.type	_ZTIN3tbb10interface98internal9flag_taskE, @object
	.size	_ZTIN3tbb10interface98internal9flag_taskE, 24
_ZTIN3tbb10interface98internal9flag_taskE:
	.quad	_ZTVN10__cxxabiv120__si_class_type_infoE+16
	.quad	_ZTSN3tbb10interface98internal9flag_taskE
	.quad	_ZTIN3tbb4taskE
	.weak	_ZTSN3tbb10interface626enumerable_thread_specificI17thread_local_varsNS_23cache_aligned_allocatorIS2_EELNS_18ets_key_usage_typeE1EEE
	.section	.rodata._ZTSN3tbb10interface626enumerable_thread_specificI17thread_local_varsNS_23cache_aligned_allocatorIS2_EELNS_18ets_key_usage_typeE1EEE,"aG",@progbits,_ZTSN3tbb10interface626enumerable_thread_specificI17thread_local_varsNS_23cache_aligned_allocatorIS2_EELNS_18ets_key_usage_typeE1EEE,comdat
	.align 32
	.type	_ZTSN3tbb10interface626enumerable_thread_specificI17thread_local_varsNS_23cache_aligned_allocatorIS2_EELNS_18ets_key_usage_typeE1EEE, @object
	.size	_ZTSN3tbb10interface626enumerable_thread_specificI17thread_local_varsNS_23cache_aligned_allocatorIS2_EELNS_18ets_key_usage_typeE1EEE, 129
_ZTSN3tbb10interface626enumerable_thread_specificI17thread_local_varsNS_23cache_aligned_allocatorIS2_EELNS_18ets_key_usage_typeE1EEE:
	.string	"N3tbb10interface626enumerable_thread_specificI17thread_local_varsNS_23cache_aligned_allocatorIS2_EELNS_18ets_key_usage_typeE1EEE"
	.weak	_ZTIN3tbb10interface626enumerable_thread_specificI17thread_local_varsNS_23cache_aligned_allocatorIS2_EELNS_18ets_key_usage_typeE1EEE
	.section	.data.rel.ro._ZTIN3tbb10interface626enumerable_thread_specificI17thread_local_varsNS_23cache_aligned_allocatorIS2_EELNS_18ets_key_usage_typeE1EEE,"awG",@progbits,_ZTIN3tbb10interface626enumerable_thread_specificI17thread_local_varsNS_23cache_aligned_allocatorIS2_EELNS_18ets_key_usage_typeE1EEE,comdat
	.align 8
	.type	_ZTIN3tbb10interface626enumerable_thread_specificI17thread_local_varsNS_23cache_aligned_allocatorIS2_EELNS_18ets_key_usage_typeE1EEE, @object
	.size	_ZTIN3tbb10interface626enumerable_thread_specificI17thread_local_varsNS_23cache_aligned_allocatorIS2_EELNS_18ets_key_usage_typeE1EEE, 40
_ZTIN3tbb10interface626enumerable_thread_specificI17thread_local_varsNS_23cache_aligned_allocatorIS2_EELNS_18ets_key_usage_typeE1EEE:
	.quad	_ZTVN10__cxxabiv121__vmi_class_type_infoE+16
	.quad	_ZTSN3tbb10interface626enumerable_thread_specificI17thread_local_varsNS_23cache_aligned_allocatorIS2_EELNS_18ets_key_usage_typeE1EEE
	.long	0
	.long	1
	.quad	_ZTIN3tbb10interface68internal8ets_baseILNS_18ets_key_usage_typeE1EEE
	.quad	0
	.weak	_ZTSN3tbb10interface68internal13callback_baseI17thread_local_varsEE
	.section	.rodata._ZTSN3tbb10interface68internal13callback_baseI17thread_local_varsEE,"aG",@progbits,_ZTSN3tbb10interface68internal13callback_baseI17thread_local_varsEE,comdat
	.align 32
	.type	_ZTSN3tbb10interface68internal13callback_baseI17thread_local_varsEE, @object
	.size	_ZTSN3tbb10interface68internal13callback_baseI17thread_local_varsEE, 64
_ZTSN3tbb10interface68internal13callback_baseI17thread_local_varsEE:
	.string	"N3tbb10interface68internal13callback_baseI17thread_local_varsEE"
	.weak	_ZTIN3tbb10interface68internal13callback_baseI17thread_local_varsEE
	.section	.data.rel.ro._ZTIN3tbb10interface68internal13callback_baseI17thread_local_varsEE,"awG",@progbits,_ZTIN3tbb10interface68internal13callback_baseI17thread_local_varsEE,comdat
	.align 8
	.type	_ZTIN3tbb10interface68internal13callback_baseI17thread_local_varsEE, @object
	.size	_ZTIN3tbb10interface68internal13callback_baseI17thread_local_varsEE, 16
_ZTIN3tbb10interface68internal13callback_baseI17thread_local_varsEE:
	.quad	_ZTVN10__cxxabiv117__class_type_infoE+16
	.quad	_ZTSN3tbb10interface68internal13callback_baseI17thread_local_varsEE
	.weak	_ZTSN3tbb10interface68internal13callback_leafI17thread_local_varsNS1_17construct_by_argsIS3_JjEEEEE
	.section	.rodata._ZTSN3tbb10interface68internal13callback_leafI17thread_local_varsNS1_17construct_by_argsIS3_JjEEEEE,"aG",@progbits,_ZTSN3tbb10interface68internal13callback_leafI17thread_local_varsNS1_17construct_by_argsIS3_JjEEEEE,comdat
	.align 32
	.type	_ZTSN3tbb10interface68internal13callback_leafI17thread_local_varsNS1_17construct_by_argsIS3_JjEEEEE, @object
	.size	_ZTSN3tbb10interface68internal13callback_leafI17thread_local_varsNS1_17construct_by_argsIS3_JjEEEEE, 96
_ZTSN3tbb10interface68internal13callback_leafI17thread_local_varsNS1_17construct_by_argsIS3_JjEEEEE:
	.string	"N3tbb10interface68internal13callback_leafI17thread_local_varsNS1_17construct_by_argsIS3_JjEEEEE"
	.weak	_ZTIN3tbb10interface68internal13callback_leafI17thread_local_varsNS1_17construct_by_argsIS3_JjEEEEE
	.section	.data.rel.ro._ZTIN3tbb10interface68internal13callback_leafI17thread_local_varsNS1_17construct_by_argsIS3_JjEEEEE,"awG",@progbits,_ZTIN3tbb10interface68internal13callback_leafI17thread_local_varsNS1_17construct_by_argsIS3_JjEEEEE,comdat
	.align 8
	.type	_ZTIN3tbb10interface68internal13callback_leafI17thread_local_varsNS1_17construct_by_argsIS3_JjEEEEE, @object
	.size	_ZTIN3tbb10interface68internal13callback_leafI17thread_local_varsNS1_17construct_by_argsIS3_JjEEEEE, 56
_ZTIN3tbb10interface68internal13callback_leafI17thread_local_varsNS1_17construct_by_argsIS3_JjEEEEE:
	.quad	_ZTVN10__cxxabiv121__vmi_class_type_infoE+16
	.quad	_ZTSN3tbb10interface68internal13callback_leafI17thread_local_varsNS1_17construct_by_argsIS3_JjEEEEE
	.long	0
	.long	2
	.quad	_ZTIN3tbb10interface68internal13callback_baseI17thread_local_varsEE
	.quad	2
	.quad	_ZTIN3tbb10interface68internal17construct_by_argsI17thread_local_varsJjEEE
	.quad	2048
	.weak	_ZTSN3tbb10interface98internal9start_forINS_13blocked_rangeIN9__gnu_cxx17__normal_iteratorIP9init_taskSt6vectorIS6_SaIS6_EEEEEENS_8internal26parallel_for_each_body_forI7invokerIS6_ESB_EEKNS_16auto_partitionerEEE
	.section	.rodata._ZTSN3tbb10interface98internal9start_forINS_13blocked_rangeIN9__gnu_cxx17__normal_iteratorIP9init_taskSt6vectorIS6_SaIS6_EEEEEENS_8internal26parallel_for_each_body_forI7invokerIS6_ESB_EEKNS_16auto_partitionerEEE,"aG",@progbits,_ZTSN3tbb10interface98internal9start_forINS_13blocked_rangeIN9__gnu_cxx17__normal_iteratorIP9init_taskSt6vectorIS6_SaIS6_EEEEEENS_8internal26parallel_for_each_body_forI7invokerIS6_ESB_EEKNS_16auto_partitionerEEE,comdat
	.align 32
	.type	_ZTSN3tbb10interface98internal9start_forINS_13blocked_rangeIN9__gnu_cxx17__normal_iteratorIP9init_taskSt6vectorIS6_SaIS6_EEEEEENS_8internal26parallel_for_each_body_forI7invokerIS6_ESB_EEKNS_16auto_partitionerEEE, @object
	.size	_ZTSN3tbb10interface98internal9start_forINS_13blocked_rangeIN9__gnu_cxx17__normal_iteratorIP9init_taskSt6vectorIS6_SaIS6_EEEEEENS_8internal26parallel_for_each_body_forI7invokerIS6_ESB_EEKNS_16auto_partitionerEEE, 208
_ZTSN3tbb10interface98internal9start_forINS_13blocked_rangeIN9__gnu_cxx17__normal_iteratorIP9init_taskSt6vectorIS6_SaIS6_EEEEEENS_8internal26parallel_for_each_body_forI7invokerIS6_ESB_EEKNS_16auto_partitionerEEE:
	.string	"N3tbb10interface98internal9start_forINS_13blocked_rangeIN9__gnu_cxx17__normal_iteratorIP9init_taskSt6vectorIS6_SaIS6_EEEEEENS_8internal26parallel_for_each_body_forI7invokerIS6_ESB_EEKNS_16auto_partitionerEEE"
	.weak	_ZTIN3tbb10interface98internal9start_forINS_13blocked_rangeIN9__gnu_cxx17__normal_iteratorIP9init_taskSt6vectorIS6_SaIS6_EEEEEENS_8internal26parallel_for_each_body_forI7invokerIS6_ESB_EEKNS_16auto_partitionerEEE
	.section	.data.rel.ro._ZTIN3tbb10interface98internal9start_forINS_13blocked_rangeIN9__gnu_cxx17__normal_iteratorIP9init_taskSt6vectorIS6_SaIS6_EEEEEENS_8internal26parallel_for_each_body_forI7invokerIS6_ESB_EEKNS_16auto_partitionerEEE,"awG",@progbits,_ZTIN3tbb10interface98internal9start_forINS_13blocked_rangeIN9__gnu_cxx17__normal_iteratorIP9init_taskSt6vectorIS6_SaIS6_EEEEEENS_8internal26parallel_for_each_body_forI7invokerIS6_ESB_EEKNS_16auto_partitionerEEE,comdat
	.align 8
	.type	_ZTIN3tbb10interface98internal9start_forINS_13blocked_rangeIN9__gnu_cxx17__normal_iteratorIP9init_taskSt6vectorIS6_SaIS6_EEEEEENS_8internal26parallel_for_each_body_forI7invokerIS6_ESB_EEKNS_16auto_partitionerEEE, @object
	.size	_ZTIN3tbb10interface98internal9start_forINS_13blocked_rangeIN9__gnu_cxx17__normal_iteratorIP9init_taskSt6vectorIS6_SaIS6_EEEEEENS_8internal26parallel_for_each_body_forI7invokerIS6_ESB_EEKNS_16auto_partitionerEEE, 24
_ZTIN3tbb10interface98internal9start_forINS_13blocked_rangeIN9__gnu_cxx17__normal_iteratorIP9init_taskSt6vectorIS6_SaIS6_EEEEEENS_8internal26parallel_for_each_body_forI7invokerIS6_ESB_EEKNS_16auto_partitionerEEE:
	.quad	_ZTVN10__cxxabiv120__si_class_type_infoE+16
	.quad	_ZTSN3tbb10interface98internal9start_forINS_13blocked_rangeIN9__gnu_cxx17__normal_iteratorIP9init_taskSt6vectorIS6_SaIS6_EEEEEENS_8internal26parallel_for_each_body_forI7invokerIS6_ESB_EEKNS_16auto_partitionerEEE
	.quad	_ZTIN3tbb4taskE
	.weak	_ZTSN3tbb10interface98internal9start_forINS_13blocked_rangeIN9__gnu_cxx17__normal_iteratorIP11access_taskSt6vectorIS6_SaIS6_EEEEEENS_8internal26parallel_for_each_body_forI7invokerIS6_ESB_EEKNS_16auto_partitionerEEE
	.section	.rodata._ZTSN3tbb10interface98internal9start_forINS_13blocked_rangeIN9__gnu_cxx17__normal_iteratorIP11access_taskSt6vectorIS6_SaIS6_EEEEEENS_8internal26parallel_for_each_body_forI7invokerIS6_ESB_EEKNS_16auto_partitionerEEE,"aG",@progbits,_ZTSN3tbb10interface98internal9start_forINS_13blocked_rangeIN9__gnu_cxx17__normal_iteratorIP11access_taskSt6vectorIS6_SaIS6_EEEEEENS_8internal26parallel_for_each_body_forI7invokerIS6_ESB_EEKNS_16auto_partitionerEEE,comdat
	.align 32
	.type	_ZTSN3tbb10interface98internal9start_forINS_13blocked_rangeIN9__gnu_cxx17__normal_iteratorIP11access_taskSt6vectorIS6_SaIS6_EEEEEENS_8internal26parallel_for_each_body_forI7invokerIS6_ESB_EEKNS_16auto_partitionerEEE, @object
	.size	_ZTSN3tbb10interface98internal9start_forINS_13blocked_rangeIN9__gnu_cxx17__normal_iteratorIP11access_taskSt6vectorIS6_SaIS6_EEEEEENS_8internal26parallel_for_each_body_forI7invokerIS6_ESB_EEKNS_16auto_partitionerEEE, 211
_ZTSN3tbb10interface98internal9start_forINS_13blocked_rangeIN9__gnu_cxx17__normal_iteratorIP11access_taskSt6vectorIS6_SaIS6_EEEEEENS_8internal26parallel_for_each_body_forI7invokerIS6_ESB_EEKNS_16auto_partitionerEEE:
	.string	"N3tbb10interface98internal9start_forINS_13blocked_rangeIN9__gnu_cxx17__normal_iteratorIP11access_taskSt6vectorIS6_SaIS6_EEEEEENS_8internal26parallel_for_each_body_forI7invokerIS6_ESB_EEKNS_16auto_partitionerEEE"
	.weak	_ZTIN3tbb10interface98internal9start_forINS_13blocked_rangeIN9__gnu_cxx17__normal_iteratorIP11access_taskSt6vectorIS6_SaIS6_EEEEEENS_8internal26parallel_for_each_body_forI7invokerIS6_ESB_EEKNS_16auto_partitionerEEE
	.section	.data.rel.ro._ZTIN3tbb10interface98internal9start_forINS_13blocked_rangeIN9__gnu_cxx17__normal_iteratorIP11access_taskSt6vectorIS6_SaIS6_EEEEEENS_8internal26parallel_for_each_body_forI7invokerIS6_ESB_EEKNS_16auto_partitionerEEE,"awG",@progbits,_ZTIN3tbb10interface98internal9start_forINS_13blocked_rangeIN9__gnu_cxx17__normal_iteratorIP11access_taskSt6vectorIS6_SaIS6_EEEEEENS_8internal26parallel_for_each_body_forI7invokerIS6_ESB_EEKNS_16auto_partitionerEEE,comdat
	.align 8
	.type	_ZTIN3tbb10interface98internal9start_forINS_13blocked_rangeIN9__gnu_cxx17__normal_iteratorIP11access_taskSt6vectorIS6_SaIS6_EEEEEENS_8internal26parallel_for_each_body_forI7invokerIS6_ESB_EEKNS_16auto_partitionerEEE, @object
	.size	_ZTIN3tbb10interface98internal9start_forINS_13blocked_rangeIN9__gnu_cxx17__normal_iteratorIP11access_taskSt6vectorIS6_SaIS6_EEEEEENS_8internal26parallel_for_each_body_forI7invokerIS6_ESB_EEKNS_16auto_partitionerEEE, 24
_ZTIN3tbb10interface98internal9start_forINS_13blocked_rangeIN9__gnu_cxx17__normal_iteratorIP11access_taskSt6vectorIS6_SaIS6_EEEEEENS_8internal26parallel_for_each_body_forI7invokerIS6_ESB_EEKNS_16auto_partitionerEEE:
	.quad	_ZTVN10__cxxabiv120__si_class_type_infoE+16
	.quad	_ZTSN3tbb10interface98internal9start_forINS_13blocked_rangeIN9__gnu_cxx17__normal_iteratorIP11access_taskSt6vectorIS6_SaIS6_EEEEEENS_8internal26parallel_for_each_body_forI7invokerIS6_ESB_EEKNS_16auto_partitionerEEE
	.quad	_ZTIN3tbb4taskE
	.weak	_ZTSN3tbb10interface98internal9start_forINS_13blocked_rangeIN9__gnu_cxx17__normal_iteratorIP14tear_down_taskSt6vectorIS6_SaIS6_EEEEEENS_8internal26parallel_for_each_body_forI7invokerIS6_ESB_EEKNS_16auto_partitionerEEE
	.section	.rodata._ZTSN3tbb10interface98internal9start_forINS_13blocked_rangeIN9__gnu_cxx17__normal_iteratorIP14tear_down_taskSt6vectorIS6_SaIS6_EEEEEENS_8internal26parallel_for_each_body_forI7invokerIS6_ESB_EEKNS_16auto_partitionerEEE,"aG",@progbits,_ZTSN3tbb10interface98internal9start_forINS_13blocked_rangeIN9__gnu_cxx17__normal_iteratorIP14tear_down_taskSt6vectorIS6_SaIS6_EEEEEENS_8internal26parallel_for_each_body_forI7invokerIS6_ESB_EEKNS_16auto_partitionerEEE,comdat
	.align 32
	.type	_ZTSN3tbb10interface98internal9start_forINS_13blocked_rangeIN9__gnu_cxx17__normal_iteratorIP14tear_down_taskSt6vectorIS6_SaIS6_EEEEEENS_8internal26parallel_for_each_body_forI7invokerIS6_ESB_EEKNS_16auto_partitionerEEE, @object
	.size	_ZTSN3tbb10interface98internal9start_forINS_13blocked_rangeIN9__gnu_cxx17__normal_iteratorIP14tear_down_taskSt6vectorIS6_SaIS6_EEEEEENS_8internal26parallel_for_each_body_forI7invokerIS6_ESB_EEKNS_16auto_partitionerEEE, 214
_ZTSN3tbb10interface98internal9start_forINS_13blocked_rangeIN9__gnu_cxx17__normal_iteratorIP14tear_down_taskSt6vectorIS6_SaIS6_EEEEEENS_8internal26parallel_for_each_body_forI7invokerIS6_ESB_EEKNS_16auto_partitionerEEE:
	.string	"N3tbb10interface98internal9start_forINS_13blocked_rangeIN9__gnu_cxx17__normal_iteratorIP14tear_down_taskSt6vectorIS6_SaIS6_EEEEEENS_8internal26parallel_for_each_body_forI7invokerIS6_ESB_EEKNS_16auto_partitionerEEE"
	.weak	_ZTIN3tbb10interface98internal9start_forINS_13blocked_rangeIN9__gnu_cxx17__normal_iteratorIP14tear_down_taskSt6vectorIS6_SaIS6_EEEEEENS_8internal26parallel_for_each_body_forI7invokerIS6_ESB_EEKNS_16auto_partitionerEEE
	.section	.data.rel.ro._ZTIN3tbb10interface98internal9start_forINS_13blocked_rangeIN9__gnu_cxx17__normal_iteratorIP14tear_down_taskSt6vectorIS6_SaIS6_EEEEEENS_8internal26parallel_for_each_body_forI7invokerIS6_ESB_EEKNS_16auto_partitionerEEE,"awG",@progbits,_ZTIN3tbb10interface98internal9start_forINS_13blocked_rangeIN9__gnu_cxx17__normal_iteratorIP14tear_down_taskSt6vectorIS6_SaIS6_EEEEEENS_8internal26parallel_for_each_body_forI7invokerIS6_ESB_EEKNS_16auto_partitionerEEE,comdat
	.align 8
	.type	_ZTIN3tbb10interface98internal9start_forINS_13blocked_rangeIN9__gnu_cxx17__normal_iteratorIP14tear_down_taskSt6vectorIS6_SaIS6_EEEEEENS_8internal26parallel_for_each_body_forI7invokerIS6_ESB_EEKNS_16auto_partitionerEEE, @object
	.size	_ZTIN3tbb10interface98internal9start_forINS_13blocked_rangeIN9__gnu_cxx17__normal_iteratorIP14tear_down_taskSt6vectorIS6_SaIS6_EEEEEENS_8internal26parallel_for_each_body_forI7invokerIS6_ESB_EEKNS_16auto_partitionerEEE, 24
_ZTIN3tbb10interface98internal9start_forINS_13blocked_rangeIN9__gnu_cxx17__normal_iteratorIP14tear_down_taskSt6vectorIS6_SaIS6_EEEEEENS_8internal26parallel_for_each_body_forI7invokerIS6_ESB_EEKNS_16auto_partitionerEEE:
	.quad	_ZTVN10__cxxabiv120__si_class_type_infoE+16
	.quad	_ZTSN3tbb10interface98internal9start_forINS_13blocked_rangeIN9__gnu_cxx17__normal_iteratorIP14tear_down_taskSt6vectorIS6_SaIS6_EEEEEENS_8internal26parallel_for_each_body_forI7invokerIS6_ESB_EEKNS_16auto_partitionerEEE
	.quad	_ZTIN3tbb4taskE
	.weak	_ZTVN3tbb10interface68internal8ets_baseILNS_18ets_key_usage_typeE1EEE
	.section	.data.rel.ro._ZTVN3tbb10interface68internal8ets_baseILNS_18ets_key_usage_typeE1EEE,"awG",@progbits,_ZTVN3tbb10interface68internal8ets_baseILNS_18ets_key_usage_typeE1EEE,comdat
	.align 8
	.type	_ZTVN3tbb10interface68internal8ets_baseILNS_18ets_key_usage_typeE1EEE, @object
	.size	_ZTVN3tbb10interface68internal8ets_baseILNS_18ets_key_usage_typeE1EEE, 56
_ZTVN3tbb10interface68internal8ets_baseILNS_18ets_key_usage_typeE1EEE:
	.quad	0
	.quad	_ZTIN3tbb10interface68internal8ets_baseILNS_18ets_key_usage_typeE1EEE
	.quad	__cxa_pure_virtual
	.quad	__cxa_pure_virtual
	.quad	__cxa_pure_virtual
	.quad	0
	.quad	0
	.weak	_ZTVN3tbb10interface98internal9flag_taskE
	.section	.data.rel.ro._ZTVN3tbb10interface98internal9flag_taskE,"awG",@progbits,_ZTVN3tbb10interface98internal9flag_taskE,comdat
	.align 8
	.type	_ZTVN3tbb10interface98internal9flag_taskE, @object
	.size	_ZTVN3tbb10interface98internal9flag_taskE, 48
_ZTVN3tbb10interface98internal9flag_taskE:
	.quad	0
	.quad	_ZTIN3tbb10interface98internal9flag_taskE
	.quad	_ZN3tbb10interface98internal9flag_taskD1Ev
	.quad	_ZN3tbb10interface98internal9flag_taskD0Ev
	.quad	_ZN3tbb10interface98internal9flag_task7executeEv
	.quad	_ZN3tbb4task13note_affinityEt
	.weak	_ZTVN3tbb10interface626enumerable_thread_specificI17thread_local_varsNS_23cache_aligned_allocatorIS2_EELNS_18ets_key_usage_typeE1EEE
	.section	.data.rel.ro.local._ZTVN3tbb10interface626enumerable_thread_specificI17thread_local_varsNS_23cache_aligned_allocatorIS2_EELNS_18ets_key_usage_typeE1EEE,"awG",@progbits,_ZTVN3tbb10interface626enumerable_thread_specificI17thread_local_varsNS_23cache_aligned_allocatorIS2_EELNS_18ets_key_usage_typeE1EEE,comdat
	.align 8
	.type	_ZTVN3tbb10interface626enumerable_thread_specificI17thread_local_varsNS_23cache_aligned_allocatorIS2_EELNS_18ets_key_usage_typeE1EEE, @object
	.size	_ZTVN3tbb10interface626enumerable_thread_specificI17thread_local_varsNS_23cache_aligned_allocatorIS2_EELNS_18ets_key_usage_typeE1EEE, 56
_ZTVN3tbb10interface626enumerable_thread_specificI17thread_local_varsNS_23cache_aligned_allocatorIS2_EELNS_18ets_key_usage_typeE1EEE:
	.quad	0
	.quad	_ZTIN3tbb10interface626enumerable_thread_specificI17thread_local_varsNS_23cache_aligned_allocatorIS2_EELNS_18ets_key_usage_typeE1EEE
	.quad	_ZN3tbb10interface626enumerable_thread_specificI17thread_local_varsNS_23cache_aligned_allocatorIS2_EELNS_18ets_key_usage_typeE1EE12create_localEv
	.quad	_ZN3tbb10interface626enumerable_thread_specificI17thread_local_varsNS_23cache_aligned_allocatorIS2_EELNS_18ets_key_usage_typeE1EE12create_arrayEm
	.quad	_ZN3tbb10interface626enumerable_thread_specificI17thread_local_varsNS_23cache_aligned_allocatorIS2_EELNS_18ets_key_usage_typeE1EE10free_arrayEPvm
	.quad	_ZN3tbb10interface626enumerable_thread_specificI17thread_local_varsNS_23cache_aligned_allocatorIS2_EELNS_18ets_key_usage_typeE1EED1Ev
	.quad	_ZN3tbb10interface626enumerable_thread_specificI17thread_local_varsNS_23cache_aligned_allocatorIS2_EELNS_18ets_key_usage_typeE1EED0Ev
	.weak	_ZTVN3tbb10interface68internal13callback_leafI17thread_local_varsNS1_17construct_by_argsIS3_JjEEEEE
	.section	.data.rel.ro.local._ZTVN3tbb10interface68internal13callback_leafI17thread_local_varsNS1_17construct_by_argsIS3_JjEEEEE,"awG",@progbits,_ZTVN3tbb10interface68internal13callback_leafI17thread_local_varsNS1_17construct_by_argsIS3_JjEEEEE,comdat
	.align 8
	.type	_ZTVN3tbb10interface68internal13callback_leafI17thread_local_varsNS1_17construct_by_argsIS3_JjEEEEE, @object
	.size	_ZTVN3tbb10interface68internal13callback_leafI17thread_local_varsNS1_17construct_by_argsIS3_JjEEEEE, 56
_ZTVN3tbb10interface68internal13callback_leafI17thread_local_varsNS1_17construct_by_argsIS3_JjEEEEE:
	.quad	0
	.quad	_ZTIN3tbb10interface68internal13callback_leafI17thread_local_varsNS1_17construct_by_argsIS3_JjEEEEE
	.quad	_ZNK3tbb10interface68internal13callback_leafI17thread_local_varsNS1_17construct_by_argsIS3_JjEEEE5cloneEv
	.quad	_ZN3tbb10interface68internal13callback_leafI17thread_local_varsNS1_17construct_by_argsIS3_JjEEEE7destroyEv
	.quad	_ZN3tbb10interface68internal13callback_leafI17thread_local_varsNS1_17construct_by_argsIS3_JjEEEED1Ev
	.quad	_ZN3tbb10interface68internal13callback_leafI17thread_local_varsNS1_17construct_by_argsIS3_JjEEEED0Ev
	.quad	_ZN3tbb10interface68internal13callback_leafI17thread_local_varsNS1_17construct_by_argsIS3_JjEEEE9constructEPv
	.weak	_ZTVN3tbb10interface98internal9start_forINS_13blocked_rangeIN9__gnu_cxx17__normal_iteratorIP9init_taskSt6vectorIS6_SaIS6_EEEEEENS_8internal26parallel_for_each_body_forI7invokerIS6_ESB_EEKNS_16auto_partitionerEEE
	.section	.data.rel.ro.local._ZTVN3tbb10interface98internal9start_forINS_13blocked_rangeIN9__gnu_cxx17__normal_iteratorIP9init_taskSt6vectorIS6_SaIS6_EEEEEENS_8internal26parallel_for_each_body_forI7invokerIS6_ESB_EEKNS_16auto_partitionerEEE,"awG",@progbits,_ZTVN3tbb10interface98internal9start_forINS_13blocked_rangeIN9__gnu_cxx17__normal_iteratorIP9init_taskSt6vectorIS6_SaIS6_EEEEEENS_8internal26parallel_for_each_body_forI7invokerIS6_ESB_EEKNS_16auto_partitionerEEE,comdat
	.align 8
	.type	_ZTVN3tbb10interface98internal9start_forINS_13blocked_rangeIN9__gnu_cxx17__normal_iteratorIP9init_taskSt6vectorIS6_SaIS6_EEEEEENS_8internal26parallel_for_each_body_forI7invokerIS6_ESB_EEKNS_16auto_partitionerEEE, @object
	.size	_ZTVN3tbb10interface98internal9start_forINS_13blocked_rangeIN9__gnu_cxx17__normal_iteratorIP9init_taskSt6vectorIS6_SaIS6_EEEEEENS_8internal26parallel_for_each_body_forI7invokerIS6_ESB_EEKNS_16auto_partitionerEEE, 48
_ZTVN3tbb10interface98internal9start_forINS_13blocked_rangeIN9__gnu_cxx17__normal_iteratorIP9init_taskSt6vectorIS6_SaIS6_EEEEEENS_8internal26parallel_for_each_body_forI7invokerIS6_ESB_EEKNS_16auto_partitionerEEE:
	.quad	0
	.quad	_ZTIN3tbb10interface98internal9start_forINS_13blocked_rangeIN9__gnu_cxx17__normal_iteratorIP9init_taskSt6vectorIS6_SaIS6_EEEEEENS_8internal26parallel_for_each_body_forI7invokerIS6_ESB_EEKNS_16auto_partitionerEEE
	.quad	_ZN3tbb10interface98internal9start_forINS_13blocked_rangeIN9__gnu_cxx17__normal_iteratorIP9init_taskSt6vectorIS6_SaIS6_EEEEEENS_8internal26parallel_for_each_body_forI7invokerIS6_ESB_EEKNS_16auto_partitionerEED1Ev
	.quad	_ZN3tbb10interface98internal9start_forINS_13blocked_rangeIN9__gnu_cxx17__normal_iteratorIP9init_taskSt6vectorIS6_SaIS6_EEEEEENS_8internal26parallel_for_each_body_forI7invokerIS6_ESB_EEKNS_16auto_partitionerEED0Ev
	.quad	_ZN3tbb10interface98internal9start_forINS_13blocked_rangeIN9__gnu_cxx17__normal_iteratorIP9init_taskSt6vectorIS6_SaIS6_EEEEEENS_8internal26parallel_for_each_body_forI7invokerIS6_ESB_EEKNS_16auto_partitionerEE7executeEv
	.quad	_ZN3tbb10interface98internal9start_forINS_13blocked_rangeIN9__gnu_cxx17__normal_iteratorIP9init_taskSt6vectorIS6_SaIS6_EEEEEENS_8internal26parallel_for_each_body_forI7invokerIS6_ESB_EEKNS_16auto_partitionerEE13note_affinityEt
	.weak	_ZTVN3tbb10interface98internal9start_forINS_13blocked_rangeIN9__gnu_cxx17__normal_iteratorIP11access_taskSt6vectorIS6_SaIS6_EEEEEENS_8internal26parallel_for_each_body_forI7invokerIS6_ESB_EEKNS_16auto_partitionerEEE
	.section	.data.rel.ro.local._ZTVN3tbb10interface98internal9start_forINS_13blocked_rangeIN9__gnu_cxx17__normal_iteratorIP11access_taskSt6vectorIS6_SaIS6_EEEEEENS_8internal26parallel_for_each_body_forI7invokerIS6_ESB_EEKNS_16auto_partitionerEEE,"awG",@progbits,_ZTVN3tbb10interface98internal9start_forINS_13blocked_rangeIN9__gnu_cxx17__normal_iteratorIP11access_taskSt6vectorIS6_SaIS6_EEEEEENS_8internal26parallel_for_each_body_forI7invokerIS6_ESB_EEKNS_16auto_partitionerEEE,comdat
	.align 8
	.type	_ZTVN3tbb10interface98internal9start_forINS_13blocked_rangeIN9__gnu_cxx17__normal_iteratorIP11access_taskSt6vectorIS6_SaIS6_EEEEEENS_8internal26parallel_for_each_body_forI7invokerIS6_ESB_EEKNS_16auto_partitionerEEE, @object
	.size	_ZTVN3tbb10interface98internal9start_forINS_13blocked_rangeIN9__gnu_cxx17__normal_iteratorIP11access_taskSt6vectorIS6_SaIS6_EEEEEENS_8internal26parallel_for_each_body_forI7invokerIS6_ESB_EEKNS_16auto_partitionerEEE, 48
_ZTVN3tbb10interface98internal9start_forINS_13blocked_rangeIN9__gnu_cxx17__normal_iteratorIP11access_taskSt6vectorIS6_SaIS6_EEEEEENS_8internal26parallel_for_each_body_forI7invokerIS6_ESB_EEKNS_16auto_partitionerEEE:
	.quad	0
	.quad	_ZTIN3tbb10interface98internal9start_forINS_13blocked_rangeIN9__gnu_cxx17__normal_iteratorIP11access_taskSt6vectorIS6_SaIS6_EEEEEENS_8internal26parallel_for_each_body_forI7invokerIS6_ESB_EEKNS_16auto_partitionerEEE
	.quad	_ZN3tbb10interface98internal9start_forINS_13blocked_rangeIN9__gnu_cxx17__normal_iteratorIP11access_taskSt6vectorIS6_SaIS6_EEEEEENS_8internal26parallel_for_each_body_forI7invokerIS6_ESB_EEKNS_16auto_partitionerEED1Ev
	.quad	_ZN3tbb10interface98internal9start_forINS_13blocked_rangeIN9__gnu_cxx17__normal_iteratorIP11access_taskSt6vectorIS6_SaIS6_EEEEEENS_8internal26parallel_for_each_body_forI7invokerIS6_ESB_EEKNS_16auto_partitionerEED0Ev
	.quad	_ZN3tbb10interface98internal9start_forINS_13blocked_rangeIN9__gnu_cxx17__normal_iteratorIP11access_taskSt6vectorIS6_SaIS6_EEEEEENS_8internal26parallel_for_each_body_forI7invokerIS6_ESB_EEKNS_16auto_partitionerEE7executeEv
	.quad	_ZN3tbb10interface98internal9start_forINS_13blocked_rangeIN9__gnu_cxx17__normal_iteratorIP11access_taskSt6vectorIS6_SaIS6_EEEEEENS_8internal26parallel_for_each_body_forI7invokerIS6_ESB_EEKNS_16auto_partitionerEE13note_affinityEt
	.weak	_ZTVN3tbb10interface98internal9start_forINS_13blocked_rangeIN9__gnu_cxx17__normal_iteratorIP14tear_down_taskSt6vectorIS6_SaIS6_EEEEEENS_8internal26parallel_for_each_body_forI7invokerIS6_ESB_EEKNS_16auto_partitionerEEE
	.section	.data.rel.ro.local._ZTVN3tbb10interface98internal9start_forINS_13blocked_rangeIN9__gnu_cxx17__normal_iteratorIP14tear_down_taskSt6vectorIS6_SaIS6_EEEEEENS_8internal26parallel_for_each_body_forI7invokerIS6_ESB_EEKNS_16auto_partitionerEEE,"awG",@progbits,_ZTVN3tbb10interface98internal9start_forINS_13blocked_rangeIN9__gnu_cxx17__normal_iteratorIP14tear_down_taskSt6vectorIS6_SaIS6_EEEEEENS_8internal26parallel_for_each_body_forI7invokerIS6_ESB_EEKNS_16auto_partitionerEEE,comdat
	.align 8
	.type	_ZTVN3tbb10interface98internal9start_forINS_13blocked_rangeIN9__gnu_cxx17__normal_iteratorIP14tear_down_taskSt6vectorIS6_SaIS6_EEEEEENS_8internal26parallel_for_each_body_forI7invokerIS6_ESB_EEKNS_16auto_partitionerEEE, @object
	.size	_ZTVN3tbb10interface98internal9start_forINS_13blocked_rangeIN9__gnu_cxx17__normal_iteratorIP14tear_down_taskSt6vectorIS6_SaIS6_EEEEEENS_8internal26parallel_for_each_body_forI7invokerIS6_ESB_EEKNS_16auto_partitionerEEE, 48
_ZTVN3tbb10interface98internal9start_forINS_13blocked_rangeIN9__gnu_cxx17__normal_iteratorIP14tear_down_taskSt6vectorIS6_SaIS6_EEEEEENS_8internal26parallel_for_each_body_forI7invokerIS6_ESB_EEKNS_16auto_partitionerEEE:
	.quad	0
	.quad	_ZTIN3tbb10interface98internal9start_forINS_13blocked_rangeIN9__gnu_cxx17__normal_iteratorIP14tear_down_taskSt6vectorIS6_SaIS6_EEEEEENS_8internal26parallel_for_each_body_forI7invokerIS6_ESB_EEKNS_16auto_partitionerEEE
	.quad	_ZN3tbb10interface98internal9start_forINS_13blocked_rangeIN9__gnu_cxx17__normal_iteratorIP14tear_down_taskSt6vectorIS6_SaIS6_EEEEEENS_8internal26parallel_for_each_body_forI7invokerIS6_ESB_EEKNS_16auto_partitionerEED1Ev
	.quad	_ZN3tbb10interface98internal9start_forINS_13blocked_rangeIN9__gnu_cxx17__normal_iteratorIP14tear_down_taskSt6vectorIS6_SaIS6_EEEEEENS_8internal26parallel_for_each_body_forI7invokerIS6_ESB_EEKNS_16auto_partitionerEED0Ev
	.quad	_ZN3tbb10interface98internal9start_forINS_13blocked_rangeIN9__gnu_cxx17__normal_iteratorIP14tear_down_taskSt6vectorIS6_SaIS6_EEEEEENS_8internal26parallel_for_each_body_forI7invokerIS6_ESB_EEKNS_16auto_partitionerEE7executeEv
	.quad	_ZN3tbb10interface98internal9start_forINS_13blocked_rangeIN9__gnu_cxx17__normal_iteratorIP14tear_down_taskSt6vectorIS6_SaIS6_EEEEEENS_8internal26parallel_for_each_body_forI7invokerIS6_ESB_EEKNS_16auto_partitionerEE13note_affinityEt
	.globl	local_thread_vars
	.bss
	.align 32
	.type	local_thread_vars, @object
	.size	local_thread_vars, 96
local_thread_vars:
	.zero	96
	.globl	cpus_num
	.align 4
	.type	cpus_num, @object
	.size	cpus_num, 4
cpus_num:
	.zero	4
	.local	_ZStL8__ioinit
	.comm	_ZStL8__ioinit,1,1
	.section	.rodata.cst8,"aM",@progbits,8
	.align 8
.LC2:
	.long	0
	.long	1093567616
	.align 8
.LC3:
	.long	0
	.long	1083179008
	.align 8
.LC6:
	.long	0
	.long	0
	.align 8
.LC7:
	.long	0
	.long	1106247680
	.align 8
.LC8:
	.long	0
	.long	1005584384
	.align 8
.LC9:
	.long	0
	.long	1072693248
	.align 8
.LC13:
	.long	0
	.long	-1073741824
	.align 8
.LC14:
	.long	0
	.long	1077870592
	.align 8
.LC15:
	.long	0
	.long	1082126336
	.align 8
.LC20:
	.long	3894859413
	.long	1041313291
	.align 8
.LC23:
	.long	0
	.long	1041235968
	.hidden	DW.ref.__gxx_personality_v0
	.weak	DW.ref.__gxx_personality_v0
	.section	.data.rel.local.DW.ref.__gxx_personality_v0,"awG",@progbits,DW.ref.__gxx_personality_v0,comdat
	.align 8
	.type	DW.ref.__gxx_personality_v0, @object
	.size	DW.ref.__gxx_personality_v0, 8
DW.ref.__gxx_personality_v0:
	.quad	__gxx_personality_v0
	.hidden	__dso_handle
	.ident	"GCC: (Ubuntu 7.3.0-27ubuntu1~18.04) 7.3.0"
	.section	.note.GNU-stack,"",@progbits
